---
triple:          'arm64-apple-darwin'
binary-path:     '/Users/shaswatgarg_mini/Documents/Projects/kinodb/target/debug/deps/libkinodb.dylib'
relocations:
  - { offset: 0x1E, size: 0x8, addend: 0x0, symName: '__ZN96_$LT$pyo3..pycell..impl_..BorrowChecker$u20$as$u20$pyo3..pycell..impl_..PyClassBorrowChecker$GT$3new17h082af2578db4cb3aE', symObjAddr: 0x0, symBinAddr: 0x888, symSize: 0x18 }
  - { offset: 0x3F, size: 0x8, addend: 0x0, symName: '__ZN96_$LT$pyo3..pycell..impl_..BorrowChecker$u20$as$u20$pyo3..pycell..impl_..PyClassBorrowChecker$GT$3new17h082af2578db4cb3aE', symObjAddr: 0x0, symBinAddr: 0x888, symSize: 0x18 }
  - { offset: 0xF7, size: 0x8, addend: 0x0, symName: __ZN4pyo36marker6Python19assume_gil_acquired17h0cf43c34d16a9970E, symObjAddr: 0x0, symBinAddr: 0x8A0, symSize: 0x4 }
  - { offset: 0x12A4, size: 0x8, addend: 0x0, symName: __ZN4pyo36marker6Python19assume_gil_acquired17h0cf43c34d16a9970E, symObjAddr: 0x0, symBinAddr: 0x8A0, symSize: 0x4 }
  - { offset: 0x16E6, size: 0x8, addend: 0x0, symName: __ZN4pyo36marker6Python4None17h1a95418c5b6b56e6E, symObjAddr: 0x4, symBinAddr: 0x8A4, symSize: 0x20 }
  - { offset: 0x1733, size: 0x8, addend: 0x0, symName: __ZN4core9ub_checks23maybe_is_nonoverlapping7runtime17h2c92a2d7293d9f86E, symObjAddr: 0x0, symBinAddr: 0x8C4, symSize: 0xD8 }
  - { offset: 0x18B8, size: 0x8, addend: 0x0, symName: __ZN4core9ub_checks23maybe_is_nonoverlapping7runtime17h2c92a2d7293d9f86E, symObjAddr: 0x0, symBinAddr: 0x8C4, symSize: 0xD8 }
  - { offset: 0x1ACB, size: 0x8, addend: 0x0, symName: __ZN4core4iter6traits8iterator8Iterator3zip17h498cf4bcc2cda3ddE, symObjAddr: 0x0, symBinAddr: 0x99C, symSize: 0xB4 }
  - { offset: 0x1BB6, size: 0x8, addend: 0x0, symName: __ZN4core4iter6traits8iterator8Iterator3zip17h498cf4bcc2cda3ddE, symObjAddr: 0x0, symBinAddr: 0x99C, symSize: 0xB4 }
  - { offset: 0x33C1, size: 0x8, addend: 0x0, symName: __ZN4core5alloc6layout6Layout25from_size_align_unchecked18precondition_check17h0bb0eb24519cc053E, symObjAddr: 0x0, symBinAddr: 0xA50, symSize: 0xBC }
  - { offset: 0x37E9, size: 0x8, addend: 0x0, symName: __ZN4core5alloc6layout6Layout25from_size_align_unchecked18precondition_check17h0bb0eb24519cc053E, symObjAddr: 0x0, symBinAddr: 0xA50, symSize: 0xBC }
  - { offset: 0x3A4C, size: 0x8, addend: 0x0, symName: '__ZN102_$LT$core..iter..adapters..map..Map$LT$I$C$F$GT$$u20$as$u20$core..iter..traits..iterator..Iterator$GT$4fold17h0a17cda33c97f399E', symObjAddr: 0x0, symBinAddr: 0xB0C, symSize: 0x44 }
  - { offset: 0x3B5C, size: 0x8, addend: 0x0, symName: '__ZN4core4iter8adapters3map8map_fold28_$u7b$$u7b$closure$u7d$$u7d$17h8e08c3c23dfe4623E', symObjAddr: 0x107C, symBinAddr: 0x1B88, symSize: 0x7C }
  - { offset: 0x3BE1, size: 0x8, addend: 0x0, symName: '__ZN4core4iter8adapters3map8map_fold28_$u7b$$u7b$closure$u7d$$u7d$17h99345319988693b3E', symObjAddr: 0x10F8, symBinAddr: 0x1C04, symSize: 0x7C }
  - { offset: 0x3C66, size: 0x8, addend: 0x0, symName: '__ZN4core4iter8adapters3map8map_fold28_$u7b$$u7b$closure$u7d$$u7d$17hb5e77adc11971a3eE', symObjAddr: 0x1174, symBinAddr: 0x1C80, symSize: 0x8C }
  - { offset: 0x3CEB, size: 0x8, addend: 0x0, symName: '__ZN4core4iter8adapters3map8map_fold28_$u7b$$u7b$closure$u7d$$u7d$17he60aaed936bf10eeE', symObjAddr: 0x1200, symBinAddr: 0x1D0C, symSize: 0x8C }
  - { offset: 0x3D76, size: 0x8, addend: 0x0, symName: '__ZN102_$LT$core..iter..adapters..map..Map$LT$I$C$F$GT$$u20$as$u20$core..iter..traits..iterator..Iterator$GT$4fold17h0a17cda33c97f399E', symObjAddr: 0x0, symBinAddr: 0xB0C, symSize: 0x44 }
  - { offset: 0x3E0E, size: 0x8, addend: 0x0, symName: '__ZN102_$LT$core..iter..adapters..map..Map$LT$I$C$F$GT$$u20$as$u20$core..iter..traits..iterator..Iterator$GT$4fold17h32b68775906b9c1cE', symObjAddr: 0x44, symBinAddr: 0xB50, symSize: 0x44 }
  - { offset: 0x3EA6, size: 0x8, addend: 0x0, symName: '__ZN102_$LT$core..iter..adapters..map..Map$LT$I$C$F$GT$$u20$as$u20$core..iter..traits..iterator..Iterator$GT$4fold17h4dfb97089cac7551E', symObjAddr: 0x88, symBinAddr: 0xB94, symSize: 0x44 }
  - { offset: 0x3F3E, size: 0x8, addend: 0x0, symName: '__ZN102_$LT$core..iter..adapters..map..Map$LT$I$C$F$GT$$u20$as$u20$core..iter..traits..iterator..Iterator$GT$4fold17h98f5b2673891a3cfE', symObjAddr: 0xCC, symBinAddr: 0xBD8, symSize: 0x44 }
  - { offset: 0x3FD6, size: 0x8, addend: 0x0, symName: '__ZN102_$LT$core..iter..adapters..map..Map$LT$I$C$F$GT$$u20$as$u20$core..iter..traits..iterator..Iterator$GT$4next17h6d7c9100c65ff0e5E', symObjAddr: 0x110, symBinAddr: 0xC1C, symSize: 0x78 }
  - { offset: 0x4072, size: 0x8, addend: 0x0, symName: '__ZN102_$LT$core..iter..adapters..map..Map$LT$I$C$F$GT$$u20$as$u20$core..iter..traits..iterator..Iterator$GT$4next17hda36de8283d38ae9E', symObjAddr: 0x188, symBinAddr: 0xC94, symSize: 0x78 }
  - { offset: 0x410E, size: 0x8, addend: 0x0, symName: '__ZN102_$LT$core..iter..adapters..map..Map$LT$I$C$F$GT$$u20$as$u20$core..iter..traits..iterator..Iterator$GT$4next17he5b274f92499b472E', symObjAddr: 0x200, symBinAddr: 0xD0C, symSize: 0x74 }
  - { offset: 0x41AA, size: 0x8, addend: 0x0, symName: '__ZN102_$LT$core..iter..adapters..map..Map$LT$I$C$F$GT$$u20$as$u20$core..iter..traits..iterator..Iterator$GT$4next17hee393a03110aab6eE', symObjAddr: 0x274, symBinAddr: 0xD80, symSize: 0x78 }
  - { offset: 0x4246, size: 0x8, addend: 0x0, symName: '__ZN102_$LT$core..iter..adapters..map..Map$LT$I$C$F$GT$$u20$as$u20$core..iter..traits..iterator..Iterator$GT$4next17hf150c8141ea59c32E', symObjAddr: 0x2EC, symBinAddr: 0xDF8, symSize: 0x78 }
  - { offset: 0x42E2, size: 0x8, addend: 0x0, symName: '__ZN102_$LT$core..iter..adapters..map..Map$LT$I$C$F$GT$$u20$as$u20$core..iter..traits..iterator..Iterator$GT$8try_fold17h3ba5e32de1492f1eE', symObjAddr: 0x364, symBinAddr: 0xE70, symSize: 0x34 }
  - { offset: 0x4360, size: 0x8, addend: 0x0, symName: '__ZN102_$LT$core..iter..adapters..map..Map$LT$I$C$F$GT$$u20$as$u20$core..iter..traits..iterator..Iterator$GT$8try_fold17h54276196c3d13e76E', symObjAddr: 0x398, symBinAddr: 0xEA4, symSize: 0x34 }
  - { offset: 0x43DE, size: 0x8, addend: 0x0, symName: '__ZN102_$LT$core..iter..adapters..map..Map$LT$I$C$F$GT$$u20$as$u20$core..iter..traits..iterator..Iterator$GT$8try_fold17h8a1424919923edf6E', symObjAddr: 0x3CC, symBinAddr: 0xED8, symSize: 0x34 }
  - { offset: 0x445C, size: 0x8, addend: 0x0, symName: '__ZN102_$LT$core..iter..adapters..map..Map$LT$I$C$F$GT$$u20$as$u20$core..iter..traits..iterator..Iterator$GT$8try_fold17hb43ad0723007a8d0E', symObjAddr: 0x400, symBinAddr: 0xF0C, symSize: 0x34 }
  - { offset: 0x44DA, size: 0x8, addend: 0x0, symName: '__ZN102_$LT$core..iter..adapters..map..Map$LT$I$C$F$GT$$u20$as$u20$core..iter..traits..iterator..Iterator$GT$8try_fold17hc11d49044ecca586E', symObjAddr: 0x434, symBinAddr: 0xF40, symSize: 0x34 }
  - { offset: 0x4558, size: 0x8, addend: 0x0, symName: '__ZN102_$LT$core..iter..adapters..map..Map$LT$I$C$F$GT$$u20$as$u20$core..iter..traits..iterator..Iterator$GT$9size_hint17h0a513cd1efe2616fE', symObjAddr: 0x468, symBinAddr: 0xF74, symSize: 0x24 }
  - { offset: 0x459F, size: 0x8, addend: 0x0, symName: '__ZN102_$LT$core..iter..adapters..map..Map$LT$I$C$F$GT$$u20$as$u20$core..iter..traits..iterator..Iterator$GT$9size_hint17h0db9580ed1840fd4E', symObjAddr: 0x48C, symBinAddr: 0xF98, symSize: 0x24 }
  - { offset: 0x45E6, size: 0x8, addend: 0x0, symName: '__ZN102_$LT$core..iter..adapters..map..Map$LT$I$C$F$GT$$u20$as$u20$core..iter..traits..iterator..Iterator$GT$9size_hint17h2e639290d38fa89aE', symObjAddr: 0x4B0, symBinAddr: 0xFBC, symSize: 0x24 }
  - { offset: 0x462D, size: 0x8, addend: 0x0, symName: '__ZN102_$LT$core..iter..adapters..map..Map$LT$I$C$F$GT$$u20$as$u20$core..iter..traits..iterator..Iterator$GT$9size_hint17h2f008f0e17e6c632E', symObjAddr: 0x4D4, symBinAddr: 0xFE0, symSize: 0x24 }
  - { offset: 0x4674, size: 0x8, addend: 0x0, symName: '__ZN102_$LT$core..iter..adapters..map..Map$LT$I$C$F$GT$$u20$as$u20$core..iter..traits..iterator..Iterator$GT$9size_hint17h3b57d7501b4713e1E', symObjAddr: 0x4F8, symBinAddr: 0x1004, symSize: 0x24 }
  - { offset: 0x46BB, size: 0x8, addend: 0x0, symName: '__ZN102_$LT$core..iter..adapters..map..Map$LT$I$C$F$GT$$u20$as$u20$core..iter..traits..iterator..Iterator$GT$9size_hint17h4662f6d76d87269eE', symObjAddr: 0x51C, symBinAddr: 0x1028, symSize: 0x24 }
  - { offset: 0x4702, size: 0x8, addend: 0x0, symName: '__ZN102_$LT$core..iter..adapters..map..Map$LT$I$C$F$GT$$u20$as$u20$core..iter..traits..iterator..Iterator$GT$9size_hint17h7777601a187848d0E', symObjAddr: 0x540, symBinAddr: 0x104C, symSize: 0x24 }
  - { offset: 0x4749, size: 0x8, addend: 0x0, symName: '__ZN102_$LT$core..iter..adapters..map..Map$LT$I$C$F$GT$$u20$as$u20$core..iter..traits..iterator..Iterator$GT$9size_hint17hb041dbad58c9043dE', symObjAddr: 0x564, symBinAddr: 0x1070, symSize: 0x24 }
  - { offset: 0x4790, size: 0x8, addend: 0x0, symName: '__ZN102_$LT$core..iter..adapters..map..Map$LT$I$C$F$GT$$u20$as$u20$core..iter..traits..iterator..Iterator$GT$9size_hint17heb4d76f5a529e467E', symObjAddr: 0x588, symBinAddr: 0x1094, symSize: 0x24 }
  - { offset: 0x48D9, size: 0x8, addend: 0x0, symName: '__ZN113_$LT$core..iter..adapters..map..Map$LT$I$C$F$GT$$u20$as$u20$core..iter..traits..exact_size..ExactSizeIterator$GT$3len17h043b13fd9e6b9a53E', symObjAddr: 0x5AC, symBinAddr: 0x10B8, symSize: 0x7C }
  - { offset: 0x4A15, size: 0x8, addend: 0x0, symName: '__ZN113_$LT$core..iter..adapters..map..Map$LT$I$C$F$GT$$u20$as$u20$core..iter..traits..exact_size..ExactSizeIterator$GT$3len17h2a30abb814eea3a5E', symObjAddr: 0x628, symBinAddr: 0x1134, symSize: 0x78 }
  - { offset: 0x4B51, size: 0x8, addend: 0x0, symName: '__ZN113_$LT$core..iter..adapters..map..Map$LT$I$C$F$GT$$u20$as$u20$core..iter..traits..exact_size..ExactSizeIterator$GT$3len17h5c89c453b8131faaE', symObjAddr: 0x6A0, symBinAddr: 0x11AC, symSize: 0x24 }
  - { offset: 0x4B98, size: 0x8, addend: 0x0, symName: '__ZN113_$LT$core..iter..adapters..map..Map$LT$I$C$F$GT$$u20$as$u20$core..iter..traits..exact_size..ExactSizeIterator$GT$3len17ha4d1544a7e2aff3dE', symObjAddr: 0x6C4, symBinAddr: 0x11D0, symSize: 0x7C }
  - { offset: 0x4CD4, size: 0x8, addend: 0x0, symName: '__ZN113_$LT$core..iter..adapters..map..Map$LT$I$C$F$GT$$u20$as$u20$core..iter..traits..exact_size..ExactSizeIterator$GT$3len17hab4e1f8cd9e6671fE', symObjAddr: 0x740, symBinAddr: 0x124C, symSize: 0x7C }
  - { offset: 0x4E10, size: 0x8, addend: 0x0, symName: '__ZN113_$LT$core..iter..adapters..map..Map$LT$I$C$F$GT$$u20$as$u20$core..iter..traits..exact_size..ExactSizeIterator$GT$8is_empty17h347912a2d489ab3eE', symObjAddr: 0x7BC, symBinAddr: 0x12C8, symSize: 0x3C }
  - { offset: 0x4EAA, size: 0x8, addend: 0x0, symName: '__ZN113_$LT$core..iter..adapters..map..Map$LT$I$C$F$GT$$u20$as$u20$core..iter..traits..exact_size..ExactSizeIterator$GT$8is_empty17h49566a94b3faf4b7E', symObjAddr: 0x7F8, symBinAddr: 0x1304, symSize: 0x24 }
  - { offset: 0x4EF1, size: 0x8, addend: 0x0, symName: '__ZN113_$LT$core..iter..adapters..map..Map$LT$I$C$F$GT$$u20$as$u20$core..iter..traits..exact_size..ExactSizeIterator$GT$8is_empty17h678b2f0a81a7f935E', symObjAddr: 0x81C, symBinAddr: 0x1328, symSize: 0x3C }
  - { offset: 0x4F8B, size: 0x8, addend: 0x0, symName: '__ZN113_$LT$core..iter..adapters..map..Map$LT$I$C$F$GT$$u20$as$u20$core..iter..traits..exact_size..ExactSizeIterator$GT$8is_empty17hc134da7bb5bcd562E', symObjAddr: 0x858, symBinAddr: 0x1364, symSize: 0x3C }
  - { offset: 0x5025, size: 0x8, addend: 0x0, symName: '__ZN113_$LT$core..iter..adapters..map..Map$LT$I$C$F$GT$$u20$as$u20$core..iter..traits..exact_size..ExactSizeIterator$GT$8is_empty17hdfffb4f44350d167E', symObjAddr: 0x894, symBinAddr: 0x13A0, symSize: 0x3C }
  - { offset: 0x50C5, size: 0x8, addend: 0x0, symName: '__ZN4core4iter8adapters3map12map_try_fold28_$u7b$$u7b$closure$u7d$$u7d$17h0de0bd9351a6e013E', symObjAddr: 0xD60, symBinAddr: 0x186C, symSize: 0xA0 }
  - { offset: 0x5157, size: 0x8, addend: 0x0, symName: '__ZN4core4iter8adapters3map12map_try_fold28_$u7b$$u7b$closure$u7d$$u7d$17h83ede0cccd8925b6E', symObjAddr: 0xE00, symBinAddr: 0x190C, symSize: 0xA0 }
  - { offset: 0x51E9, size: 0x8, addend: 0x0, symName: '__ZN4core4iter8adapters3map12map_try_fold28_$u7b$$u7b$closure$u7d$$u7d$17h9fd183625a43b40cE', symObjAddr: 0xEA0, symBinAddr: 0x19AC, symSize: 0xA0 }
  - { offset: 0x527B, size: 0x8, addend: 0x0, symName: '__ZN4core4iter8adapters3map12map_try_fold28_$u7b$$u7b$closure$u7d$$u7d$17ha4aa25ab5193fc67E', symObjAddr: 0xF40, symBinAddr: 0x1A4C, symSize: 0xA0 }
  - { offset: 0x530D, size: 0x8, addend: 0x0, symName: '__ZN4core4iter8adapters3map12map_try_fold28_$u7b$$u7b$closure$u7d$$u7d$17hef08b5579e08526cE', symObjAddr: 0xFE0, symBinAddr: 0x1AEC, symSize: 0x9C }
  - { offset: 0x5694, size: 0x8, addend: 0x0, symName: __ZN4core4iter6traits8iterator8Iterator10advance_by17h15807a475126ebf6E, symObjAddr: 0x8D0, symBinAddr: 0x13DC, symSize: 0x28 }
  - { offset: 0x56DA, size: 0x8, addend: 0x0, symName: __ZN4core4iter6traits8iterator8Iterator10advance_by17h3349133623645393E, symObjAddr: 0x8F8, symBinAddr: 0x1404, symSize: 0x28 }
  - { offset: 0x5720, size: 0x8, addend: 0x0, symName: __ZN4core4iter6traits8iterator8Iterator10advance_by17h499465bfb08632b4E, symObjAddr: 0x920, symBinAddr: 0x142C, symSize: 0x28 }
  - { offset: 0x5766, size: 0x8, addend: 0x0, symName: __ZN4core4iter6traits8iterator8Iterator10advance_by17h73f2a11a546319b1E, symObjAddr: 0x948, symBinAddr: 0x1454, symSize: 0x28 }
  - { offset: 0x57AC, size: 0x8, addend: 0x0, symName: __ZN4core4iter6traits8iterator8Iterator10advance_by17hfdf83acf9a10a53eE, symObjAddr: 0x970, symBinAddr: 0x147C, symSize: 0x28 }
  - { offset: 0x57F2, size: 0x8, addend: 0x0, symName: __ZN4core4iter6traits8iterator8Iterator3nth17h06efcdd40c09cec9E, symObjAddr: 0x998, symBinAddr: 0x14A4, symSize: 0x68 }
  - { offset: 0x589C, size: 0x8, addend: 0x0, symName: __ZN4core4iter6traits8iterator8Iterator3nth17h69d8a5e6077310baE, symObjAddr: 0xA00, symBinAddr: 0x150C, symSize: 0x68 }
  - { offset: 0x5946, size: 0x8, addend: 0x0, symName: __ZN4core4iter6traits8iterator8Iterator3nth17h78b0374791c58eb3E, symObjAddr: 0xA68, symBinAddr: 0x1574, symSize: 0x68 }
  - { offset: 0x59F0, size: 0x8, addend: 0x0, symName: __ZN4core4iter6traits8iterator8Iterator3nth17h796953d18315bf39E, symObjAddr: 0xAD0, symBinAddr: 0x15DC, symSize: 0x68 }
  - { offset: 0x5A9A, size: 0x8, addend: 0x0, symName: __ZN4core4iter6traits8iterator8Iterator3nth17hea89ff575952e4edE, symObjAddr: 0xB38, symBinAddr: 0x1644, symSize: 0x68 }
  - { offset: 0x5B44, size: 0x8, addend: 0x0, symName: __ZN4core4iter6traits8iterator8Iterator7collect17h1ec8c0e41999ee77E, symObjAddr: 0xBA0, symBinAddr: 0x16AC, symSize: 0x2C }
  - { offset: 0x5B84, size: 0x8, addend: 0x0, symName: __ZN4core4iter6traits8iterator8Iterator7collect17h23a13cc8dd03eaacE, symObjAddr: 0xBCC, symBinAddr: 0x16D8, symSize: 0x2C }
  - { offset: 0x5BC4, size: 0x8, addend: 0x0, symName: __ZN4core4iter6traits8iterator8Iterator7collect17h84a93bda413084b7E, symObjAddr: 0xBF8, symBinAddr: 0x1704, symSize: 0x2C }
  - { offset: 0x5C04, size: 0x8, addend: 0x0, symName: __ZN4core4iter6traits8iterator8Iterator7collect17hceb4dd9f0cc81938E, symObjAddr: 0xC24, symBinAddr: 0x1730, symSize: 0x2C }
  - { offset: 0x5C44, size: 0x8, addend: 0x0, symName: __ZN4core4iter6traits8iterator8Iterator8for_each17h31d5b49462826c5aE, symObjAddr: 0xC50, symBinAddr: 0x175C, symSize: 0x44 }
  - { offset: 0x5CAF, size: 0x8, addend: 0x0, symName: __ZN4core4iter6traits8iterator8Iterator8for_each17h3937c4c1698b1e1bE, symObjAddr: 0xC94, symBinAddr: 0x17A0, symSize: 0x44 }
  - { offset: 0x5D1A, size: 0x8, addend: 0x0, symName: __ZN4core4iter6traits8iterator8Iterator8for_each17hc058d7dcb6e8fea7E, symObjAddr: 0xCD8, symBinAddr: 0x17E4, symSize: 0x44 }
  - { offset: 0x5D85, size: 0x8, addend: 0x0, symName: __ZN4core4iter6traits8iterator8Iterator8for_each17hea2c830bcd74a06eE, symObjAddr: 0xD1C, symBinAddr: 0x1828, symSize: 0x44 }
  - { offset: 0x5DFA, size: 0x8, addend: 0x0, symName: '__ZN87_$LT$I$u20$as$u20$core..iter..traits..iterator..Iterator..advance_by..SpecAdvanceBy$GT$15spec_advance_by17h5693876b154e973dE', symObjAddr: 0x12FC, symBinAddr: 0x1E08, symSize: 0x8C }
  - { offset: 0x5EA8, size: 0x8, addend: 0x0, symName: '__ZN87_$LT$I$u20$as$u20$core..iter..traits..iterator..Iterator..advance_by..SpecAdvanceBy$GT$15spec_advance_by17h983a90bc8534d424E', symObjAddr: 0x1388, symBinAddr: 0x1E94, symSize: 0x8C }
  - { offset: 0x5F56, size: 0x8, addend: 0x0, symName: '__ZN87_$LT$I$u20$as$u20$core..iter..traits..iterator..Iterator..advance_by..SpecAdvanceBy$GT$15spec_advance_by17h9e5aa7083ea70daeE', symObjAddr: 0x1414, symBinAddr: 0x1F20, symSize: 0x8C }
  - { offset: 0x6004, size: 0x8, addend: 0x0, symName: '__ZN87_$LT$I$u20$as$u20$core..iter..traits..iterator..Iterator..advance_by..SpecAdvanceBy$GT$15spec_advance_by17hd7068de54ce5aac2E', symObjAddr: 0x14A0, symBinAddr: 0x1FAC, symSize: 0x8C }
  - { offset: 0x60B2, size: 0x8, addend: 0x0, symName: '__ZN87_$LT$I$u20$as$u20$core..iter..traits..iterator..Iterator..advance_by..SpecAdvanceBy$GT$15spec_advance_by17hf3b018581a1dd371E', symObjAddr: 0x152C, symBinAddr: 0x2038, symSize: 0x8C }
  - { offset: 0x6197, size: 0x8, addend: 0x0, symName: '__ZN63_$LT$I$u20$as$u20$core..iter..traits..collect..IntoIterator$GT$9into_iter17h690735006747b965E', symObjAddr: 0x128C, symBinAddr: 0x1D98, symSize: 0x1C }
  - { offset: 0x61CE, size: 0x8, addend: 0x0, symName: '__ZN63_$LT$I$u20$as$u20$core..iter..traits..collect..IntoIterator$GT$9into_iter17h6ace422fad61d794E', symObjAddr: 0x12A8, symBinAddr: 0x1DB4, symSize: 0x1C }
  - { offset: 0x6205, size: 0x8, addend: 0x0, symName: '__ZN63_$LT$I$u20$as$u20$core..iter..traits..collect..IntoIterator$GT$9into_iter17h7182111f5e3627d0E', symObjAddr: 0x12C4, symBinAddr: 0x1DD0, symSize: 0x1C }
  - { offset: 0x623C, size: 0x8, addend: 0x0, symName: '__ZN63_$LT$I$u20$as$u20$core..iter..traits..collect..IntoIterator$GT$9into_iter17hb33d72489e6a62b0E', symObjAddr: 0x12E0, symBinAddr: 0x1DEC, symSize: 0x1C }
  - { offset: 0x9533, size: 0x8, addend: 0x0, symName: __ZN4core3fmt9Arguments17from_str_nonconst17h06aa41f819285c8aE, symObjAddr: 0x0, symBinAddr: 0x20C4, symSize: 0x28 }
  - { offset: 0x987F, size: 0x8, addend: 0x0, symName: __ZN4core3fmt9Arguments17from_str_nonconst17h06aa41f819285c8aE, symObjAddr: 0x0, symBinAddr: 0x20C4, symSize: 0x28 }
  - { offset: 0x98A2, size: 0x8, addend: 0x0, symName: __ZN4core3fmt9Arguments8from_str17h2b80bec409961f08E, symObjAddr: 0x28, symBinAddr: 0x20EC, symSize: 0x20 }
  - { offset: 0x98E3, size: 0x8, addend: 0x0, symName: __ZN4core3ptr19copy_nonoverlapping18precondition_check17h973a071aec876633E, symObjAddr: 0x0, symBinAddr: 0x210C, symSize: 0x168 }
  - { offset: 0x99CB, size: 0x8, addend: 0x0, symName: __ZN4core3ptr19copy_nonoverlapping18precondition_check17h973a071aec876633E, symObjAddr: 0x0, symBinAddr: 0x210C, symSize: 0x168 }
  - { offset: 0x9BFD, size: 0x8, addend: 0x0, symName: __ZN4pyo35impl_16extract_argument16extract_argument17h1a29558e1088d134E, symObjAddr: 0x0, symBinAddr: 0x2274, symSize: 0x130 }
  - { offset: 0xB5FE, size: 0x8, addend: 0x0, symName: __ZN4pyo35impl_16extract_argument16extract_argument17h1a29558e1088d134E, symObjAddr: 0x0, symBinAddr: 0x2274, symSize: 0x130 }
  - { offset: 0xB684, size: 0x8, addend: 0x0, symName: __ZN4pyo35impl_16extract_argument16extract_argument17h3c7c2f131a206cf6E, symObjAddr: 0x130, symBinAddr: 0x23A4, symSize: 0x124 }
  - { offset: 0xB812, size: 0x8, addend: 0x0, symName: '__ZN4pyo35impl_16extract_argument19FunctionDescription26extract_arguments_fastcall28_$u7b$$u7b$closure$u7d$$u7d$17h3ce8ee227d872b8fE', symObjAddr: 0xF48, symBinAddr: 0x31BC, symSize: 0x24 }
  - { offset: 0xB86A, size: 0x8, addend: 0x0, symName: '__ZN4pyo35impl_16extract_argument19FunctionDescription36find_keyword_parameter_in_positional28_$u7b$$u7b$closure$u7d$$u7d$17ha3fa342ea582de99E', symObjAddr: 0xF6C, symBinAddr: 0x31E0, symSize: 0x48 }
  - { offset: 0xB8CA, size: 0x8, addend: 0x0, symName: '__ZN4pyo35impl_16extract_argument19FunctionDescription38find_keyword_parameter_in_keyword_only28_$u7b$$u7b$closure$u7d$$u7d$17h749e47ce44eb6d4dE', symObjAddr: 0xFB4, symBinAddr: 0x3228, symSize: 0x38 }
  - { offset: 0xB90C, size: 0x8, addend: 0x0, symName: __ZN4pyo35impl_16extract_argument19extract_pyclass_ref17h2822586258fa8c87E, symObjAddr: 0xFEC, symBinAddr: 0x3260, symSize: 0xB0 }
  - { offset: 0xB972, size: 0x8, addend: 0x0, symName: '__ZN71_$LT$T$u20$as$u20$pyo3..impl_..extract_argument..PyFunctionArgument$GT$7extract17h2be970dff9ed8fdeE', symObjAddr: 0x109C, symBinAddr: 0x3310, symSize: 0x28 }
  - { offset: 0xB9B1, size: 0x8, addend: 0x0, symName: '__ZN71_$LT$T$u20$as$u20$pyo3..impl_..extract_argument..PyFunctionArgument$GT$7extract17h463391583fc59caeE', symObjAddr: 0x10C4, symBinAddr: 0x3338, symSize: 0x28 }
  - { offset: 0xC3B1, size: 0x8, addend: 0x0, symName: __ZN4pyo35impl_16extract_argument19FunctionDescription13handle_kwargs17h8616cc41c0ec3e94E, symObjAddr: 0x254, symBinAddr: 0x24C8, symSize: 0x6E4 }
  - { offset: 0xC5CE, size: 0x8, addend: 0x0, symName: __ZN4pyo35impl_16extract_argument19FunctionDescription26extract_arguments_fastcall17h302b324d9baa69c7E, symObjAddr: 0x938, symBinAddr: 0x2BAC, symSize: 0x610 }
  - { offset: 0xCCE3, size: 0x8, addend: 0x0, symName: __ZN4core3fmt2rt8Argument11new_display17haaaa76e1d2737f84E, symObjAddr: 0x0, symBinAddr: 0x3360, symSize: 0x2C }
  - { offset: 0xD243, size: 0x8, addend: 0x0, symName: __ZN4core3fmt2rt8Argument11new_display17haaaa76e1d2737f84E, symObjAddr: 0x0, symBinAddr: 0x3360, symSize: 0x2C }
  - { offset: 0xD2C3, size: 0x8, addend: 0x0, symName: __ZN4core3fmt2rt8Argument11new_display17hdb75ad5ed8973cddE, symObjAddr: 0x2C, symBinAddr: 0x338C, symSize: 0x2C }
  - { offset: 0xD5AE, size: 0x8, addend: 0x0, symName: __ZN4core3fmt2rt8Argument11new_display17hf7a937654024ed33E, symObjAddr: 0x58, symBinAddr: 0x33B8, symSize: 0x2C }
  - { offset: 0xD5F7, size: 0x8, addend: 0x0, symName: __ZN4pyo310exceptions12PyIndexError7new_err17h5d5e7592738bfa5eE, symObjAddr: 0x0, symBinAddr: 0x33E4, symSize: 0x34 }
  - { offset: 0xE96B, size: 0x8, addend: 0x0, symName: '__ZN77_$LT$pyo3..exceptions..PyIOError$u20$as$u20$pyo3..type_object..PyTypeInfo$GT$15type_object_raw28_$u7b$$u7b$closure$u7d$$u7d$17hb68d5fa8c06c7762E', symObjAddr: 0xE4, symBinAddr: 0x34C8, symSize: 0x4C }
  - { offset: 0xE9C3, size: 0x8, addend: 0x0, symName: '__ZN80_$LT$pyo3..exceptions..PyIndexError$u20$as$u20$pyo3..type_object..PyTypeInfo$GT$15type_object_raw28_$u7b$$u7b$closure$u7d$$u7d$17h665f115b6809fe90E', symObjAddr: 0x130, symBinAddr: 0x3514, symSize: 0x4C }
  - { offset: 0xEC30, size: 0x8, addend: 0x0, symName: __ZN4pyo311type_object10PyTypeInfo17type_object_bound17h4c41de8bb4500e75E, symObjAddr: 0x84, symBinAddr: 0x3468, symSize: 0x30 }
  - { offset: 0xEC70, size: 0x8, addend: 0x0, symName: __ZN4pyo311type_object10PyTypeInfo17type_object_bound17hfa160d5e87e6e012E, symObjAddr: 0xB4, symBinAddr: 0x3498, symSize: 0x30 }
  - { offset: 0xF2A5, size: 0x8, addend: 0x0, symName: __ZN4pyo310exceptions12PyIndexError7new_err17h5d5e7592738bfa5eE, symObjAddr: 0x0, symBinAddr: 0x33E4, symSize: 0x34 }
  - { offset: 0xF2D8, size: 0x8, addend: 0x0, symName: __ZN4pyo310exceptions15PyOverflowError7new_err17h50a1ff2da25a7cf2E, symObjAddr: 0x34, symBinAddr: 0x3418, symSize: 0x1C }
  - { offset: 0xF303, size: 0x8, addend: 0x0, symName: __ZN4pyo310exceptions9PyIOError7new_err17hd51f6c6d6f7ee9aaE, symObjAddr: 0x50, symBinAddr: 0x3434, symSize: 0x34 }
  - { offset: 0xF39F, size: 0x8, addend: 0x0, symName: '__ZN106_$LT$pyo3..impl_..extract_argument..NoVarargs$u20$as$u20$pyo3..impl_..extract_argument..VarargsHandler$GT$23handle_varargs_fastcall17hd9c52b442ddde96aE', symObjAddr: 0x0, symBinAddr: 0x3560, symSize: 0xA8 }
  - { offset: 0x10ABF, size: 0x8, addend: 0x0, symName: '__ZN106_$LT$pyo3..impl_..extract_argument..NoVarargs$u20$as$u20$pyo3..impl_..extract_argument..VarargsHandler$GT$23handle_varargs_fastcall17hd9c52b442ddde96aE', symObjAddr: 0x0, symBinAddr: 0x3560, symSize: 0xA8 }
  - { offset: 0x10B33, size: 0x8, addend: 0x0, symName: '__ZN114_$LT$pyo3..impl_..extract_argument..NoVarkeywords$u20$as$u20$pyo3..impl_..extract_argument..VarkeywordsHandler$GT$17handle_varkeyword17h8636134e4de37fa6E', symObjAddr: 0xA8, symBinAddr: 0x3608, symSize: 0x60 }
  - { offset: 0x10C72, size: 0x8, addend: 0x0, symName: __ZN4pyo35impl_16extract_argument24unwrap_required_argument17he9b5bc24a558baf1E, symObjAddr: 0x4A4, symBinAddr: 0x3A04, symSize: 0x58 }
  - { offset: 0x11027, size: 0x8, addend: 0x0, symName: __ZN4pyo35impl_16extract_argument19FunctionDescription36find_keyword_parameter_in_positional17h7ffdf29d24ed5690E, symObjAddr: 0x108, symBinAddr: 0x3668, symSize: 0x5C }
  - { offset: 0x11059, size: 0x8, addend: 0x0, symName: __ZN4pyo35impl_16extract_argument19FunctionDescription38find_keyword_parameter_in_keyword_only17h7456f449e4b7ff70E, symObjAddr: 0x164, symBinAddr: 0x36C4, symSize: 0x5C }
  - { offset: 0x1156E, size: 0x8, addend: 0x0, symName: __ZN4pyo35impl_16extract_argument19FunctionDescription44ensure_no_missing_required_keyword_arguments17hfed139e539fce9e1E, symObjAddr: 0x1C0, symBinAddr: 0x3720, symSize: 0x154 }
  - { offset: 0x1163A, size: 0x8, addend: 0x0, symName: __ZN4pyo35impl_16extract_argument19FunctionDescription47ensure_no_missing_required_positional_arguments17h64a561f38b7c6764E, symObjAddr: 0x314, symBinAddr: 0x3874, symSize: 0x190 }
  - { offset: 0x117C1, size: 0x8, addend: 0x0, symName: '__ZN59_$LT$alloc..alloc..Global$u20$as$u20$core..clone..Clone$GT$5clone17haf5ba63f9ade12afE', symObjAddr: 0x0, symBinAddr: 0x3A5C, symSize: 0x10 }
  - { offset: 0x12137, size: 0x8, addend: 0x0, symName: '__ZN59_$LT$alloc..alloc..Global$u20$as$u20$core..clone..Clone$GT$5clone17haf5ba63f9ade12afE', symObjAddr: 0x0, symBinAddr: 0x3A5C, symSize: 0x10 }
  - { offset: 0x121D4, size: 0x8, addend: 0x0, symName: __ZN5alloc5alloc15exchange_malloc17h5c8d1f8c885e4d00E, symObjAddr: 0x10, symBinAddr: 0x3A6C, symSize: 0xB0 }
  - { offset: 0x1250B, size: 0x8, addend: 0x0, symName: __ZN5alloc5alloc6Global18alloc_impl_runtime17hd8b14caf5867a2beE, symObjAddr: 0xC0, symBinAddr: 0x3B1C, symSize: 0x194 }
  - { offset: 0x128BC, size: 0x8, addend: 0x0, symName: '__ZN4core3ptr9const_ptr33_$LT$impl$u20$$BP$const$u20$T$GT$20offset_from_unsigned18precondition_check17hbf8246b2c55ccf93E', symObjAddr: 0x0, symBinAddr: 0x3CB0, symSize: 0x60 }
  - { offset: 0x128E2, size: 0x8, addend: 0x0, symName: '__ZN4core3ptr9const_ptr33_$LT$impl$u20$$BP$const$u20$T$GT$20offset_from_unsigned18precondition_check17hbf8246b2c55ccf93E', symObjAddr: 0x0, symBinAddr: 0x3CB0, symSize: 0x60 }
  - { offset: 0x129CB, size: 0x8, addend: 0x0, symName: '__ZN4core3ptr9const_ptr33_$LT$impl$u20$$BP$const$u20$T$GT$6offset18precondition_check17h4f2e63620dc8fdd4E', symObjAddr: 0x60, symBinAddr: 0x3D10, symSize: 0xC4 }
  - { offset: 0x12DB2, size: 0x8, addend: 0x0, symName: __ZN4pyo311type_object10PyTypeInfo16is_type_of_bound17hb0a0607179489040E, symObjAddr: 0x0, symBinAddr: 0x3DD4, symSize: 0x50 }
  - { offset: 0x13555, size: 0x8, addend: 0x0, symName: '__ZN50_$LT$T$u20$as$u20$core..convert..Into$LT$U$GT$$GT$4into17h7d0be999e29d79b5E', symObjAddr: 0x60, symBinAddr: 0x3E34, symSize: 0x14 }
  - { offset: 0x149BE, size: 0x8, addend: 0x0, symName: __ZN4pyo311type_object10PyTypeInfo16is_type_of_bound17hb0a0607179489040E, symObjAddr: 0x0, symBinAddr: 0x3DD4, symSize: 0x50 }
  - { offset: 0x149F9, size: 0x8, addend: 0x0, symName: '__ZN52_$LT$T$u20$as$u20$pyo3..type_object..PyTypeCheck$GT$10type_check17h25b109e8670d33f8E', symObjAddr: 0x74, symBinAddr: 0x3E48, symSize: 0x24 }
  - { offset: 0x14A3F, size: 0x8, addend: 0x0, symName: __ZN4pyo35impl_7pyclass11PyClassImpl11dict_offset17he56257008fb634e4E, symObjAddr: 0x50, symBinAddr: 0x3E24, symSize: 0x8 }
  - { offset: 0x14A66, size: 0x8, addend: 0x0, symName: __ZN4pyo35impl_7pyclass11PyClassImpl15weaklist_offset17h34b827d05cc02d5aE, symObjAddr: 0x58, symBinAddr: 0x3E2C, symSize: 0x8 }
  - { offset: 0x14F41, size: 0x8, addend: 0x0, symName: '__ZN6kinodb10PyDatabase12read_episode28_$u7b$$u7b$closure$u7d$$u7d$17h84de2a5ea69719baE', symObjAddr: 0x98, symBinAddr: 0x3E6C, symSize: 0x1020 }
  - { offset: 0x152E0, size: 0x8, addend: 0x0, symName: '__ZN6kinodb10PyDatabase12read_episode28_$u7b$$u7b$closure$u7d$$u7d$17hbb8e749b8a99325aE', symObjAddr: 0x10B8, symBinAddr: 0x4E8C, symSize: 0xBC }
  - { offset: 0x1536B, size: 0x8, addend: 0x0, symName: '__ZN6kinodb10PyDatabase12read_episode28_$u7b$$u7b$closure$u7d$$u7d$28_$u7b$$u7b$closure$u7d$$u7d$17h0fe0baf90cce26dbE', symObjAddr: 0x1174, symBinAddr: 0x4F48, symSize: 0x28 }
  - { offset: 0x153A1, size: 0x8, addend: 0x0, symName: '__ZN6kinodb10PyDatabase12read_episode28_$u7b$$u7b$closure$u7d$$u7d$28_$u7b$$u7b$closure$u7d$$u7d$17h1b5da0398f7ee6d3E', symObjAddr: 0x119C, symBinAddr: 0x4F70, symSize: 0x34 }
  - { offset: 0x153D7, size: 0x8, addend: 0x0, symName: '__ZN6kinodb10PyDatabase12read_episode28_$u7b$$u7b$closure$u7d$$u7d$28_$u7b$$u7b$closure$u7d$$u7d$17h6a124b0e02591f63E', symObjAddr: 0x11D0, symBinAddr: 0x4FA4, symSize: 0x28 }
  - { offset: 0x1540D, size: 0x8, addend: 0x0, symName: '__ZN6kinodb10PyDatabase12read_episode28_$u7b$$u7b$closure$u7d$$u7d$28_$u7b$$u7b$closure$u7d$$u7d$17h8aa7366da855d4ddE', symObjAddr: 0x11F8, symBinAddr: 0x4FCC, symSize: 0x20 }
  - { offset: 0x1546D, size: 0x8, addend: 0x0, symName: '__ZN6kinodb10PyDatabase5query28_$u7b$$u7b$closure$u7d$$u7d$17hd2a9ce15daec862cE', symObjAddr: 0x1218, symBinAddr: 0x4FEC, symSize: 0xCC }
  - { offset: 0x15500, size: 0x8, addend: 0x0, symName: '__ZN6kinodb10PyDatabase9read_meta28_$u7b$$u7b$closure$u7d$$u7d$17h902889fcef88cc05E', symObjAddr: 0x12E4, symBinAddr: 0x50B8, symSize: 0x520 }
  - { offset: 0x1567E, size: 0x8, addend: 0x0, symName: '__ZN6kinodb10PyDatabase9read_meta28_$u7b$$u7b$closure$u7d$$u7d$17he172f3c56869011bE', symObjAddr: 0x1804, symBinAddr: 0x55D8, symSize: 0xBC }
  - { offset: 0x15712, size: 0x8, addend: 0x0, symName: '__ZN6kinodb4open28_$u7b$$u7b$closure$u7d$$u7d$17h2dc9cd42f25d34c5E', symObjAddr: 0x18C0, symBinAddr: 0x5694, symSize: 0xE4 }
  - { offset: 0x157AA, size: 0x8, addend: 0x0, symName: '__ZN72_$LT$kinodb..PyDatabase$u20$as$u20$pyo3..impl_..pyclass..PyClassImpl$GT$3doc28_$u7b$$u7b$closure$u7d$$u7d$17h9d69b63a454865bbE', symObjAddr: 0x19A4, symBinAddr: 0x5778, symSize: 0x58 }
  - { offset: 0x167C2, size: 0x8, addend: 0x0, symName: '__ZN69_$LT$alloc..boxed..Box$LT$T$C$A$GT$$u20$as$u20$core..fmt..Display$GT$3fmt17h5180495e55caada0E', symObjAddr: 0x0, symBinAddr: 0x57D0, symSize: 0x3C }
  - { offset: 0x167DE, size: 0x8, addend: 0x0, symName: '__ZN69_$LT$alloc..boxed..Box$LT$T$C$A$GT$$u20$as$u20$core..fmt..Display$GT$3fmt17h5180495e55caada0E', symObjAddr: 0x0, symBinAddr: 0x57D0, symSize: 0x3C }
  - { offset: 0x16A18, size: 0x8, addend: 0x0, symName: '__ZN4core3ptr7mut_ptr31_$LT$impl$u20$$BP$mut$u20$T$GT$6offset18precondition_check17h75a18837f807de5cE', symObjAddr: 0x0, symBinAddr: 0x580C, symSize: 0xC4 }
  - { offset: 0x16ACE, size: 0x8, addend: 0x0, symName: '__ZN4core3ptr7mut_ptr31_$LT$impl$u20$$BP$mut$u20$T$GT$6offset18precondition_check17h75a18837f807de5cE', symObjAddr: 0x0, symBinAddr: 0x580C, symSize: 0xC4 }
  - { offset: 0x16EC1, size: 0x8, addend: 0x0, symName: '__ZN4core3ptr9const_ptr33_$LT$impl$u20$$BP$const$u20$T$GT$7is_null17h5410b415eadc1bdaE', symObjAddr: 0x0, symBinAddr: 0x58D0, symSize: 0x18 }
  - { offset: 0x16F32, size: 0x8, addend: 0x0, symName: '__ZN4core3ptr9const_ptr33_$LT$impl$u20$$BP$const$u20$T$GT$7is_null17h5410b415eadc1bdaE', symObjAddr: 0x0, symBinAddr: 0x58D0, symSize: 0x18 }
  - { offset: 0x1704C, size: 0x8, addend: 0x0, symName: '__ZN4core5slice29_$LT$impl$u20$$u5b$T$u5d$$GT$15copy_from_slice17hb2cdc9d9f07b9cf6E', symObjAddr: 0x18, symBinAddr: 0x58E8, symSize: 0x34 }
  - { offset: 0x170B5, size: 0x8, addend: 0x0, symName: '__ZN4core5slice29_$LT$impl$u20$$u5b$T$u5d$$GT$18split_at_unchecked17h8061ade86897c74fE', symObjAddr: 0x4C, symBinAddr: 0x591C, symSize: 0xE8 }
  - { offset: 0x171FA, size: 0x8, addend: 0x0, symName: '__ZN4core5slice29_$LT$impl$u20$$u5b$T$u5d$$GT$8split_at17h70b5a9d0f3bd7f67E', symObjAddr: 0x134, symBinAddr: 0x5A04, symSize: 0xAC }
  - { offset: 0x19001, size: 0x8, addend: 0x0, symName: '__ZN4pyo311conversions3std6option88_$LT$impl$u20$pyo3..conversion..ToPyObject$u20$for$u20$core..option..Option$LT$T$GT$$GT$9to_object17h4f3db9b3358d3c88E', symObjAddr: 0x758, symBinAddr: 0x6028, symSize: 0x30 }
  - { offset: 0x1904F, size: 0x8, addend: 0x0, symName: '__ZN4pyo311conversions3std6option88_$LT$impl$u20$pyo3..conversion..ToPyObject$u20$for$u20$core..option..Option$LT$T$GT$$GT$9to_object17h9bbb51d5b17963caE', symObjAddr: 0x788, symBinAddr: 0x6058, symSize: 0x30 }
  - { offset: 0x1959F, size: 0x8, addend: 0x0, symName: '__ZN4core6option15Option$LT$T$GT$11map_or_else17h170a3bfe10e1fa57E', symObjAddr: 0x1E0, symBinAddr: 0x5AB0, symSize: 0xD0 }
  - { offset: 0x1962E, size: 0x8, addend: 0x0, symName: '__ZN4core6option15Option$LT$T$GT$11map_or_else17h5236dfbccbace6efE', symObjAddr: 0x2B0, symBinAddr: 0x5B80, symSize: 0xD0 }
  - { offset: 0x196B6, size: 0x8, addend: 0x0, symName: '__ZN4core6option15Option$LT$T$GT$3map17h0d3d30e049d754aaE', symObjAddr: 0x380, symBinAddr: 0x5C50, symSize: 0x5C }
  - { offset: 0x19721, size: 0x8, addend: 0x0, symName: '__ZN4core6option15Option$LT$T$GT$3map17h2ea4b084e71230beE', symObjAddr: 0x3DC, symBinAddr: 0x5CAC, symSize: 0x5C }
  - { offset: 0x19799, size: 0x8, addend: 0x0, symName: '__ZN4core6option15Option$LT$T$GT$3map17h39e3149eb80f4f94E', symObjAddr: 0x438, symBinAddr: 0x5D08, symSize: 0x50 }
  - { offset: 0x19A3E, size: 0x8, addend: 0x0, symName: '__ZN4core6option15Option$LT$T$GT$6as_ref17h276c43c8f78e54edE', symObjAddr: 0x488, symBinAddr: 0x5D58, symSize: 0x4C }
  - { offset: 0x19A95, size: 0x8, addend: 0x0, symName: '__ZN4core6option15Option$LT$T$GT$6as_ref17h7fa40d4d3af9033bE', symObjAddr: 0x4D4, symBinAddr: 0x5DA4, symSize: 0x4C }
  - { offset: 0x19AEC, size: 0x8, addend: 0x0, symName: '__ZN4core6option15Option$LT$T$GT$6as_ref17ha779718e064cb2bbE', symObjAddr: 0x520, symBinAddr: 0x5DF0, symSize: 0x50 }
  - { offset: 0x19B7F, size: 0x8, addend: 0x0, symName: '__ZN4core6option15Option$LT$T$GT$6expect17h916a2a7e8539744aE', symObjAddr: 0x570, symBinAddr: 0x5E40, symSize: 0x5C }
  - { offset: 0x19DB8, size: 0x8, addend: 0x0, symName: '__ZN4core6option15Option$LT$T$GT$6insert17hd034fc3d7e8e19f9E', symObjAddr: 0x5CC, symBinAddr: 0x5E9C, symSize: 0xA8 }
  - { offset: 0x19E4E, size: 0x8, addend: 0x0, symName: '__ZN4core6option15Option$LT$T$GT$7is_some17h112d96d2838bdf58E', symObjAddr: 0x674, symBinAddr: 0x5F44, symSize: 0x28 }
  - { offset: 0x19E87, size: 0x8, addend: 0x0, symName: '__ZN4core6option15Option$LT$T$GT$7is_some17hf28c5a6bd1428574E', symObjAddr: 0x69C, symBinAddr: 0x5F6C, symSize: 0x28 }
  - { offset: 0x19EC0, size: 0x8, addend: 0x0, symName: '__ZN4core6option15Option$LT$T$GT$7replace17hd95c35f9b2684ad2E', symObjAddr: 0x6C4, symBinAddr: 0x5F94, symSize: 0x28 }
  - { offset: 0x19FD3, size: 0x8, addend: 0x0, symName: '__ZN4core6option15Option$LT$T$GT$8as_deref17h883598acad7b8583E', symObjAddr: 0x6EC, symBinAddr: 0x5FBC, symSize: 0x6C }
  - { offset: 0x1A0B8, size: 0x8, addend: 0x0, symName: '__ZN97_$LT$alloc..ffi..c_str..CString$u20$as$u20$core..borrow..Borrow$LT$core..ffi..c_str..CStr$GT$$GT$6borrow17h6625e060e1042102E', symObjAddr: 0x0, symBinAddr: 0x6088, symSize: 0x20 }
  - { offset: 0x1A13E, size: 0x8, addend: 0x0, symName: '__ZN97_$LT$alloc..ffi..c_str..CString$u20$as$u20$core..borrow..Borrow$LT$core..ffi..c_str..CStr$GT$$GT$6borrow17h6625e060e1042102E', symObjAddr: 0x0, symBinAddr: 0x6088, symSize: 0x20 }
  - { offset: 0x1A2C3, size: 0x8, addend: 0x0, symName: '__ZN119_$LT$pyo3..instance..Bound$LT$pyo3..types..typeobject..PyType$GT$$u20$as$u20$pyo3..types..typeobject..PyTypeMethods$GT$11as_type_ptr17hf2076c627d7cd6d8E', symObjAddr: 0x0, symBinAddr: 0x60A8, symSize: 0x24 }
  - { offset: 0x1B4C7, size: 0x8, addend: 0x0, symName: '__ZN119_$LT$pyo3..instance..Bound$LT$pyo3..types..typeobject..PyType$GT$$u20$as$u20$pyo3..types..typeobject..PyTypeMethods$GT$11as_type_ptr17hf2076c627d7cd6d8E', symObjAddr: 0x0, symBinAddr: 0x60A8, symSize: 0x24 }
  - { offset: 0x1BBC9, size: 0x8, addend: 0x0, symName: '__ZN4pyo38instance36Bound$LT$pyo3..types..any..PyAny$GT$14from_owned_ptr17h3f83bb460930bc77E', symObjAddr: 0x24, symBinAddr: 0x60CC, symSize: 0x2C }
  - { offset: 0x1BC11, size: 0x8, addend: 0x0, symName: '__ZN4pyo38instance39Borrowed$LT$pyo3..types..any..PyAny$GT$15from_ptr_or_opt17h4e95e5cff0e4f4c6E', symObjAddr: 0x50, symBinAddr: 0x60F8, symSize: 0x2C }
  - { offset: 0x1BC4F, size: 0x8, addend: 0x0, symName: '__ZN4pyo38instance39Borrowed$LT$pyo3..types..any..PyAny$GT$18from_ptr_unchecked17ha80be80db4efd5c9E', symObjAddr: 0x7C, symBinAddr: 0x6124, symSize: 0x2C }
  - { offset: 0x1BC8D, size: 0x8, addend: 0x0, symName: '__ZN4pyo38instance39Borrowed$LT$pyo3..types..any..PyAny$GT$8from_ptr17h716c96930f14cc5eE', symObjAddr: 0xA8, symBinAddr: 0x6150, symSize: 0x34 }
  - { offset: 0x1BCF6, size: 0x8, addend: 0x0, symName: '__ZN4pyo34sync20GILOnceCell$LT$T$GT$15get_or_try_init17haf49472042d72a9eE', symObjAddr: 0x0, symBinAddr: 0x6184, symSize: 0xB4 }
  - { offset: 0x1DB64, size: 0x8, addend: 0x0, symName: '__ZN4pyo34sync20GILOnceCell$LT$T$GT$15get_or_try_init17haf49472042d72a9eE', symObjAddr: 0x0, symBinAddr: 0x6184, symSize: 0xB4 }
  - { offset: 0x1DBDD, size: 0x8, addend: 0x0, symName: '__ZN4pyo34sync20GILOnceCell$LT$T$GT$3get17h4e6f0051870d5202E', symObjAddr: 0xB4, symBinAddr: 0x6238, symSize: 0x70 }
  - { offset: 0x1DC5E, size: 0x8, addend: 0x0, symName: '__ZN4pyo34sync20GILOnceCell$LT$T$GT$3set17h6379010e7ce12ab7E', symObjAddr: 0x124, symBinAddr: 0x62A8, symSize: 0x194 }
  - { offset: 0x1DD57, size: 0x8, addend: 0x0, symName: '__ZN4pyo34sync20GILOnceCell$LT$T$GT$4init17h509be8464b657311E', symObjAddr: 0x2B8, symBinAddr: 0x89098, symSize: 0x190 }
  - { offset: 0x1DE58, size: 0x8, addend: 0x0, symName: '__ZN87_$LT$$BP$mut$u20$pyo3_ffi..object..PyObject$u20$as$u20$pyo3..ffi_ptr_ext..FfiPtrExt$GT$12assume_owned17h5eaeb1aa66a14dfaE', symObjAddr: 0x0, symBinAddr: 0x643C, symSize: 0x24 }
  - { offset: 0x1DE8D, size: 0x8, addend: 0x0, symName: __ZN8pyo3_ffi6object17PyType_HasFeature17ha99129ab3cb2cbf0E, symObjAddr: 0x90, symBinAddr: 0x64CC, symSize: 0x88 }
  - { offset: 0x1DECA, size: 0x8, addend: 0x0, symName: __ZN8pyo3_ffi6object18PyObject_TypeCheck17heaf1c63c12a72be3E, symObjAddr: 0x118, symBinAddr: 0x6554, symSize: 0x74 }
  - { offset: 0x1DF07, size: 0x8, addend: 0x0, symName: __ZN8pyo3_ffi6object19PyType_FastSubclass17hc997ffe95b99ed56E, symObjAddr: 0x18C, symBinAddr: 0x65C8, symSize: 0x28 }
  - { offset: 0x1DF44, size: 0x8, addend: 0x0, symName: __ZN8pyo3_ffi6object7Py_None17h5f10b318dc931a94E, symObjAddr: 0x1B4, symBinAddr: 0x65F0, symSize: 0xC }
  - { offset: 0x1DF62, size: 0x8, addend: 0x0, symName: __ZN8pyo3_ffi6object7Py_TYPE17hafeb56981d70dfa4E, symObjAddr: 0x1C0, symBinAddr: 0x65FC, symSize: 0x74 }
  - { offset: 0x1F095, size: 0x8, addend: 0x0, symName: '__ZN87_$LT$$BP$mut$u20$pyo3_ffi..object..PyObject$u20$as$u20$pyo3..ffi_ptr_ext..FfiPtrExt$GT$12assume_owned17h5eaeb1aa66a14dfaE', symObjAddr: 0x0, symBinAddr: 0x643C, symSize: 0x24 }
  - { offset: 0x1F0DA, size: 0x8, addend: 0x0, symName: '__ZN87_$LT$$BP$mut$u20$pyo3_ffi..object..PyObject$u20$as$u20$pyo3..ffi_ptr_ext..FfiPtrExt$GT$15assume_borrowed17he228d79afc423a9cE', symObjAddr: 0x24, symBinAddr: 0x6460, symSize: 0x24 }
  - { offset: 0x1F11F, size: 0x8, addend: 0x0, symName: '__ZN87_$LT$$BP$mut$u20$pyo3_ffi..object..PyObject$u20$as$u20$pyo3..ffi_ptr_ext..FfiPtrExt$GT$22assume_borrowed_or_opt17hf8c0079c61511580E', symObjAddr: 0x48, symBinAddr: 0x6484, symSize: 0x24 }
  - { offset: 0x1F164, size: 0x8, addend: 0x0, symName: '__ZN87_$LT$$BP$mut$u20$pyo3_ffi..object..PyObject$u20$as$u20$pyo3..ffi_ptr_ext..FfiPtrExt$GT$25assume_borrowed_unchecked17h8a55b0398abe2d13E', symObjAddr: 0x6C, symBinAddr: 0x64A8, symSize: 0x24 }
  - { offset: 0x1F77F, size: 0x8, addend: 0x0, symName: '__ZN104_$LT$core..iter..adapters..copied..Copied$LT$I$GT$$u20$as$u20$core..iter..traits..iterator..Iterator$GT$4next17h018c2f5179b9978bE', symObjAddr: 0x0, symBinAddr: 0x6670, symSize: 0x5C }
  - { offset: 0x201CC, size: 0x8, addend: 0x0, symName: '__ZN104_$LT$core..iter..adapters..copied..Copied$LT$I$GT$$u20$as$u20$core..iter..traits..iterator..Iterator$GT$4next17h018c2f5179b9978bE', symObjAddr: 0x0, symBinAddr: 0x6670, symSize: 0x5C }
  - { offset: 0x20271, size: 0x8, addend: 0x0, symName: '__ZN63_$LT$I$u20$as$u20$core..iter..traits..collect..IntoIterator$GT$9into_iter17hdbcf06b22e1b5eedE', symObjAddr: 0x5C, symBinAddr: 0x66CC, symSize: 0x1C }
  - { offset: 0x21045, size: 0x8, addend: 0x0, symName: __ZN4pyo35impl_10trampoline10trampoline17h7cb45f3d9eb27a57E, symObjAddr: 0x0, symBinAddr: 0x66E8, symSize: 0x14C }
  - { offset: 0x224CE, size: 0x8, addend: 0x0, symName: __ZN4pyo35impl_10trampoline10trampoline17h7cb45f3d9eb27a57E, symObjAddr: 0x0, symBinAddr: 0x66E8, symSize: 0x14C }
  - { offset: 0x22571, size: 0x8, addend: 0x0, symName: __ZN4pyo35impl_10trampoline10trampoline17h7d3927fc720e6564E, symObjAddr: 0x14C, symBinAddr: 0x6834, symSize: 0x158 }
  - { offset: 0x22614, size: 0x8, addend: 0x0, symName: __ZN4pyo35impl_10trampoline10trampoline17h7ece3986538a40efE, symObjAddr: 0x2A4, symBinAddr: 0x698C, symSize: 0x160 }
  - { offset: 0x226B8, size: 0x8, addend: 0x0, symName: __ZN4pyo35impl_10trampoline10trampoline17h857d520efab3a349E, symObjAddr: 0x404, symBinAddr: 0x6AEC, symSize: 0x158 }
  - { offset: 0x2275B, size: 0x8, addend: 0x0, symName: __ZN4pyo35impl_10trampoline10trampoline17hafdac3ee25e8c318E, symObjAddr: 0x55C, symBinAddr: 0x6C44, symSize: 0x158 }
  - { offset: 0x22803, size: 0x8, addend: 0x0, symName: '__ZN4pyo35impl_10trampoline10trampoline28_$u7b$$u7b$closure$u7d$$u7d$17h09dc65f46c0654f0E', symObjAddr: 0x6B4, symBinAddr: 0x6D9C, symSize: 0x40 }
  - { offset: 0x22852, size: 0x8, addend: 0x0, symName: '__ZN4pyo35impl_10trampoline10trampoline28_$u7b$$u7b$closure$u7d$$u7d$17h7b4f6343cc96115bE', symObjAddr: 0x6F4, symBinAddr: 0x6DDC, symSize: 0x2C }
  - { offset: 0x228A0, size: 0x8, addend: 0x0, symName: '__ZN4pyo35impl_10trampoline10trampoline28_$u7b$$u7b$closure$u7d$$u7d$17h87e6f852714d89e6E', symObjAddr: 0x720, symBinAddr: 0x6E08, symSize: 0x24 }
  - { offset: 0x228EE, size: 0x8, addend: 0x0, symName: '__ZN4pyo35impl_10trampoline10trampoline28_$u7b$$u7b$closure$u7d$$u7d$17ha327b5fb66519f10E', symObjAddr: 0x744, symBinAddr: 0x6E2C, symSize: 0x2C }
  - { offset: 0x2293C, size: 0x8, addend: 0x0, symName: '__ZN4pyo35impl_10trampoline10trampoline28_$u7b$$u7b$closure$u7d$$u7d$17hd75a6cfc248b4ebdE', symObjAddr: 0x770, symBinAddr: 0x6E58, symSize: 0x2C }
  - { offset: 0x22990, size: 0x8, addend: 0x0, symName: '__ZN4pyo35impl_10trampoline11module_init28_$u7b$$u7b$closure$u7d$$u7d$17h926e2fb7ef39f5d3E', symObjAddr: 0x79C, symBinAddr: 0x6E84, symSize: 0x40 }
  - { offset: 0x229DC, size: 0x8, addend: 0x0, symName: '__ZN4pyo35impl_10trampoline11module_init28_$u7b$$u7b$closure$u7d$$u7d$28_$u7b$$u7b$closure$u7d$$u7d$17h4fd6deef54c9521cE', symObjAddr: 0x7DC, symBinAddr: 0x6EC4, symSize: 0x24 }
  - { offset: 0x22A2E, size: 0x8, addend: 0x0, symName: __ZN4pyo35impl_10trampoline21trampoline_unraisable17h3b0bcfbd66c8157eE, symObjAddr: 0x800, symBinAddr: 0x6EE8, symSize: 0x218 }
  - { offset: 0x22AD1, size: 0x8, addend: 0x0, symName: '__ZN4pyo35impl_10trampoline21trampoline_unraisable28_$u7b$$u7b$closure$u7d$$u7d$17h03c596bda9958cb7E', symObjAddr: 0xA18, symBinAddr: 0x7100, symSize: 0x50 }
  - { offset: 0x22B10, size: 0x8, addend: 0x0, symName: '__ZN4pyo35impl_10trampoline21trampoline_unraisable28_$u7b$$u7b$closure$u7d$$u7d$17h1596b83524b12eddE', symObjAddr: 0xA68, symBinAddr: 0x7150, symSize: 0x2C }
  - { offset: 0x22B62, size: 0x8, addend: 0x0, symName: '__ZN4pyo35impl_10trampoline22fastcall_with_keywords28_$u7b$$u7b$closure$u7d$$u7d$17h35b42ef9d8fd4ec6E', symObjAddr: 0xA94, symBinAddr: 0x717C, symSize: 0x48 }
  - { offset: 0x22C29, size: 0x8, addend: 0x0, symName: __ZN4pyo35impl_10trampoline33panic_result_into_callback_output17hd9f2472657b088abE, symObjAddr: 0xADC, symBinAddr: 0x71C4, symSize: 0xFC }
  - { offset: 0x22CF1, size: 0x8, addend: 0x0, symName: '__ZN4pyo35impl_10trampoline6noargs28_$u7b$$u7b$closure$u7d$$u7d$17h870b3afddcd1366fE', symObjAddr: 0xBD8, symBinAddr: 0x72C0, symSize: 0x34 }
  - { offset: 0x22D6E, size: 0x8, addend: 0x0, symName: '__ZN4pyo35impl_10trampoline7dealloc28_$u7b$$u7b$closure$u7d$$u7d$17h4ed80d6a6d7534caE', symObjAddr: 0xC0C, symBinAddr: 0x72F4, symSize: 0x40 }
  - { offset: 0x22DEB, size: 0x8, addend: 0x0, symName: '__ZN4pyo35impl_10trampoline7lenfunc28_$u7b$$u7b$closure$u7d$$u7d$17h29e551c771bd79a8E', symObjAddr: 0xC4C, symBinAddr: 0x7334, symSize: 0x34 }
  - { offset: 0x22E68, size: 0x8, addend: 0x0, symName: '__ZN4pyo35impl_10trampoline8reprfunc28_$u7b$$u7b$closure$u7d$$u7d$17hebbf0f305b1537b1E', symObjAddr: 0xC80, symBinAddr: 0x7368, symSize: 0x34 }
  - { offset: 0x23801, size: 0x8, addend: 0x0, symName: __ZN4pyo38callback7convert17h17ae3963cf90a463E, symObjAddr: 0x0, symBinAddr: 0x739C, symSize: 0x20 }
  - { offset: 0x24B90, size: 0x8, addend: 0x0, symName: __ZN4pyo38callback7convert17h17ae3963cf90a463E, symObjAddr: 0x0, symBinAddr: 0x739C, symSize: 0x20 }
  - { offset: 0x24BE7, size: 0x8, addend: 0x0, symName: __ZN4pyo38callback7convert17hfad36a2c8feacccfE, symObjAddr: 0x20, symBinAddr: 0x73BC, symSize: 0x34 }
  - { offset: 0x24C49, size: 0x8, addend: 0x0, symName: '__ZN75_$LT$usize$u20$as$u20$pyo3..callback..IntoPyCallbackOutput$LT$isize$GT$$GT$7convert28_$u7b$$u7b$closure$u7d$$u7d$17h0807ab76361ef5f7E', symObjAddr: 0x54, symBinAddr: 0x73F0, symSize: 0x1C }
  - { offset: 0x254E9, size: 0x8, addend: 0x0, symName: __ZN4pyo35types10typeobject6PyType22from_borrowed_type_ptr17h78a262300adf3f35E, symObjAddr: 0x0, symBinAddr: 0x740C, symSize: 0x34 }
  - { offset: 0x26B50, size: 0x8, addend: 0x0, symName: __ZN4pyo35types10typeobject6PyType22from_borrowed_type_ptr17h78a262300adf3f35E, symObjAddr: 0x0, symBinAddr: 0x740C, symSize: 0x34 }
  - { offset: 0x26BA9, size: 0x8, addend: 0x0, symName: '__ZN6kinodb6kinodb11__pyo3_init28_$u7b$$u7b$closure$u7d$$u7d$17hc1faaf694282dcedE', symObjAddr: 0x0, symBinAddr: 0x7440, symSize: 0x28 }
  - { offset: 0x27E33, size: 0x8, addend: 0x0, symName: '__ZN6kinodb6kinodb11__pyo3_init28_$u7b$$u7b$closure$u7d$$u7d$17hc1faaf694282dcedE', symObjAddr: 0x0, symBinAddr: 0x7440, symSize: 0x28 }
  - { offset: 0x2863F, size: 0x8, addend: 0x0, symName: '__ZN4pyo35impl_7pyclass16lazy_type_object23LazyTypeObject$LT$T$GT$11get_or_init17h9a43a51080082f15E', symObjAddr: 0x0, symBinAddr: 0x7468, symSize: 0x40 }
  - { offset: 0x29ED7, size: 0x8, addend: 0x0, symName: '__ZN4pyo35impl_7pyclass16lazy_type_object23LazyTypeObject$LT$T$GT$11get_or_init28_$u7b$$u7b$closure$u7d$$u7d$17h1f622a0e300c0076E', symObjAddr: 0x40, symBinAddr: 0x74A8, symSize: 0xA8 }
  - { offset: 0x2AC55, size: 0x8, addend: 0x0, symName: '__ZN4pyo35impl_7pyclass16lazy_type_object23LazyTypeObject$LT$T$GT$11get_or_init17h9a43a51080082f15E', symObjAddr: 0x0, symBinAddr: 0x7468, symSize: 0x40 }
  - { offset: 0x2AC99, size: 0x8, addend: 0x0, symName: '__ZN4pyo35impl_7pyclass16lazy_type_object23LazyTypeObject$LT$T$GT$15get_or_try_init17hbe42101c1b7cd897E', symObjAddr: 0xE8, symBinAddr: 0x7550, symSize: 0x58 }
  - { offset: 0x2ADE8, size: 0x8, addend: 0x0, symName: '__ZN4pyo311conversions3std6string119_$LT$impl$u20$pyo3..conversion..IntoPy$LT$pyo3..instance..Py$LT$pyo3..types..any..PyAny$GT$$GT$$u20$for$u20$$RF$str$GT$7into_py17h16afc17ba1278669E', symObjAddr: 0x0, symBinAddr: 0x75A8, symSize: 0x34 }
  - { offset: 0x2BE7F, size: 0x8, addend: 0x0, symName: '__ZN4pyo311conversions3std6string119_$LT$impl$u20$pyo3..conversion..IntoPy$LT$pyo3..instance..Py$LT$pyo3..types..any..PyAny$GT$$GT$$u20$for$u20$$RF$str$GT$7into_py17h16afc17ba1278669E', symObjAddr: 0x0, symBinAddr: 0x75A8, symSize: 0x34 }
  - { offset: 0x2BECA, size: 0x8, addend: 0x0, symName: '__ZN4pyo311conversions3std6string125_$LT$impl$u20$pyo3..conversion..IntoPy$LT$pyo3..instance..Py$LT$pyo3..types..string..PyString$GT$$GT$$u20$for$u20$$RF$str$GT$7into_py17hfa5a0b7f7cc0a488E', symObjAddr: 0x34, symBinAddr: 0x75DC, symSize: 0x34 }
  - { offset: 0x2BF15, size: 0x8, addend: 0x0, symName: '__ZN4pyo311conversions3std6string62_$LT$impl$u20$pyo3..conversion..ToPyObject$u20$for$u20$str$GT$9to_object17h1ef9ad10f044e91eE', symObjAddr: 0x68, symBinAddr: 0x7610, symSize: 0x34 }
  - { offset: 0x2C531, size: 0x8, addend: 0x0, symName: '__ZN87_$LT$T$u20$as$u20$alloc..slice..$LT$impl$u20$$u5b$T$u5d$$GT$..to_vec_in..ConvertVec$GT$6to_vec17h479ead16aa15504eE', symObjAddr: 0x0, symBinAddr: 0x7644, symSize: 0xF4 }
  - { offset: 0x2C7A3, size: 0x8, addend: 0x0, symName: '__ZN87_$LT$T$u20$as$u20$alloc..slice..$LT$impl$u20$$u5b$T$u5d$$GT$..to_vec_in..ConvertVec$GT$6to_vec17h479ead16aa15504eE', symObjAddr: 0x0, symBinAddr: 0x7644, symSize: 0xF4 }
  - { offset: 0x2CDBE, size: 0x8, addend: 0x0, symName: _PyInit_kinodb, symObjAddr: 0x0, symBinAddr: 0x7738, symSize: 0x34 }
  - { offset: 0x2CDE2, size: 0x8, addend: 0x0, symName: __ZN6kinodb6kinodb9_PYO3_DEF17h487b4af385d4ffd5E, symObjAddr: 0x68, symBinAddr: 0xE43A8, symSize: 0x0 }
  - { offset: 0x2CDEF, size: 0x8, addend: 0x0, symName: _PyInit_kinodb, symObjAddr: 0x0, symBinAddr: 0x7738, symSize: 0x34 }
  - { offset: 0x2EB84, size: 0x8, addend: 0x0, symName: '__ZN102_$LT$core..iter..adapters..zip..Zip$LT$A$C$B$GT$$u20$as$u20$core..iter..traits..iterator..Iterator$GT$4next17h13e3a8e7bad49476E', symObjAddr: 0x0, symBinAddr: 0x776C, symSize: 0x24 }
  - { offset: 0x2EBC8, size: 0x8, addend: 0x0, symName: '__ZN102_$LT$core..iter..adapters..zip..Zip$LT$A$C$B$GT$$u20$as$u20$core..iter..traits..iterator..Iterator$GT$4next17h13e3a8e7bad49476E', symObjAddr: 0x0, symBinAddr: 0x776C, symSize: 0x24 }
  - { offset: 0x2EC0C, size: 0x8, addend: 0x0, symName: '__ZN111_$LT$core..iter..adapters..zip..Zip$LT$A$C$B$GT$$u20$as$u20$core..iter..adapters..zip..ZipImpl$LT$A$C$B$GT$$GT$3new17h6a4da9a55dc66a30E', symObjAddr: 0x24, symBinAddr: 0x7790, symSize: 0x3C }
  - { offset: 0x2EC58, size: 0x8, addend: 0x0, symName: '__ZN111_$LT$core..iter..adapters..zip..Zip$LT$A$C$B$GT$$u20$as$u20$core..iter..adapters..zip..ZipImpl$LT$A$C$B$GT$$GT$4next17h0ff6174a0364a386E', symObjAddr: 0x60, symBinAddr: 0x77CC, symSize: 0xE0 }
  - { offset: 0x2EE85, size: 0x8, addend: 0x0, symName: '__ZN63_$LT$I$u20$as$u20$core..iter..traits..collect..IntoIterator$GT$9into_iter17h1043e912b6e22751E', symObjAddr: 0x140, symBinAddr: 0x78AC, symSize: 0x30 }
  - { offset: 0x2EEBD, size: 0x8, addend: 0x0, symName: '__ZN63_$LT$I$u20$as$u20$core..iter..traits..collect..IntoIterator$GT$9into_iter17h471a7058f0e02283E', symObjAddr: 0x170, symBinAddr: 0x78DC, symSize: 0x30 }
  - { offset: 0x309F9, size: 0x8, addend: 0x0, symName: '__ZN4core4cell13Cell$LT$T$GT$3new17h0365805a5a0bc0f7E', symObjAddr: 0x0, symBinAddr: 0x790C, symSize: 0x10 }
  - { offset: 0x30A9B, size: 0x8, addend: 0x0, symName: '__ZN4core4cell13Cell$LT$T$GT$3new17h0365805a5a0bc0f7E', symObjAddr: 0x0, symBinAddr: 0x790C, symSize: 0x10 }
  - { offset: 0x30AE5, size: 0x8, addend: 0x0, symName: '__ZN4pyo35types4none120_$LT$impl$u20$pyo3..conversion..IntoPy$LT$pyo3..instance..Py$LT$pyo3..types..any..PyAny$GT$$GT$$u20$for$u20$$LP$$RP$$GT$7into_py17hbef833c796c6bdf8E', symObjAddr: 0x0, symBinAddr: 0x791C, symSize: 0x20 }
  - { offset: 0x31B89, size: 0x8, addend: 0x0, symName: '__ZN4pyo35types4none120_$LT$impl$u20$pyo3..conversion..IntoPy$LT$pyo3..instance..Py$LT$pyo3..types..any..PyAny$GT$$GT$$u20$for$u20$$LP$$RP$$GT$7into_py17hbef833c796c6bdf8E', symObjAddr: 0x0, symBinAddr: 0x791C, symSize: 0x20 }
  - { offset: 0x321B6, size: 0x8, addend: 0x0, symName: __ZN4pyo35types4none6PyNone9get_bound17h3c9e1a9495e5e993E, symObjAddr: 0x20, symBinAddr: 0x793C, symSize: 0x2C }
  - { offset: 0x32208, size: 0x8, addend: 0x0, symName: __ZN4core3ptr9alignment9Alignment13new_unchecked18precondition_check17h92fd668044511b2dE, symObjAddr: 0x0, symBinAddr: 0x7968, symSize: 0x70 }
  - { offset: 0x32274, size: 0x8, addend: 0x0, symName: __ZN4core3ptr9alignment9Alignment13new_unchecked18precondition_check17h92fd668044511b2dE, symObjAddr: 0x0, symBinAddr: 0x7968, symSize: 0x70 }
  - { offset: 0x3235A, size: 0x8, addend: 0x0, symName: '__ZN5alloc7raw_vec19RawVec$LT$T$C$A$GT$8grow_one17h8129255ca56af5d0E', symObjAddr: 0x0, symBinAddr: 0x79D8, symSize: 0x88 }
  - { offset: 0x331FE, size: 0x8, addend: 0x0, symName: '__ZN5alloc7raw_vec19RawVec$LT$T$C$A$GT$8grow_one17h8129255ca56af5d0E', symObjAddr: 0x0, symBinAddr: 0x79D8, symSize: 0x88 }
  - { offset: 0x33E56, size: 0x8, addend: 0x0, symName: '__ZN5alloc7raw_vec19RawVec$LT$T$C$A$GT$8grow_one17h8399a6db660d446cE', symObjAddr: 0x88, symBinAddr: 0x7A60, symSize: 0x84 }
  - { offset: 0x33EDF, size: 0x8, addend: 0x0, symName: __ZN4pyo36marker6Python8with_gil17h6f0af24ca8164f37E, symObjAddr: 0x0, symBinAddr: 0x7AE4, symSize: 0xF4 }
  - { offset: 0x35DCC, size: 0x8, addend: 0x0, symName: __ZN4pyo36marker6Python8with_gil17h6f0af24ca8164f37E, symObjAddr: 0x0, symBinAddr: 0x7AE4, symSize: 0xF4 }
  - { offset: 0x35EC7, size: 0x8, addend: 0x0, symName: __ZN4pyo36marker6Python8with_gil17h961f211b511f3dabE, symObjAddr: 0xF4, symBinAddr: 0x7BD8, symSize: 0xF4 }
  - { offset: 0x35F31, size: 0x8, addend: 0x0, symName: '__ZN4pyo311conversions3std3vec136_$LT$impl$u20$pyo3..conversion..IntoPy$LT$pyo3..instance..Py$LT$pyo3..types..any..PyAny$GT$$GT$$u20$for$u20$alloc..vec..Vec$LT$T$GT$$GT$7into_py28_$u7b$$u7b$closure$u7d$$u7d$17hace79812ebdcd66fE', symObjAddr: 0x0, symBinAddr: 0x7CCC, symSize: 0x2C }
  - { offset: 0x36AFE, size: 0x8, addend: 0x0, symName: '__ZN4pyo311conversions3std3vec70_$LT$impl$u20$pyo3..conversion..ToPyObject$u20$for$u20$$u5b$T$u5d$$GT$9to_object28_$u7b$$u7b$closure$u7d$$u7d$17h4114302a26375d77E', symObjAddr: 0xF4, symBinAddr: 0x7DC0, symSize: 0x30 }
  - { offset: 0x36B4C, size: 0x8, addend: 0x0, symName: '__ZN4pyo311conversions3std3vec70_$LT$impl$u20$pyo3..conversion..ToPyObject$u20$for$u20$$u5b$T$u5d$$GT$9to_object28_$u7b$$u7b$closure$u7d$$u7d$17h5c5afe9d368971e1E', symObjAddr: 0x124, symBinAddr: 0x7DF0, symSize: 0x30 }
  - { offset: 0x36B9A, size: 0x8, addend: 0x0, symName: '__ZN4pyo311conversions3std3vec70_$LT$impl$u20$pyo3..conversion..ToPyObject$u20$for$u20$$u5b$T$u5d$$GT$9to_object28_$u7b$$u7b$closure$u7d$$u7d$17hcd7b21f703a72519E', symObjAddr: 0x154, symBinAddr: 0x7E20, symSize: 0x30 }
  - { offset: 0x36BE8, size: 0x8, addend: 0x0, symName: '__ZN4pyo311conversions3std3vec70_$LT$impl$u20$pyo3..conversion..ToPyObject$u20$for$u20$$u5b$T$u5d$$GT$9to_object28_$u7b$$u7b$closure$u7d$$u7d$17he884a646e56f4d44E', symObjAddr: 0x184, symBinAddr: 0x7E50, symSize: 0x30 }
  - { offset: 0x36C5D, size: 0x8, addend: 0x0, symName: '__ZN4pyo311conversions3std3vec70_$LT$impl$u20$pyo3..conversion..ToPyObject$u20$for$u20$$u5b$T$u5d$$GT$9to_object17h2d0ba7bffc71911cE', symObjAddr: 0x2C, symBinAddr: 0x7CF8, symSize: 0x64 }
  - { offset: 0x36CE5, size: 0x8, addend: 0x0, symName: '__ZN4pyo311conversions3std3vec70_$LT$impl$u20$pyo3..conversion..ToPyObject$u20$for$u20$$u5b$T$u5d$$GT$9to_object17hd10dc8d3f2aaafecE', symObjAddr: 0x90, symBinAddr: 0x7D5C, symSize: 0x64 }
  - { offset: 0x36D78, size: 0x8, addend: 0x0, symName: '__ZN4pyo311conversions3std3vec136_$LT$impl$u20$pyo3..conversion..IntoPy$LT$pyo3..instance..Py$LT$pyo3..types..any..PyAny$GT$$GT$$u20$for$u20$alloc..vec..Vec$LT$T$GT$$GT$7into_py28_$u7b$$u7b$closure$u7d$$u7d$17hace79812ebdcd66fE', symObjAddr: 0x0, symBinAddr: 0x7CCC, symSize: 0x2C }
  - { offset: 0x37CA2, size: 0x8, addend: 0x0, symName: '__ZN50_$LT$T$u20$as$u20$core..convert..Into$LT$U$GT$$GT$4into17h3f4c2e7c866fba1fE', symObjAddr: 0x0, symBinAddr: 0x7E80, symSize: 0x24 }
  - { offset: 0x3842A, size: 0x8, addend: 0x0, symName: '__ZN50_$LT$T$u20$as$u20$core..convert..Into$LT$U$GT$$GT$4into17h3f4c2e7c866fba1fE', symObjAddr: 0x0, symBinAddr: 0x7E80, symSize: 0x24 }
  - { offset: 0x3938A, size: 0x8, addend: 0x0, symName: '__ZN157_$LT$$LT$alloc..vec..into_iter..IntoIter$LT$T$C$A$GT$$u20$as$u20$core..ops..drop..Drop$GT$..drop..DropGuard$LT$T$C$A$GT$$u20$as$u20$core..ops..drop..Drop$GT$4drop17hcac9640a6f00c346E', symObjAddr: 0x0, symBinAddr: 0x7EA4, symSize: 0x6C }
  - { offset: 0x39549, size: 0x8, addend: 0x0, symName: '__ZN4core3ptr100drop_in_place$LT$alloc..raw_vec..RawVec$LT$pyo3..instance..Py$LT$pyo3..types..any..PyAny$GT$$GT$$GT$17h52cac9487482640bE', symObjAddr: 0x1DC, symBinAddr: 0x805C, symSize: 0x24 }
  - { offset: 0x39578, size: 0x8, addend: 0x0, symName: '__ZN4core3ptr106drop_in_place$LT$core..result..Result$LT$$BP$mut$u20$pyo3_ffi..object..PyObject$C$pyo3..err..PyErr$GT$$GT$17h10cff5cd7cf6d3cfE', symObjAddr: 0x26C, symBinAddr: 0x8080, symSize: 0x40 }
  - { offset: 0x395A7, size: 0x8, addend: 0x0, symName: '__ZN4core3ptr108drop_in_place$LT$core..result..Result$LT$$LP$$RP$$C$alloc..borrow..Cow$LT$core..ffi..c_str..CStr$GT$$GT$$GT$17h29556feb788ddc52E', symObjAddr: 0x2D0, symBinAddr: 0x80C0, symSize: 0x44 }
  - { offset: 0x395D6, size: 0x8, addend: 0x0, symName: '__ZN4core3ptr117drop_in_place$LT$core..result..Result$LT$pyo3..instance..Py$LT$pyo3..types..any..PyAny$GT$$C$pyo3..err..PyErr$GT$$GT$17h364bc2e3e52c69baE', symObjAddr: 0x314, symBinAddr: 0x8104, symSize: 0x50 }
  - { offset: 0x39605, size: 0x8, addend: 0x0, symName: '__ZN4core3ptr130drop_in_place$LT$pyo3..err..PyErr..new$LT$pyo3..exceptions..PyIOError$C$alloc..string..String$GT$..$u7b$$u7b$closure$u7d$$u7d$$GT$17h493dd33f2a97cfd8E', symObjAddr: 0x3AC, symBinAddr: 0x8154, symSize: 0x24 }
  - { offset: 0x39634, size: 0x8, addend: 0x0, symName: '__ZN4core3ptr133drop_in_place$LT$pyo3..err..PyErr..new$LT$pyo3..exceptions..PyIndexError$C$alloc..string..String$GT$..$u7b$$u7b$closure$u7d$$u7d$$GT$17h4413ea8c3bdaa521E', symObjAddr: 0x3F4, symBinAddr: 0x8178, symSize: 0x24 }
  - { offset: 0x39663, size: 0x8, addend: 0x0, symName: '__ZN4core3ptr159drop_in_place$LT$$LT$alloc..vec..into_iter..IntoIter$LT$T$C$A$GT$$u20$as$u20$core..ops..drop..Drop$GT$..drop..DropGuard$LT$usize$C$alloc..alloc..Global$GT$$GT$17h0c1a550c8ea95dc8E', symObjAddr: 0x43C, symBinAddr: 0x819C, symSize: 0x24 }
  - { offset: 0x39692, size: 0x8, addend: 0x0, symName: '__ZN4core3ptr287drop_in_place$LT$alloc..vec..Vec$LT$f32$GT$..extend_trusted$LT$core..iter..adapters..map..Map$LT$core..slice..iter..Iter$LT$kinodb_core..types..Frame$GT$$C$kinodb..PyDatabase..read_episode..$u7b$$u7b$closure$u7d$$u7d$..$u7b$$u7b$closure$u7d$$u7d$$GT$$GT$..$u7b$$u7b$closure$u7d$$u7d$$GT$17h48da5f63a6a3c212E', symObjAddr: 0x460, symBinAddr: 0x81C0, symSize: 0x24 }
  - { offset: 0x396C1, size: 0x8, addend: 0x0, symName: '__ZN4core3ptr288drop_in_place$LT$alloc..vec..Vec$LT$bool$GT$..extend_trusted$LT$core..iter..adapters..map..Map$LT$core..slice..iter..Iter$LT$kinodb_core..types..Frame$GT$$C$kinodb..PyDatabase..read_episode..$u7b$$u7b$closure$u7d$$u7d$..$u7b$$u7b$closure$u7d$$u7d$$GT$$GT$..$u7b$$u7b$closure$u7d$$u7d$$GT$17h99fd8103964b3affE', symObjAddr: 0x484, symBinAddr: 0x81E4, symSize: 0x24 }
  - { offset: 0x396F0, size: 0x8, addend: 0x0, symName: '__ZN4core3ptr310drop_in_place$LT$alloc..vec..Vec$LT$alloc..vec..Vec$LT$f32$GT$$GT$..extend_trusted$LT$core..iter..adapters..map..Map$LT$core..slice..iter..Iter$LT$kinodb_core..types..Frame$GT$$C$kinodb..PyDatabase..read_episode..$u7b$$u7b$closure$u7d$$u7d$..$u7b$$u7b$closure$u7d$$u7d$$GT$$GT$..$u7b$$u7b$closure$u7d$$u7d$$GT$17h7da759cdafbef7cdE', symObjAddr: 0x4A8, symBinAddr: 0x8208, symSize: 0x24 }
  - { offset: 0x3971F, size: 0x8, addend: 0x0, symName: '__ZN4core3ptr310drop_in_place$LT$alloc..vec..Vec$LT$alloc..vec..Vec$LT$f32$GT$$GT$..extend_trusted$LT$core..iter..adapters..map..Map$LT$core..slice..iter..Iter$LT$kinodb_core..types..Frame$GT$$C$kinodb..PyDatabase..read_episode..$u7b$$u7b$closure$u7d$$u7d$..$u7b$$u7b$closure$u7d$$u7d$$GT$$GT$..$u7b$$u7b$closure$u7d$$u7d$$GT$17hde7bef21e71f75a4E', symObjAddr: 0x4CC, symBinAddr: 0x822C, symSize: 0x24 }
  - { offset: 0x3974E, size: 0x8, addend: 0x0, symName: '__ZN4core3ptr312drop_in_place$LT$core..iter..adapters..map..Map$LT$alloc..vec..into_iter..IntoIter$LT$usize$GT$$C$pyo3..conversions..std..vec..$LT$impl$u20$pyo3..conversion..IntoPy$LT$pyo3..instance..Py$LT$pyo3..types..any..PyAny$GT$$GT$$u20$for$u20$alloc..vec..Vec$LT$usize$GT$$GT$..into_py..$u7b$$u7b$closure$u7d$$u7d$$GT$$GT$17h7585ade622a2f316E', symObjAddr: 0x4F0, symBinAddr: 0x8250, symSize: 0x24 }
  - { offset: 0x3977D, size: 0x8, addend: 0x0, symName: '__ZN4core3ptr384drop_in_place$LT$core..iter..traits..iterator..Iterator..for_each..call$LT$f32$C$alloc..vec..Vec$LT$f32$GT$..extend_trusted$LT$core..iter..adapters..map..Map$LT$core..slice..iter..Iter$LT$kinodb_core..types..Frame$GT$$C$kinodb..PyDatabase..read_episode..$u7b$$u7b$closure$u7d$$u7d$..$u7b$$u7b$closure$u7d$$u7d$$GT$$GT$..$u7b$$u7b$closure$u7d$$u7d$$GT$..$u7b$$u7b$closure$u7d$$u7d$$GT$17h9db59b69eaa65602E', symObjAddr: 0x514, symBinAddr: 0x8274, symSize: 0x24 }
  - { offset: 0x397AC, size: 0x8, addend: 0x0, symName: '__ZN4core3ptr386drop_in_place$LT$core..iter..traits..iterator..Iterator..for_each..call$LT$bool$C$alloc..vec..Vec$LT$bool$GT$..extend_trusted$LT$core..iter..adapters..map..Map$LT$core..slice..iter..Iter$LT$kinodb_core..types..Frame$GT$$C$kinodb..PyDatabase..read_episode..$u7b$$u7b$closure$u7d$$u7d$..$u7b$$u7b$closure$u7d$$u7d$$GT$$GT$..$u7b$$u7b$closure$u7d$$u7d$$GT$..$u7b$$u7b$closure$u7d$$u7d$$GT$17h97ba40e137623cf8E', symObjAddr: 0x538, symBinAddr: 0x8298, symSize: 0x24 }
  - { offset: 0x397DB, size: 0x8, addend: 0x0, symName: '__ZN4core3ptr39drop_in_place$LT$kinodb..PyDatabase$GT$17he72f888dc8fe9ecdE', symObjAddr: 0x55C, symBinAddr: 0x82BC, symSize: 0x60 }
  - { offset: 0x3980A, size: 0x8, addend: 0x0, symName: '__ZN4core3ptr430drop_in_place$LT$core..iter..traits..iterator..Iterator..for_each..call$LT$alloc..vec..Vec$LT$f32$GT$$C$alloc..vec..Vec$LT$alloc..vec..Vec$LT$f32$GT$$GT$..extend_trusted$LT$core..iter..adapters..map..Map$LT$core..slice..iter..Iter$LT$kinodb_core..types..Frame$GT$$C$kinodb..PyDatabase..read_episode..$u7b$$u7b$closure$u7d$$u7d$..$u7b$$u7b$closure$u7d$$u7d$$GT$$GT$..$u7b$$u7b$closure$u7d$$u7d$$GT$..$u7b$$u7b$closure$u7d$$u7d$$GT$17h5c2c514c9c82bebaE', symObjAddr: 0x5BC, symBinAddr: 0x831C, symSize: 0x24 }
  - { offset: 0x39839, size: 0x8, addend: 0x0, symName: '__ZN4core3ptr430drop_in_place$LT$core..iter..traits..iterator..Iterator..for_each..call$LT$alloc..vec..Vec$LT$f32$GT$$C$alloc..vec..Vec$LT$alloc..vec..Vec$LT$f32$GT$$GT$..extend_trusted$LT$core..iter..adapters..map..Map$LT$core..slice..iter..Iter$LT$kinodb_core..types..Frame$GT$$C$kinodb..PyDatabase..read_episode..$u7b$$u7b$closure$u7d$$u7d$..$u7b$$u7b$closure$u7d$$u7d$$GT$$GT$..$u7b$$u7b$closure$u7d$$u7d$$GT$..$u7b$$u7b$closure$u7d$$u7d$$GT$17he0259398554c9f52E', symObjAddr: 0x5E0, symBinAddr: 0x8340, symSize: 0x24 }
  - { offset: 0x39868, size: 0x8, addend: 0x0, symName: '__ZN4core3ptr48drop_in_place$LT$alloc..vec..Vec$LT$bool$GT$$GT$17hc3ef9306c01ef6eeE', symObjAddr: 0x604, symBinAddr: 0x8364, symSize: 0x5C }
  - { offset: 0x39897, size: 0x8, addend: 0x0, symName: '__ZN4core3ptr48drop_in_place$LT$kinodb_core..types..Episode$GT$17h02d7d05220e9760fE', symObjAddr: 0x660, symBinAddr: 0x83C0, symSize: 0x60 }
  - { offset: 0x398C6, size: 0x8, addend: 0x0, symName: '__ZN4core3ptr55drop_in_place$LT$alloc..raw_vec..RawVec$LT$bool$GT$$GT$17h006f2cd2058dfcc0E', symObjAddr: 0x6E4, symBinAddr: 0x8420, symSize: 0x24 }
  - { offset: 0x398F5, size: 0x8, addend: 0x0, symName: '__ZN4core3ptr57drop_in_place$LT$$u5b$alloc..vec..Vec$LT$f32$GT$$u5d$$GT$17h3ba27c0485cf9d3aE', symObjAddr: 0x708, symBinAddr: 0x8444, symSize: 0xC4 }
  - { offset: 0x39924, size: 0x8, addend: 0x0, symName: '__ZN4core3ptr598drop_in_place$LT$core..iter..adapters..map..map_fold$LT$$RF$kinodb_core..types..Frame$C$f32$C$$LP$$RP$$C$kinodb..PyDatabase..read_episode..$u7b$$u7b$closure$u7d$$u7d$..$u7b$$u7b$closure$u7d$$u7d$$C$core..iter..traits..iterator..Iterator..for_each..call$LT$f32$C$alloc..vec..Vec$LT$f32$GT$..extend_trusted$LT$core..iter..adapters..map..Map$LT$core..slice..iter..Iter$LT$kinodb_core..types..Frame$GT$$C$kinodb..PyDatabase..read_episode..$u7b$$u7b$closure$u7d$$u7d$..$u7b$$u7b$closure$u7d$$u7d$$GT$$GT$..$u7b$$u7b$closure$u7d$$u7d$$GT$..$u7b$$u7b$closure$u7d$$u7d$$GT$..$u7b$$u7b$closure$u7d$$u7d$$GT$17hc49a196224d97643E', symObjAddr: 0x7CC, symBinAddr: 0x8508, symSize: 0x24 }
  - { offset: 0x39953, size: 0x8, addend: 0x0, symName: '__ZN4core3ptr601drop_in_place$LT$core..iter..adapters..map..map_fold$LT$$RF$kinodb_core..types..Frame$C$bool$C$$LP$$RP$$C$kinodb..PyDatabase..read_episode..$u7b$$u7b$closure$u7d$$u7d$..$u7b$$u7b$closure$u7d$$u7d$$C$core..iter..traits..iterator..Iterator..for_each..call$LT$bool$C$alloc..vec..Vec$LT$bool$GT$..extend_trusted$LT$core..iter..adapters..map..Map$LT$core..slice..iter..Iter$LT$kinodb_core..types..Frame$GT$$C$kinodb..PyDatabase..read_episode..$u7b$$u7b$closure$u7d$$u7d$..$u7b$$u7b$closure$u7d$$u7d$$GT$$GT$..$u7b$$u7b$closure$u7d$$u7d$$GT$..$u7b$$u7b$closure$u7d$$u7d$$GT$..$u7b$$u7b$closure$u7d$$u7d$$GT$17hc1e3e6cc5c9c37bdE', symObjAddr: 0x7F0, symBinAddr: 0x852C, symSize: 0x24 }
  - { offset: 0x39982, size: 0x8, addend: 0x0, symName: '__ZN4core3ptr65drop_in_place$LT$alloc..vec..into_iter..IntoIter$LT$usize$GT$$GT$17hcd5ca01582e20b7dE', symObjAddr: 0x814, symBinAddr: 0x8550, symSize: 0x24 }
  - { offset: 0x399B1, size: 0x8, addend: 0x0, symName: '__ZN4core3ptr65drop_in_place$LT$pyo3..instance..Py$LT$kinodb..PyDatabase$GT$$GT$17h9267e50278b6feadE', symObjAddr: 0x838, symBinAddr: 0x8574, symSize: 0x2C }
  - { offset: 0x399E0, size: 0x8, addend: 0x0, symName: '__ZN4core3ptr667drop_in_place$LT$core..iter..adapters..map..map_fold$LT$$RF$kinodb_core..types..Frame$C$alloc..vec..Vec$LT$f32$GT$$C$$LP$$RP$$C$kinodb..PyDatabase..read_episode..$u7b$$u7b$closure$u7d$$u7d$..$u7b$$u7b$closure$u7d$$u7d$$C$core..iter..traits..iterator..Iterator..for_each..call$LT$alloc..vec..Vec$LT$f32$GT$$C$alloc..vec..Vec$LT$alloc..vec..Vec$LT$f32$GT$$GT$..extend_trusted$LT$core..iter..adapters..map..Map$LT$core..slice..iter..Iter$LT$kinodb_core..types..Frame$GT$$C$kinodb..PyDatabase..read_episode..$u7b$$u7b$closure$u7d$$u7d$..$u7b$$u7b$closure$u7d$$u7d$$GT$$GT$..$u7b$$u7b$closure$u7d$$u7d$$GT$..$u7b$$u7b$closure$u7d$$u7d$$GT$..$u7b$$u7b$closure$u7d$$u7d$$GT$17h02000d5d5e54748eE', symObjAddr: 0x864, symBinAddr: 0x85A0, symSize: 0x24 }
  - { offset: 0x39A0F, size: 0x8, addend: 0x0, symName: '__ZN4core3ptr667drop_in_place$LT$core..iter..adapters..map..map_fold$LT$$RF$kinodb_core..types..Frame$C$alloc..vec..Vec$LT$f32$GT$$C$$LP$$RP$$C$kinodb..PyDatabase..read_episode..$u7b$$u7b$closure$u7d$$u7d$..$u7b$$u7b$closure$u7d$$u7d$$C$core..iter..traits..iterator..Iterator..for_each..call$LT$alloc..vec..Vec$LT$f32$GT$$C$alloc..vec..Vec$LT$alloc..vec..Vec$LT$f32$GT$$GT$..extend_trusted$LT$core..iter..adapters..map..Map$LT$core..slice..iter..Iter$LT$kinodb_core..types..Frame$GT$$C$kinodb..PyDatabase..read_episode..$u7b$$u7b$closure$u7d$$u7d$..$u7b$$u7b$closure$u7d$$u7d$$GT$$GT$..$u7b$$u7b$closure$u7d$$u7d$$GT$..$u7b$$u7b$closure$u7d$$u7d$$GT$..$u7b$$u7b$closure$u7d$$u7d$$GT$17hafff44bc3062acb3E', symObjAddr: 0x888, symBinAddr: 0x85C4, symSize: 0x24 }
  - { offset: 0x39A3E, size: 0x8, addend: 0x0, symName: '__ZN4core3ptr66drop_in_place$LT$pyo3..pycell..PyRef$LT$kinodb..PyDatabase$GT$$GT$17h0154ccee096046e4E', symObjAddr: 0x8AC, symBinAddr: 0x85E8, symSize: 0x5C }
  - { offset: 0x39A6D, size: 0x8, addend: 0x0, symName: '__ZN4core3ptr68drop_in_place$LT$pyo3..instance..Bound$LT$kinodb..PyDatabase$GT$$GT$17hdfaabd1ad584f3adE', symObjAddr: 0x908, symBinAddr: 0x8644, symSize: 0x24 }
  - { offset: 0x39A9C, size: 0x8, addend: 0x0, symName: '__ZN4core3ptr69drop_in_place$LT$alloc..borrow..Cow$LT$core..ffi..c_str..CStr$GT$$GT$17h35d60df80bb63759E', symObjAddr: 0x92C, symBinAddr: 0x8668, symSize: 0x40 }
  - { offset: 0x39ACB, size: 0x8, addend: 0x0, symName: '__ZN4core3ptr69drop_in_place$LT$core..cell..UnsafeCell$LT$kinodb..PyDatabase$GT$$GT$17h3cea3d6b16f8b159E', symObjAddr: 0x96C, symBinAddr: 0x86A8, symSize: 0x24 }
  - { offset: 0x39AFA, size: 0x8, addend: 0x0, symName: '__ZN4core3ptr70drop_in_place$LT$alloc..vec..Vec$LT$alloc..vec..Vec$LT$f32$GT$$GT$$GT$17he2759329f31d6201E', symObjAddr: 0x990, symBinAddr: 0x86CC, symSize: 0x5C }
  - { offset: 0x39B29, size: 0x8, addend: 0x0, symName: '__ZN4core3ptr77drop_in_place$LT$alloc..raw_vec..RawVec$LT$alloc..vec..Vec$LT$f32$GT$$GT$$GT$17h153508f1791dcc79E', symObjAddr: 0x9EC, symBinAddr: 0x8728, symSize: 0x24 }
  - { offset: 0x39B58, size: 0x8, addend: 0x0, symName: '__ZN4core3ptr85drop_in_place$LT$pyo3..pyclass_init..PyClassInitializer$LT$kinodb..PyDatabase$GT$$GT$17h2446db1b05d91dc4E', symObjAddr: 0xA70, symBinAddr: 0x874C, symSize: 0x24 }
  - { offset: 0x39B87, size: 0x8, addend: 0x0, symName: '__ZN4core3ptr86drop_in_place$LT$core..result..Result$LT$kinodb..PyDatabase$C$pyo3..err..PyErr$GT$$GT$17h2be4908e11920dafE', symObjAddr: 0xA94, symBinAddr: 0x8770, symSize: 0x5C }
  - { offset: 0x39BB6, size: 0x8, addend: 0x0, symName: '__ZN4core3ptr89drop_in_place$LT$pyo3..pyclass_init..PyClassInitializerImpl$LT$kinodb..PyDatabase$GT$$GT$17h39e2f9872abf9c45E', symObjAddr: 0xAF0, symBinAddr: 0x87CC, symSize: 0x58 }
  - { offset: 0x39BE5, size: 0x8, addend: 0x0, symName: '__ZN4core3ptr93drop_in_place$LT$alloc..vec..Vec$LT$pyo3..instance..Py$LT$pyo3..types..any..PyAny$GT$$GT$$GT$17hca38baa9a86535cdE', symObjAddr: 0xB48, symBinAddr: 0x8824, symSize: 0x5C }
  - { offset: 0x39C14, size: 0x8, addend: 0x0, symName: '__ZN4core3ptr94drop_in_place$LT$core..option..Option$LT$pyo3..pycell..PyRef$LT$kinodb..PyDatabase$GT$$GT$$GT$17heaea8469f770a101E', symObjAddr: 0xBA4, symBinAddr: 0x8880, symSize: 0x44 }
  - { offset: 0x39C43, size: 0x8, addend: 0x0, symName: '__ZN4core3ptr96drop_in_place$LT$core..result..Result$LT$alloc..vec..Vec$LT$usize$GT$$C$pyo3..err..PyErr$GT$$GT$17h8e464caa66517846E', symObjAddr: 0xC0C, symBinAddr: 0x88C4, symSize: 0x50 }
  - { offset: 0x39C72, size: 0x8, addend: 0x0, symName: '__ZN4core3ptr97drop_in_place$LT$core..option..Option$LT$alloc..borrow..Cow$LT$core..ffi..c_str..CStr$GT$$GT$$GT$17h00f65b453edec70dE', symObjAddr: 0xC5C, symBinAddr: 0x8914, symSize: 0x44 }
  - { offset: 0x39E1F, size: 0x8, addend: 0x0, symName: '__ZN4core3ops8function6FnOnce40call_once$u7b$$u7b$vtable.shim$u7d$$u7d$17h287666c3d29bd556E', symObjAddr: 0x6C, symBinAddr: 0x7F10, symSize: 0x24 }
  - { offset: 0x39E63, size: 0x8, addend: 0x0, symName: '__ZN4core3ops8function6FnOnce40call_once$u7b$$u7b$vtable.shim$u7d$$u7d$17h307df2cf9e0c0dc8E', symObjAddr: 0x90, symBinAddr: 0x7F34, symSize: 0x24 }
  - { offset: 0x39EA7, size: 0x8, addend: 0x0, symName: '__ZN4core3ops8function6FnOnce40call_once$u7b$$u7b$vtable.shim$u7d$$u7d$17h69fee1d6430a27e1E', symObjAddr: 0xB4, symBinAddr: 0x7F58, symSize: 0x20 }
  - { offset: 0x39EEB, size: 0x8, addend: 0x0, symName: __ZN4core3ops8function6FnOnce9call_once17h214f0bfed14d177eE, symObjAddr: 0xD4, symBinAddr: 0x7F78, symSize: 0x3C }
  - { offset: 0x39F2F, size: 0x8, addend: 0x0, symName: __ZN4core3ops8function6FnOnce9call_once17h3ac8ee7952a28141E, symObjAddr: 0x110, symBinAddr: 0x7FB4, symSize: 0x24 }
  - { offset: 0x39F73, size: 0x8, addend: 0x0, symName: __ZN4core3ops8function6FnOnce9call_once17h66e61dadeaba95acE, symObjAddr: 0x158, symBinAddr: 0x7FD8, symSize: 0x24 }
  - { offset: 0x39FB7, size: 0x8, addend: 0x0, symName: __ZN4core3ops8function6FnOnce9call_once17habfcb20119a73b06E, symObjAddr: 0x17C, symBinAddr: 0x7FFC, symSize: 0x24 }
  - { offset: 0x39FFB, size: 0x8, addend: 0x0, symName: __ZN4core3ops8function6FnOnce9call_once17hf7f69ed2275fa8fbE, symObjAddr: 0x1A0, symBinAddr: 0x8020, symSize: 0x3C }
  - { offset: 0x3BB4A, size: 0x8, addend: 0x0, symName: '__ZN77_$LT$alloc..raw_vec..RawVec$LT$T$C$A$GT$$u20$as$u20$core..ops..drop..Drop$GT$4drop17h98b1e76fd2d78bdeE', symObjAddr: 0xEF0, symBinAddr: 0x8B84, symSize: 0x30 }
  - { offset: 0x3BB86, size: 0x8, addend: 0x0, symName: '__ZN77_$LT$alloc..raw_vec..RawVec$LT$T$C$A$GT$$u20$as$u20$core..ops..drop..Drop$GT$4drop17h9eb5e77be508dafdE', symObjAddr: 0xF20, symBinAddr: 0x8BB4, symSize: 0x34 }
  - { offset: 0x3BBC2, size: 0x8, addend: 0x0, symName: '__ZN77_$LT$alloc..raw_vec..RawVec$LT$T$C$A$GT$$u20$as$u20$core..ops..drop..Drop$GT$4drop17he42094dd58b79ef3E', symObjAddr: 0xF54, symBinAddr: 0x8BE8, symSize: 0x30 }
  - { offset: 0x3BCF3, size: 0x8, addend: 0x0, symName: '__ZN157_$LT$$LT$alloc..vec..into_iter..IntoIter$LT$T$C$A$GT$$u20$as$u20$core..ops..drop..Drop$GT$..drop..DropGuard$LT$T$C$A$GT$$u20$as$u20$core..ops..drop..Drop$GT$4drop17hcac9640a6f00c346E', symObjAddr: 0x0, symBinAddr: 0x7EA4, symSize: 0x6C }
  - { offset: 0x3BE5F, size: 0x8, addend: 0x0, symName: '__ZN86_$LT$alloc..vec..into_iter..IntoIter$LT$T$C$A$GT$$u20$as$u20$core..ops..drop..Drop$GT$4drop17he08b2c5322727649E', symObjAddr: 0xF84, symBinAddr: 0x8C18, symSize: 0x64 }
  - { offset: 0x3BF76, size: 0x8, addend: 0x0, symName: '__ZN70_$LT$alloc..vec..Vec$LT$T$C$A$GT$$u20$as$u20$core..ops..drop..Drop$GT$4drop17h560e257762b358e6E', symObjAddr: 0xCEC, symBinAddr: 0x8980, symSize: 0x24 }
  - { offset: 0x3C026, size: 0x8, addend: 0x0, symName: '__ZN70_$LT$alloc..vec..Vec$LT$T$C$A$GT$$u20$as$u20$core..ops..drop..Drop$GT$4drop17ha62805b3d0bb8674E', symObjAddr: 0xD10, symBinAddr: 0x89A4, symSize: 0x38 }
  - { offset: 0x3C0D6, size: 0x8, addend: 0x0, symName: '__ZN70_$LT$alloc..vec..Vec$LT$T$C$A$GT$$u20$as$u20$core..ops..drop..Drop$GT$4drop17hf9e9a0a673a4fd5aE', symObjAddr: 0xD48, symBinAddr: 0x89DC, symSize: 0x38 }
  - { offset: 0x3C57C, size: 0x8, addend: 0x0, symName: '__ZN69_$LT$pyo3..instance..Py$LT$T$GT$$u20$as$u20$core..ops..drop..Drop$GT$4drop17h097c455ba9f532f8E', symObjAddr: 0xCC4, symBinAddr: 0x8958, symSize: 0x28 }
  - { offset: 0x3C5DF, size: 0x8, addend: 0x0, symName: '__ZN72_$LT$pyo3..instance..Bound$LT$T$GT$$u20$as$u20$core..ops..drop..Drop$GT$4drop17ha9e5bc8c8c3b4f9bE', symObjAddr: 0xDAC, symBinAddr: 0x8A40, symSize: 0x144 }
  - { offset: 0x3C7AA, size: 0x8, addend: 0x0, symName: '__ZN70_$LT$pyo3..pycell..PyRef$LT$T$GT$$u20$as$u20$core..ops..drop..Drop$GT$4drop17hba8a11e859ab2a64E', symObjAddr: 0xD80, symBinAddr: 0x8A14, symSize: 0x2C }
  - { offset: 0x3D8C8, size: 0x8, addend: 0x0, symName: __ZN4core5slice3raw14from_raw_parts18precondition_check17h4224b7bac0f68902E, symObjAddr: 0x0, symBinAddr: 0x8C7C, symSize: 0x10C }
  - { offset: 0x3D9AE, size: 0x8, addend: 0x0, symName: __ZN4core5slice3raw14from_raw_parts18precondition_check17h4224b7bac0f68902E, symObjAddr: 0x0, symBinAddr: 0x8C7C, symSize: 0x10C }
  - { offset: 0x3DB43, size: 0x8, addend: 0x0, symName: '__ZN4core4iter6traits8iterator8Iterator8for_each4call28_$u7b$$u7b$closure$u7d$$u7d$17h4394ea2272e1eab3E', symObjAddr: 0x0, symBinAddr: 0x8D88, symSize: 0x28 }
  - { offset: 0x3DB91, size: 0x8, addend: 0x0, symName: '__ZN4core4iter6traits8iterator8Iterator8for_each4call28_$u7b$$u7b$closure$u7d$$u7d$17h4394ea2272e1eab3E', symObjAddr: 0x0, symBinAddr: 0x8D88, symSize: 0x28 }
  - { offset: 0x3DBE9, size: 0x8, addend: 0x0, symName: '__ZN4core4iter6traits8iterator8Iterator8for_each4call28_$u7b$$u7b$closure$u7d$$u7d$17hd3a68469c986ea90E', symObjAddr: 0x28, symBinAddr: 0x8DB0, symSize: 0x3C }
  - { offset: 0x3DC42, size: 0x8, addend: 0x0, symName: '__ZN4core4iter6traits8iterator8Iterator8for_each4call28_$u7b$$u7b$closure$u7d$$u7d$17hd64cd620c2674a45E', symObjAddr: 0x64, symBinAddr: 0x8DEC, symSize: 0x28 }
  - { offset: 0x3DC9A, size: 0x8, addend: 0x0, symName: '__ZN4core4iter6traits8iterator8Iterator8for_each4call28_$u7b$$u7b$closure$u7d$$u7d$17hfb9e46d29282da36E', symObjAddr: 0x8C, symBinAddr: 0x8E14, symSize: 0x3C }
  - { offset: 0x3DD04, size: 0x8, addend: 0x0, symName: '__ZN87_$LT$I$u20$as$u20$core..iter..traits..iterator..Iterator..advance_by..SpecAdvanceBy$GT$15spec_advance_by28_$u7b$$u7b$closure$u7d$$u7d$17h75a9eefb2d2a6551E', symObjAddr: 0xC8, symBinAddr: 0x8E50, symSize: 0x40 }
  - { offset: 0x3DD51, size: 0x8, addend: 0x0, symName: '__ZN87_$LT$I$u20$as$u20$core..iter..traits..iterator..Iterator..advance_by..SpecAdvanceBy$GT$15spec_advance_by28_$u7b$$u7b$closure$u7d$$u7d$17h8441e49d8c880105E', symObjAddr: 0x108, symBinAddr: 0x8E90, symSize: 0x40 }
  - { offset: 0x3DD9E, size: 0x8, addend: 0x0, symName: '__ZN87_$LT$I$u20$as$u20$core..iter..traits..iterator..Iterator..advance_by..SpecAdvanceBy$GT$15spec_advance_by28_$u7b$$u7b$closure$u7d$$u7d$17hb64b7a63edc4fc2aE', symObjAddr: 0x148, symBinAddr: 0x8ED0, symSize: 0x40 }
  - { offset: 0x3DDEB, size: 0x8, addend: 0x0, symName: '__ZN87_$LT$I$u20$as$u20$core..iter..traits..iterator..Iterator..advance_by..SpecAdvanceBy$GT$15spec_advance_by28_$u7b$$u7b$closure$u7d$$u7d$17hd84d93a2c777fe83E', symObjAddr: 0x188, symBinAddr: 0x8F10, symSize: 0x40 }
  - { offset: 0x3DE38, size: 0x8, addend: 0x0, symName: '__ZN87_$LT$I$u20$as$u20$core..iter..traits..iterator..Iterator..advance_by..SpecAdvanceBy$GT$15spec_advance_by28_$u7b$$u7b$closure$u7d$$u7d$17hf905be5f5f059fc9E', symObjAddr: 0x1C8, symBinAddr: 0x8F50, symSize: 0x40 }
  - { offset: 0x3FC23, size: 0x8, addend: 0x0, symName: '__ZN118_$LT$pyo3..impl_..pyclass..SendablePyClass$LT$T$GT$$u20$as$u20$pyo3..impl_..pyclass..PyClassThreadChecker$LT$T$GT$$GT$3new17h0a3037a6d060b3d4E', symObjAddr: 0x0, symBinAddr: 0x8F90, symSize: 0x4 }
  - { offset: 0x40D8F, size: 0x8, addend: 0x0, symName: '__ZN118_$LT$pyo3..impl_..pyclass..SendablePyClass$LT$T$GT$$u20$as$u20$pyo3..impl_..pyclass..PyClassThreadChecker$LT$T$GT$$GT$3new17h0a3037a6d060b3d4E', symObjAddr: 0x0, symBinAddr: 0x8F90, symSize: 0x4 }
  - { offset: 0x40DB3, size: 0x8, addend: 0x0, symName: '__ZN118_$LT$pyo3..impl_..pyclass..SendablePyClass$LT$T$GT$$u20$as$u20$pyo3..impl_..pyclass..PyClassThreadChecker$LT$T$GT$$GT$6ensure17hdb9bbb19f64ab288E', symObjAddr: 0x4, symBinAddr: 0x8F94, symSize: 0x10 }
  - { offset: 0x40DE6, size: 0x8, addend: 0x0, symName: '__ZN118_$LT$pyo3..impl_..pyclass..SendablePyClass$LT$T$GT$$u20$as$u20$pyo3..impl_..pyclass..PyClassThreadChecker$LT$T$GT$$GT$8can_drop17hd624550cd36c7623E', symObjAddr: 0x14, symBinAddr: 0x8FA4, symSize: 0x18 }
  - { offset: 0x40E3E, size: 0x8, addend: 0x0, symName: '__ZN130_$LT$$RF$pyo3..impl_..pyclass..PyClassImplCollector$LT$T$GT$$u20$as$u20$pyo3..impl_..pyclass..PyClassNewTextSignature$LT$T$GT$$GT$18new_text_signature17h92f43efc99dc5d79E', symObjAddr: 0x2C, symBinAddr: 0x8FBC, symSize: 0x14 }
  - { offset: 0x40E76, size: 0x8, addend: 0x0, symName: __ZN4pyo35impl_7pyclass10tp_dealloc17hf8b8fe9a3311ff7bE, symObjAddr: 0x40, symBinAddr: 0x8FD0, symSize: 0x34 }
  - { offset: 0x40EAE, size: 0x8, addend: 0x0, symName: __ZN4pyo35impl_7pyclass11PyClassDict10clear_dict17h476896fe824d684eE, symObjAddr: 0x74, symBinAddr: 0x9004, symSize: 0x10 }
  - { offset: 0x40EFE, size: 0x8, addend: 0x0, symName: __ZN4pyo35impl_7pyclass14PyClassWeakRef14clear_weakrefs17h4d8647af711e442fE, symObjAddr: 0x84, symBinAddr: 0x9014, symSize: 0x14 }
  - { offset: 0x40F57, size: 0x8, addend: 0x0, symName: __ZN4pyo35impl_7pyclass18tp_dealloc_with_gc17h5437ebad0c033963E, symObjAddr: 0x98, symBinAddr: 0x9028, symSize: 0x4C }
  - { offset: 0x4177B, size: 0x8, addend: 0x0, symName: '__ZN4pyo35impl_7pyclass29PyClassImplCollector$LT$T$GT$3new17h81efc1b44d87357dE', symObjAddr: 0xE4, symBinAddr: 0x9074, symSize: 0x4 }
  - { offset: 0x41843, size: 0x8, addend: 0x0, symName: __ZN4core5slice3raw14from_raw_parts17h1f28c13346f8b5afE, symObjAddr: 0x0, symBinAddr: 0x9078, symSize: 0x58 }
  - { offset: 0x4187D, size: 0x8, addend: 0x0, symName: __ZN4core5slice3raw14from_raw_parts17h1f28c13346f8b5afE, symObjAddr: 0x0, symBinAddr: 0x9078, symSize: 0x58 }
  - { offset: 0x418C0, size: 0x8, addend: 0x0, symName: __ZN4core5slice3raw14from_raw_parts17hee50697671bbe221E, symObjAddr: 0x58, symBinAddr: 0x90D0, symSize: 0x58 }
  - { offset: 0x42FCB, size: 0x8, addend: 0x0, symName: '__ZN3std4path77_$LT$impl$u20$core..convert..AsRef$LT$std..path..Path$GT$$u20$for$u20$str$GT$6as_ref17h6b80a05644e1a30cE', symObjAddr: 0x0, symBinAddr: 0x9128, symSize: 0x18 }
  - { offset: 0x42FE7, size: 0x8, addend: 0x0, symName: '__ZN3std4path77_$LT$impl$u20$core..convert..AsRef$LT$std..path..Path$GT$$u20$for$u20$str$GT$6as_ref17h6b80a05644e1a30cE', symObjAddr: 0x0, symBinAddr: 0x9128, symSize: 0x18 }
  - { offset: 0x430EF, size: 0x8, addend: 0x0, symName: '__ZN100_$LT$pyo3..types..tuple..BorrowedTupleIterator$u20$as$u20$core..iter..traits..iterator..Iterator$GT$4next17ha40c3422926e6bf1E', symObjAddr: 0x0, symBinAddr: 0x9140, symSize: 0x9C }
  - { offset: 0x44206, size: 0x8, addend: 0x0, symName: '__ZN100_$LT$pyo3..types..tuple..BorrowedTupleIterator$u20$as$u20$core..iter..traits..iterator..Iterator$GT$4next17ha40c3422926e6bf1E', symObjAddr: 0x0, symBinAddr: 0x9140, symSize: 0x9C }
  - { offset: 0x448AD, size: 0x8, addend: 0x0, symName: __ZN4pyo35impl_5panic9PanicTrap3new17h5b0828d7d8c0fc46E, symObjAddr: 0x0, symBinAddr: 0x91DC, symSize: 0x18 }
  - { offset: 0x4493C, size: 0x8, addend: 0x0, symName: __ZN4pyo35impl_5panic9PanicTrap3new17h5b0828d7d8c0fc46E, symObjAddr: 0x0, symBinAddr: 0x91DC, symSize: 0x18 }
  - { offset: 0x4495E, size: 0x8, addend: 0x0, symName: __ZN4pyo35impl_5panic9PanicTrap6disarm17h6c69435a84dfba3dE, symObjAddr: 0x18, symBinAddr: 0x91F4, symSize: 0x28 }
  - { offset: 0x4499E, size: 0x8, addend: 0x0, symName: __ZN4core4hint16assert_unchecked18precondition_check17ha4a33ab99428767cE, symObjAddr: 0x0, symBinAddr: 0x921C, symSize: 0x58 }
  - { offset: 0x449BA, size: 0x8, addend: 0x0, symName: __ZN4core4hint16assert_unchecked18precondition_check17ha4a33ab99428767cE, symObjAddr: 0x0, symBinAddr: 0x921C, symSize: 0x58 }
  - { offset: 0x44A05, size: 0x8, addend: 0x0, symName: __ZN4core4hint21unreachable_unchecked18precondition_check17h55644f97785d23fdE, symObjAddr: 0x58, symBinAddr: 0x9274, symSize: 0x3C }
  - { offset: 0x44A99, size: 0x8, addend: 0x0, symName: '__ZN106_$LT$core..ops..range..Range$LT$usize$GT$$u20$as$u20$core..slice..index..SliceIndex$LT$$u5b$T$u5d$$GT$$GT$9index_mut17h815188663082c551E', symObjAddr: 0x0, symBinAddr: 0x92B0, symSize: 0xBC }
  - { offset: 0x45468, size: 0x8, addend: 0x0, symName: '__ZN106_$LT$core..ops..range..Range$LT$usize$GT$$u20$as$u20$core..slice..index..SliceIndex$LT$$u5b$T$u5d$$GT$$GT$9index_mut17h815188663082c551E', symObjAddr: 0x0, symBinAddr: 0x92B0, symSize: 0xBC }
  - { offset: 0x45519, size: 0x8, addend: 0x0, symName: '__ZN108_$LT$core..ops..range..RangeTo$LT$usize$GT$$u20$as$u20$core..slice..index..SliceIndex$LT$$u5b$T$u5d$$GT$$GT$9index_mut17h6fff88e298d01014E', symObjAddr: 0xBC, symBinAddr: 0x936C, symSize: 0x54 }
  - { offset: 0x455A0, size: 0x8, addend: 0x0, symName: '__ZN110_$LT$core..ops..range..RangeFrom$LT$usize$GT$$u20$as$u20$core..slice..index..SliceIndex$LT$$u5b$T$u5d$$GT$$GT$5index17hb03674f69b7aeb38E', symObjAddr: 0x110, symBinAddr: 0x93C0, symSize: 0x70 }
  - { offset: 0x464C9, size: 0x8, addend: 0x0, symName: '__ZN4core3mem13manually_drop21ManuallyDrop$LT$T$GT$4drop17hab20c74af1cbb0a1E', symObjAddr: 0x0, symBinAddr: 0x9430, symSize: 0x20 }
  - { offset: 0x46902, size: 0x8, addend: 0x0, symName: '__ZN4core3mem13manually_drop21ManuallyDrop$LT$T$GT$4drop17hab20c74af1cbb0a1E', symObjAddr: 0x0, symBinAddr: 0x9430, symSize: 0x20 }
  - { offset: 0x4694C, size: 0x8, addend: 0x0, symName: '__ZN75_$LT$usize$u20$as$u20$pyo3..callback..IntoPyCallbackOutput$LT$isize$GT$$GT$7convert17h4bdfd1b887d64705E', symObjAddr: 0x0, symBinAddr: 0x9450, symSize: 0x2C }
  - { offset: 0x47BC4, size: 0x8, addend: 0x0, symName: '__ZN75_$LT$usize$u20$as$u20$pyo3..callback..IntoPyCallbackOutput$LT$isize$GT$$GT$7convert17h4bdfd1b887d64705E', symObjAddr: 0x0, symBinAddr: 0x9450, symSize: 0x2C }
  - { offset: 0x48375, size: 0x8, addend: 0x0, symName: __ZN4core5slice20copy_from_slice_impl17h204ff2a61c702fa7E, symObjAddr: 0x0, symBinAddr: 0x947C, symSize: 0xAC }
  - { offset: 0x483FD, size: 0x8, addend: 0x0, symName: '__ZN4core5slice29_$LT$impl$u20$$u5b$T$u5d$$GT$4iter17h386265d2a73d6e89E', symObjAddr: 0xAC, symBinAddr: 0x9528, symSize: 0x28 }
  - { offset: 0x48434, size: 0x8, addend: 0x0, symName: '__ZN4core5slice29_$LT$impl$u20$$u5b$T$u5d$$GT$4iter17hde56e4d3a7bf5c2aE', symObjAddr: 0xD4, symBinAddr: 0x9550, symSize: 0x28 }
  - { offset: 0x4846C, size: 0x8, addend: 0x0, symName: __ZN4core5slice20copy_from_slice_impl17h204ff2a61c702fa7E, symObjAddr: 0x0, symBinAddr: 0x947C, symSize: 0xAC }
  - { offset: 0x49D6B, size: 0x8, addend: 0x0, symName: '__ZN73_$LT$pyo3..types..any..PyAny$u20$as$u20$pyo3..type_object..PyTypeInfo$GT$15type_object_raw17h9b6c0166d6fe0a75E', symObjAddr: 0x0, symBinAddr: 0x9578, symSize: 0x24 }
  - { offset: 0x4AD8B, size: 0x8, addend: 0x0, symName: '__ZN73_$LT$pyo3..types..any..PyAny$u20$as$u20$pyo3..type_object..PyTypeInfo$GT$15type_object_raw17h9b6c0166d6fe0a75E', symObjAddr: 0x0, symBinAddr: 0x9578, symSize: 0x24 }
  - { offset: 0x4B2D1, size: 0x8, addend: 0x0, symName: '__ZN58_$LT$T$u20$as$u20$pyo3..err..err_state..PyErrArguments$GT$9arguments17h414403f912c670cfE', symObjAddr: 0x0, symBinAddr: 0x959C, symSize: 0x1C }
  - { offset: 0x4C351, size: 0x8, addend: 0x0, symName: '__ZN58_$LT$T$u20$as$u20$pyo3..err..err_state..PyErrArguments$GT$9arguments17h414403f912c670cfE', symObjAddr: 0x0, symBinAddr: 0x959C, symSize: 0x1C }
  - { offset: 0x4C910, size: 0x8, addend: 0x0, symName: '__ZN4pyo311conversions3std6option88_$LT$impl$u20$pyo3..conversion..ToPyObject$u20$for$u20$core..option..Option$LT$T$GT$$GT$9to_object28_$u7b$$u7b$closure$u7d$$u7d$17h1be260d46ab7ecf9E', symObjAddr: 0x0, symBinAddr: 0x95B8, symSize: 0x20 }
  - { offset: 0x4D99A, size: 0x8, addend: 0x0, symName: '__ZN4pyo311conversions3std6option88_$LT$impl$u20$pyo3..conversion..ToPyObject$u20$for$u20$core..option..Option$LT$T$GT$$GT$9to_object28_$u7b$$u7b$closure$u7d$$u7d$17h1be260d46ab7ecf9E', symObjAddr: 0x0, symBinAddr: 0x95B8, symSize: 0x20 }
  - { offset: 0x4D9DA, size: 0x8, addend: 0x0, symName: '__ZN4pyo311conversions3std6option88_$LT$impl$u20$pyo3..conversion..ToPyObject$u20$for$u20$core..option..Option$LT$T$GT$$GT$9to_object28_$u7b$$u7b$closure$u7d$$u7d$17h57aec5d2085be7b1E', symObjAddr: 0x20, symBinAddr: 0x95D8, symSize: 0x30 }
  - { offset: 0x4DA28, size: 0x8, addend: 0x0, symName: '__ZN4pyo311conversions3std6option88_$LT$impl$u20$pyo3..conversion..ToPyObject$u20$for$u20$core..option..Option$LT$T$GT$$GT$9to_object28_$u7b$$u7b$closure$u7d$$u7d$17ha59c629cd521f19fE', symObjAddr: 0x50, symBinAddr: 0x9608, symSize: 0x30 }
  - { offset: 0x4DA76, size: 0x8, addend: 0x0, symName: '__ZN4pyo311conversions3std6option88_$LT$impl$u20$pyo3..conversion..ToPyObject$u20$for$u20$core..option..Option$LT$T$GT$$GT$9to_object28_$u7b$$u7b$closure$u7d$$u7d$17ha66174234338d8d7E', symObjAddr: 0x80, symBinAddr: 0x9638, symSize: 0x20 }
  - { offset: 0x4E0A3, size: 0x8, addend: 0x0, symName: __ZN5alloc3fmt6format17hb86864c7edeac0ffE, symObjAddr: 0x0, symBinAddr: 0x9658, symSize: 0xD8 }
  - { offset: 0x4E5BB, size: 0x8, addend: 0x0, symName: __ZN5alloc3fmt6format17hb86864c7edeac0ffE, symObjAddr: 0x0, symBinAddr: 0x9658, symSize: 0xD8 }
  - { offset: 0x4E76B, size: 0x8, addend: 0x0, symName: '__ZN4pyo35types10boolobject63_$LT$impl$u20$pyo3..conversion..ToPyObject$u20$for$u20$bool$GT$9to_object17h5e04cb405817dbecE', symObjAddr: 0x0, symBinAddr: 0x9730, symSize: 0x54 }
  - { offset: 0x4F7EB, size: 0x8, addend: 0x0, symName: '__ZN4pyo35types10boolobject63_$LT$impl$u20$pyo3..conversion..ToPyObject$u20$for$u20$bool$GT$9to_object17h5e04cb405817dbecE', symObjAddr: 0x0, symBinAddr: 0x9730, symSize: 0x54 }
  - { offset: 0x4FDA8, size: 0x8, addend: 0x0, symName: '__ZN5alloc3vec16Vec$LT$T$C$A$GT$7set_len18precondition_check17h2c475c59c588abc0E', symObjAddr: 0x0, symBinAddr: 0x9784, symSize: 0x60 }
  - { offset: 0x4FDC9, size: 0x8, addend: 0x0, symName: '__ZN5alloc3vec16Vec$LT$T$C$A$GT$7set_len18precondition_check17h2c475c59c588abc0E', symObjAddr: 0x0, symBinAddr: 0x9784, symSize: 0x60 }
  - { offset: 0x4FE73, size: 0x8, addend: 0x0, symName: __ZN4pyo33err5PyErr10from_state17hf070bd04f89e5facE, symObjAddr: 0x0, symBinAddr: 0x97E4, symSize: 0x3C }
  - { offset: 0x518EB, size: 0x8, addend: 0x0, symName: __ZN4pyo33err5PyErr10from_state17hf070bd04f89e5facE, symObjAddr: 0x0, symBinAddr: 0x97E4, symSize: 0x3C }
  - { offset: 0x51971, size: 0x8, addend: 0x0, symName: __ZN4pyo33err5PyErr22write_unraisable_bound17h66d9820265628948E, symObjAddr: 0x3C, symBinAddr: 0x9820, symSize: 0x4C }
  - { offset: 0x519DB, size: 0x8, addend: 0x0, symName: __ZN4pyo33err5PyErr7restore17hfef55ddee008ec06E, symObjAddr: 0x88, symBinAddr: 0x986C, symSize: 0x68 }
  - { offset: 0x51A56, size: 0x8, addend: 0x0, symName: __ZN3std2fs4read17h85b4a322acb2cf45E, symObjAddr: 0x0, symBinAddr: 0x98D4, symSize: 0x68 }
  - { offset: 0x51CC5, size: 0x8, addend: 0x0, symName: __ZN3std2fs4read17h85b4a322acb2cf45E, symObjAddr: 0x0, symBinAddr: 0x98D4, symSize: 0x68 }
  - { offset: 0x51FFA, size: 0x8, addend: 0x0, symName: '__ZN100_$LT$pyo3..pycell..impl_..MutableClass$u20$as$u20$pyo3..pycell..impl_..GetBorrowChecker$LT$T$GT$$GT$14borrow_checker17h9c9b91cef29906bfE', symObjAddr: 0x0, symBinAddr: 0x993C, symSize: 0x14 }
  - { offset: 0x5323D, size: 0x8, addend: 0x0, symName: '__ZN100_$LT$pyo3..pycell..impl_..MutableClass$u20$as$u20$pyo3..pycell..impl_..GetBorrowChecker$LT$T$GT$$GT$14borrow_checker17h9c9b91cef29906bfE', symObjAddr: 0x0, symBinAddr: 0x993C, symSize: 0x14 }
  - { offset: 0x53278, size: 0x8, addend: 0x0, symName: '__ZN113_$LT$pyo3..pycell..impl_..PyClassObject$LT$T$GT$$u20$as$u20$pyo3..pycell..impl_..PyClassObjectLayout$LT$T$GT$$GT$10tp_dealloc17h26f55d5e0515eb7bE', symObjAddr: 0x14, symBinAddr: 0x9950, symSize: 0xB4 }
  - { offset: 0x532DC, size: 0x8, addend: 0x0, symName: '__ZN113_$LT$pyo3..pycell..impl_..PyClassObject$LT$T$GT$$u20$as$u20$pyo3..pycell..impl_..PyClassObjectLayout$LT$T$GT$$GT$17ensure_threadsafe17h8bf371533298be30E', symObjAddr: 0xC8, symBinAddr: 0x9A04, symSize: 0x30 }
  - { offset: 0x53315, size: 0x8, addend: 0x0, symName: '__ZN117_$LT$pyo3..pycell..impl_..PyClassObjectBase$LT$U$GT$$u20$as$u20$pyo3..pycell..impl_..PyClassObjectLayout$LT$T$GT$$GT$10tp_dealloc17he0c0b39fdd87e589E', symObjAddr: 0xF8, symBinAddr: 0x9A34, symSize: 0x2B4 }
  - { offset: 0x53436, size: 0x8, addend: 0x0, symName: '__ZN117_$LT$pyo3..pycell..impl_..PyClassObjectBase$LT$U$GT$$u20$as$u20$pyo3..pycell..impl_..PyClassObjectLayout$LT$T$GT$$GT$17ensure_threadsafe17hdc8d7af4eec0eb78E', symObjAddr: 0x3AC, symBinAddr: 0x9CE8, symSize: 0x10 }
  - { offset: 0x53DCB, size: 0x8, addend: 0x0, symName: '__ZN4pyo36pycell5impl_22PyClassObject$LT$T$GT$14borrow_checker17h56a18d1612a701c7E', symObjAddr: 0x3BC, symBinAddr: 0x9CF8, symSize: 0x24 }
  - { offset: 0x53E04, size: 0x8, addend: 0x0, symName: '__ZN4pyo36pycell5impl_22PyClassObject$LT$T$GT$7get_ptr17h2bd38a120ebc84a3E', symObjAddr: 0x3E0, symBinAddr: 0x9D1C, symSize: 0x24 }
  - { offset: 0x53EAD, size: 0x8, addend: 0x0, symName: '__ZN4core5slice29_$LT$impl$u20$$u5b$T$u5d$$GT$18split_at_unchecked18precondition_check17h6afd4af83e136807E', symObjAddr: 0x0, symBinAddr: 0x9D40, symSize: 0x60 }
  - { offset: 0x53ECE, size: 0x8, addend: 0x0, symName: '__ZN4core5slice29_$LT$impl$u20$$u5b$T$u5d$$GT$18split_at_unchecked18precondition_check17h6afd4af83e136807E', symObjAddr: 0x0, symBinAddr: 0x9D40, symSize: 0x60 }
  - { offset: 0x53F78, size: 0x8, addend: 0x0, symName: __ZN8pyo3_ffi10boolobject7Py_True17he508db0227081917E, symObjAddr: 0x0, symBinAddr: 0x9DA0, symSize: 0xC }
  - { offset: 0x54816, size: 0x8, addend: 0x0, symName: __ZN8pyo3_ffi10boolobject7Py_True17he508db0227081917E, symObjAddr: 0x0, symBinAddr: 0x9DA0, symSize: 0xC }
  - { offset: 0x54833, size: 0x8, addend: 0x0, symName: __ZN8pyo3_ffi10boolobject8Py_False17hf9175cff0418b1adE, symObjAddr: 0xC, symBinAddr: 0x9DAC, symSize: 0xC }
  - { offset: 0x553BC, size: 0x8, addend: 0x0, symName: '__ZN111_$LT$alloc..vec..Vec$LT$T$GT$$u20$as$u20$alloc..vec..spec_from_iter_nested..SpecFromIterNested$LT$T$C$I$GT$$GT$9from_iter17h0e8b336df24b7fc9E', symObjAddr: 0x0, symBinAddr: 0x9DB8, symSize: 0x12C }
  - { offset: 0x55E5E, size: 0x8, addend: 0x0, symName: '__ZN4core5slice29_$LT$impl$u20$$u5b$T$u5d$$GT$4iter17h722d22878877a001E', symObjAddr: 0x4B8, symBinAddr: 0xA270, symSize: 0x28 }
  - { offset: 0x56AED, size: 0x8, addend: 0x0, symName: '__ZN111_$LT$alloc..vec..Vec$LT$T$GT$$u20$as$u20$alloc..vec..spec_from_iter_nested..SpecFromIterNested$LT$T$C$I$GT$$GT$9from_iter17h0e8b336df24b7fc9E', symObjAddr: 0x0, symBinAddr: 0x9DB8, symSize: 0x12C }
  - { offset: 0x56BAE, size: 0x8, addend: 0x0, symName: '__ZN111_$LT$alloc..vec..Vec$LT$T$GT$$u20$as$u20$alloc..vec..spec_from_iter_nested..SpecFromIterNested$LT$T$C$I$GT$$GT$9from_iter17h62980da62877de7aE', symObjAddr: 0x12C, symBinAddr: 0x9EE4, symSize: 0x130 }
  - { offset: 0x56C6F, size: 0x8, addend: 0x0, symName: '__ZN111_$LT$alloc..vec..Vec$LT$T$GT$$u20$as$u20$alloc..vec..spec_from_iter_nested..SpecFromIterNested$LT$T$C$I$GT$$GT$9from_iter17h68c3b5306a950451E', symObjAddr: 0x25C, symBinAddr: 0xA014, symSize: 0x12C }
  - { offset: 0x56D30, size: 0x8, addend: 0x0, symName: '__ZN111_$LT$alloc..vec..Vec$LT$T$GT$$u20$as$u20$alloc..vec..spec_from_iter_nested..SpecFromIterNested$LT$T$C$I$GT$$GT$9from_iter17h948fd55fb8d8c719E', symObjAddr: 0x388, symBinAddr: 0xA140, symSize: 0x130 }
  - { offset: 0x57386, size: 0x8, addend: 0x0, symName: '__ZN5alloc3vec16Vec$LT$T$C$A$GT$14extend_trusted28_$u7b$$u7b$closure$u7d$$u7d$17h6a9c119cccaf2c53E', symObjAddr: 0xB60, symBinAddr: 0xA918, symSize: 0x44 }
  - { offset: 0x57433, size: 0x8, addend: 0x0, symName: '__ZN5alloc3vec16Vec$LT$T$C$A$GT$14extend_trusted28_$u7b$$u7b$closure$u7d$$u7d$17h8249582952dca360E', symObjAddr: 0xBA4, symBinAddr: 0xA95C, symSize: 0x30 }
  - { offset: 0x574DB, size: 0x8, addend: 0x0, symName: '__ZN5alloc3vec16Vec$LT$T$C$A$GT$14extend_trusted28_$u7b$$u7b$closure$u7d$$u7d$17hefa8dfb62c8e1027E', symObjAddr: 0xBD4, symBinAddr: 0xA98C, symSize: 0x30 }
  - { offset: 0x57583, size: 0x8, addend: 0x0, symName: '__ZN5alloc3vec16Vec$LT$T$C$A$GT$14extend_trusted28_$u7b$$u7b$closure$u7d$$u7d$17hf32a6bba0937dac0E', symObjAddr: 0xC04, symBinAddr: 0xA9BC, symSize: 0x44 }
  - { offset: 0x5766D, size: 0x8, addend: 0x0, symName: '__ZN67_$LT$alloc..vec..Vec$LT$T$C$A$GT$$u20$as$u20$core..clone..Clone$GT$5clone17h09f0fa45c5a4d596E', symObjAddr: 0x10C4, symBinAddr: 0xAE7C, symSize: 0x4C }
  - { offset: 0x57836, size: 0x8, addend: 0x0, symName: '__ZN90_$LT$alloc..vec..Vec$LT$T$C$A$GT$$u20$as$u20$core..iter..traits..collect..IntoIterator$GT$9into_iter17h3119e4c07c81736cE', symObjAddr: 0x1110, symBinAddr: 0xAEC8, symSize: 0xA8 }
  - { offset: 0x57A33, size: 0x8, addend: 0x0, symName: '__ZN95_$LT$alloc..vec..Vec$LT$T$GT$$u20$as$u20$core..iter..traits..collect..FromIterator$LT$T$GT$$GT$9from_iter17h1d5a55a351575747E', symObjAddr: 0x11B8, symBinAddr: 0xAF70, symSize: 0x38 }
  - { offset: 0x57A73, size: 0x8, addend: 0x0, symName: '__ZN95_$LT$alloc..vec..Vec$LT$T$GT$$u20$as$u20$core..iter..traits..collect..FromIterator$LT$T$GT$$GT$9from_iter17h3538db141bc2838dE', symObjAddr: 0x11F0, symBinAddr: 0xAFA8, symSize: 0x38 }
  - { offset: 0x57AB3, size: 0x8, addend: 0x0, symName: '__ZN95_$LT$alloc..vec..Vec$LT$T$GT$$u20$as$u20$core..iter..traits..collect..FromIterator$LT$T$GT$$GT$9from_iter17hce35cd6754f7295aE', symObjAddr: 0x1228, symBinAddr: 0xAFE0, symSize: 0x38 }
  - { offset: 0x57AF3, size: 0x8, addend: 0x0, symName: '__ZN95_$LT$alloc..vec..Vec$LT$T$GT$$u20$as$u20$core..iter..traits..collect..FromIterator$LT$T$GT$$GT$9from_iter17hdf18a38cde9efee5E', symObjAddr: 0x1260, symBinAddr: 0xB018, symSize: 0x38 }
  - { offset: 0x57B3E, size: 0x8, addend: 0x0, symName: '__ZN97_$LT$alloc..vec..Vec$LT$T$C$A$GT$$u20$as$u20$alloc..vec..spec_extend..SpecExtend$LT$T$C$I$GT$$GT$11spec_extend17h0434f84bb699c77dE', symObjAddr: 0x1298, symBinAddr: 0xB050, symSize: 0x34 }
  - { offset: 0x57B8F, size: 0x8, addend: 0x0, symName: '__ZN97_$LT$alloc..vec..Vec$LT$T$C$A$GT$$u20$as$u20$alloc..vec..spec_extend..SpecExtend$LT$T$C$I$GT$$GT$11spec_extend17hb0c07d652ce4e965E', symObjAddr: 0x12CC, symBinAddr: 0xB084, symSize: 0x34 }
  - { offset: 0x57BE0, size: 0x8, addend: 0x0, symName: '__ZN97_$LT$alloc..vec..Vec$LT$T$C$A$GT$$u20$as$u20$alloc..vec..spec_extend..SpecExtend$LT$T$C$I$GT$$GT$11spec_extend17hd724d1a5121cb82fE', symObjAddr: 0x1300, symBinAddr: 0xB0B8, symSize: 0x34 }
  - { offset: 0x57C31, size: 0x8, addend: 0x0, symName: '__ZN97_$LT$alloc..vec..Vec$LT$T$C$A$GT$$u20$as$u20$alloc..vec..spec_extend..SpecExtend$LT$T$C$I$GT$$GT$11spec_extend17hf574999caf9c1ff6E', symObjAddr: 0x1334, symBinAddr: 0xB0EC, symSize: 0x34 }
  - { offset: 0x57C8E, size: 0x8, addend: 0x0, symName: '__ZN98_$LT$alloc..vec..Vec$LT$T$GT$$u20$as$u20$alloc..vec..spec_from_iter..SpecFromIter$LT$T$C$I$GT$$GT$9from_iter17h4fbdc2cf3c156a41E', symObjAddr: 0x1368, symBinAddr: 0xB120, symSize: 0x2C }
  - { offset: 0x57CCC, size: 0x8, addend: 0x0, symName: '__ZN98_$LT$alloc..vec..Vec$LT$T$GT$$u20$as$u20$alloc..vec..spec_from_iter..SpecFromIter$LT$T$C$I$GT$$GT$9from_iter17h5a9a9e88c67bbb70E', symObjAddr: 0x1394, symBinAddr: 0xB14C, symSize: 0x2C }
  - { offset: 0x57D0A, size: 0x8, addend: 0x0, symName: '__ZN98_$LT$alloc..vec..Vec$LT$T$GT$$u20$as$u20$alloc..vec..spec_from_iter..SpecFromIter$LT$T$C$I$GT$$GT$9from_iter17hd9651633075587e4E', symObjAddr: 0x13C0, symBinAddr: 0xB178, symSize: 0x2C }
  - { offset: 0x57D48, size: 0x8, addend: 0x0, symName: '__ZN98_$LT$alloc..vec..Vec$LT$T$GT$$u20$as$u20$alloc..vec..spec_from_iter..SpecFromIter$LT$T$C$I$GT$$GT$9from_iter17hfdd7b60fdb063ef5E', symObjAddr: 0x13EC, symBinAddr: 0xB1A4, symSize: 0x2C }
  - { offset: 0x584FF, size: 0x8, addend: 0x0, symName: '__ZN4pyo311conversions3std3vec136_$LT$impl$u20$pyo3..conversion..IntoPy$LT$pyo3..instance..Py$LT$pyo3..types..any..PyAny$GT$$GT$$u20$for$u20$alloc..vec..Vec$LT$T$GT$$GT$7into_py17hf2d9fc42aaace510E', symObjAddr: 0x4E0, symBinAddr: 0xA298, symSize: 0xC4 }
  - { offset: 0x5859F, size: 0x8, addend: 0x0, symName: '__ZN4pyo311conversions3std3vec70_$LT$impl$u20$pyo3..conversion..ToPyObject$u20$for$u20$$u5b$T$u5d$$GT$9to_object17hd2e943e223554770E', symObjAddr: 0x5A4, symBinAddr: 0xA35C, symSize: 0x64 }
  - { offset: 0x5862D, size: 0x8, addend: 0x0, symName: '__ZN4pyo311conversions3std3vec83_$LT$impl$u20$pyo3..conversion..ToPyObject$u20$for$u20$alloc..vec..Vec$LT$T$GT$$GT$9to_object17h2e8cbbca5ce951f8E', symObjAddr: 0x608, symBinAddr: 0xA3C0, symSize: 0x28 }
  - { offset: 0x5867B, size: 0x8, addend: 0x0, symName: '__ZN4pyo311conversions3std3vec83_$LT$impl$u20$pyo3..conversion..ToPyObject$u20$for$u20$alloc..vec..Vec$LT$T$GT$$GT$9to_object17h4afddad351aba27dE', symObjAddr: 0x630, symBinAddr: 0xA3E8, symSize: 0x28 }
  - { offset: 0x586C9, size: 0x8, addend: 0x0, symName: '__ZN4pyo311conversions3std3vec83_$LT$impl$u20$pyo3..conversion..ToPyObject$u20$for$u20$alloc..vec..Vec$LT$T$GT$$GT$9to_object17h7e4b4b48145b25fdE', symObjAddr: 0x658, symBinAddr: 0xA410, symSize: 0x28 }
  - { offset: 0x58717, size: 0x8, addend: 0x0, symName: '__ZN4pyo311conversions3std3vec83_$LT$impl$u20$pyo3..conversion..ToPyObject$u20$for$u20$alloc..vec..Vec$LT$T$GT$$GT$9to_object17h9f2667b9bba96b34E', symObjAddr: 0x680, symBinAddr: 0xA438, symSize: 0x28 }
  - { offset: 0x596A9, size: 0x8, addend: 0x0, symName: '__ZN5alloc3vec12Vec$LT$T$GT$3new17h4ba5cfb03e23ef97E', symObjAddr: 0x6A8, symBinAddr: 0xA460, symSize: 0x14 }
  - { offset: 0x596ED, size: 0x8, addend: 0x0, symName: '__ZN5alloc3vec12Vec$LT$T$GT$3new17he8ccb33a431fe05dE', symObjAddr: 0x6BC, symBinAddr: 0xA474, symSize: 0x14 }
  - { offset: 0x598DA, size: 0x8, addend: 0x0, symName: '__ZN5alloc3vec16Vec$LT$T$C$A$GT$14extend_trusted17h46abe8dad1ae18a4E', symObjAddr: 0x6D0, symBinAddr: 0xA488, symSize: 0x124 }
  - { offset: 0x59AF4, size: 0x8, addend: 0x0, symName: '__ZN5alloc3vec16Vec$LT$T$C$A$GT$14extend_trusted17h5ba66abedcfe0609E', symObjAddr: 0x7F4, symBinAddr: 0xA5AC, symSize: 0x124 }
  - { offset: 0x59D1B, size: 0x8, addend: 0x0, symName: '__ZN5alloc3vec16Vec$LT$T$C$A$GT$14extend_trusted17ha03bdebce49d8b85E', symObjAddr: 0x918, symBinAddr: 0xA6D0, symSize: 0x124 }
  - { offset: 0x59F0E, size: 0x8, addend: 0x0, symName: '__ZN5alloc3vec16Vec$LT$T$C$A$GT$14extend_trusted17hfd8ffbfb8f51bd20E', symObjAddr: 0xA3C, symBinAddr: 0xA7F4, symSize: 0x124 }
  - { offset: 0x5A0C6, size: 0x8, addend: 0x0, symName: '__ZN5alloc3vec16Vec$LT$T$C$A$GT$4push17h33dfada605db25d7E', symObjAddr: 0xC48, symBinAddr: 0xAA00, symSize: 0x30 }
  - { offset: 0x5A117, size: 0x8, addend: 0x0, symName: '__ZN5alloc3vec16Vec$LT$T$C$A$GT$4push17h54fe743c9ddf9c14E', symObjAddr: 0xC78, symBinAddr: 0xAA30, symSize: 0x2C }
  - { offset: 0x5A28B, size: 0x8, addend: 0x0, symName: '__ZN5alloc3vec16Vec$LT$T$C$A$GT$7reserve17h0fc8e17a72b949f4E', symObjAddr: 0xCA4, symBinAddr: 0xAA5C, symSize: 0xA8 }
  - { offset: 0x5A4EF, size: 0x8, addend: 0x0, symName: '__ZN5alloc3vec16Vec$LT$T$C$A$GT$7reserve17h571de2559f70abd1E', symObjAddr: 0xD4C, symBinAddr: 0xAB04, symSize: 0xA0 }
  - { offset: 0x5A753, size: 0x8, addend: 0x0, symName: '__ZN5alloc3vec16Vec$LT$T$C$A$GT$7reserve17hac3a395bc46eb4d2E', symObjAddr: 0xDEC, symBinAddr: 0xABA4, symSize: 0xA0 }
  - { offset: 0x5A945, size: 0x8, addend: 0x0, symName: '__ZN5alloc3vec16Vec$LT$T$C$A$GT$8as_slice17h06b1badfe54be3a0E', symObjAddr: 0xE8C, symBinAddr: 0xAC44, symSize: 0x20 }
  - { offset: 0x5AA70, size: 0x8, addend: 0x0, symName: '__ZN5alloc3vec16Vec$LT$T$C$A$GT$8as_slice17h327eb8e74eab45bfE', symObjAddr: 0xEAC, symBinAddr: 0xAC64, symSize: 0x20 }
  - { offset: 0x5ABA8, size: 0x8, addend: 0x0, symName: '__ZN5alloc3vec16Vec$LT$T$C$A$GT$8as_slice17h8d445c6bed64e079E', symObjAddr: 0xECC, symBinAddr: 0xAC84, symSize: 0x20 }
  - { offset: 0x5AD07, size: 0x8, addend: 0x0, symName: '__ZN5alloc3vec16Vec$LT$T$C$A$GT$8as_slice17hc15f87c25d4d4da0E', symObjAddr: 0xEEC, symBinAddr: 0xACA4, symSize: 0x20 }
  - { offset: 0x5AEAF, size: 0x8, addend: 0x0, symName: '__ZN5alloc3vec16Vec$LT$T$C$A$GT$8push_mut17h3e31672861eda0efE', symObjAddr: 0xF0C, symBinAddr: 0xACC4, symSize: 0xE0 }
  - { offset: 0x5B11F, size: 0x8, addend: 0x0, symName: '__ZN5alloc3vec16Vec$LT$T$C$A$GT$8push_mut17h3ecaca705c1959c5E', symObjAddr: 0xFEC, symBinAddr: 0xADA4, symSize: 0xD8 }
  - { offset: 0x5B530, size: 0x8, addend: 0x0, symName: __ZN11kinodb_core6reader9KdbReader4open17h6039ccb91e19aff3E, symObjAddr: 0x0, symBinAddr: 0xB1D0, symSize: 0x310 }
  - { offset: 0x5BFE3, size: 0x8, addend: 0x0, symName: __ZN11kinodb_core6reader9KdbReader4open17h6039ccb91e19aff3E, symObjAddr: 0x0, symBinAddr: 0xB1D0, symSize: 0x310 }
  - { offset: 0x5C10A, size: 0x8, addend: 0x0, symName: '__ZN4pyo311conversions3std6string80_$LT$impl$u20$pyo3..conversion..ToPyObject$u20$for$u20$alloc..string..String$GT$9to_object17hbe85e1697149ac9eE', symObjAddr: 0x0, symBinAddr: 0xB4E0, symSize: 0x34 }
  - { offset: 0x5D51C, size: 0x8, addend: 0x0, symName: '__ZN4pyo311conversions3std6string80_$LT$impl$u20$pyo3..conversion..ToPyObject$u20$for$u20$alloc..string..String$GT$9to_object17hbe85e1697149ac9eE', symObjAddr: 0x0, symBinAddr: 0xB4E0, symSize: 0x34 }
  - { offset: 0x5D939, size: 0x8, addend: 0x0, symName: '__ZN65_$LT$alloc..string..String$u20$as$u20$core..ops..deref..Deref$GT$5deref17h56ac2c6d5aeb5cb1E', symObjAddr: 0x110, symBinAddr: 0xB5F0, symSize: 0x20 }
  - { offset: 0x5DB50, size: 0x8, addend: 0x0, symName: __ZN5alloc6string6String8push_str17hfec68ccc3c1a741aE, symObjAddr: 0x34, symBinAddr: 0xB514, symSize: 0xDC }
  - { offset: 0x5E3B9, size: 0x8, addend: 0x0, symName: __ZN3std5panic12catch_unwind17h0c913a5956c77feaE, symObjAddr: 0x0, symBinAddr: 0xB610, symSize: 0x10C }
  - { offset: 0x60C04, size: 0x8, addend: 0x0, symName: __ZN3std5panic12catch_unwind17h0c913a5956c77feaE, symObjAddr: 0x0, symBinAddr: 0xB610, symSize: 0x10C }
  - { offset: 0x60D60, size: 0x8, addend: 0x0, symName: __ZN3std5panic12catch_unwind17h1a11d33c6976e567E, symObjAddr: 0x10C, symBinAddr: 0xB71C, symSize: 0xCC }
  - { offset: 0x60E85, size: 0x8, addend: 0x0, symName: __ZN3std5panic12catch_unwind17h5fcc86528c24b1e8E, symObjAddr: 0x1D8, symBinAddr: 0xB7E8, symSize: 0xDC }
  - { offset: 0x60FAA, size: 0x8, addend: 0x0, symName: __ZN3std5panic12catch_unwind17hc4b61279289670b5E, symObjAddr: 0x2B4, symBinAddr: 0xB8C4, symSize: 0xDC }
  - { offset: 0x610CF, size: 0x8, addend: 0x0, symName: __ZN3std5panic12catch_unwind17he47c7d29d0fe3e5dE, symObjAddr: 0x390, symBinAddr: 0xB9A0, symSize: 0xDC }
  - { offset: 0x611F4, size: 0x8, addend: 0x0, symName: __ZN3std5panic12catch_unwind17hf22b80eb170fc523E, symObjAddr: 0x46C, symBinAddr: 0xBA7C, symSize: 0xDC }
  - { offset: 0x6155E, size: 0x8, addend: 0x0, symName: __ZN4pyo33err5PyErr3new17h133078ef2602b275E, symObjAddr: 0x0, symBinAddr: 0xBBAC, symSize: 0xA0 }
  - { offset: 0x615C6, size: 0x8, addend: 0x0, symName: '__ZN4pyo33err5PyErr3new28_$u7b$$u7b$closure$u7d$$u7d$17h0b3c86c5b7fb0068E', symObjAddr: 0x1AC, symBinAddr: 0xBD58, symSize: 0xD4 }
  - { offset: 0x6161F, size: 0x8, addend: 0x0, symName: '__ZN4pyo33err5PyErr3new28_$u7b$$u7b$closure$u7d$$u7d$17h4e072e45bd3453bbE', symObjAddr: 0x280, symBinAddr: 0xBE2C, symSize: 0xB0 }
  - { offset: 0x61677, size: 0x8, addend: 0x0, symName: '__ZN4pyo33err5PyErr3new28_$u7b$$u7b$closure$u7d$$u7d$17hff1ffc3b3a088053E', symObjAddr: 0x330, symBinAddr: 0xBEDC, symSize: 0xD4 }
  - { offset: 0x626CF, size: 0x8, addend: 0x0, symName: '__ZN50_$LT$T$u20$as$u20$core..convert..Into$LT$U$GT$$GT$4into17hb7c2c6974ef45659E', symObjAddr: 0x404, symBinAddr: 0xBFB0, symSize: 0x14 }
  - { offset: 0x62700, size: 0x8, addend: 0x0, symName: '__ZN50_$LT$T$u20$as$u20$core..convert..Into$LT$U$GT$$GT$4into17hb7c2c6974ef45659E', symObjAddr: 0x404, symBinAddr: 0xBFB0, symSize: 0x14 }
  - { offset: 0x6330F, size: 0x8, addend: 0x0, symName: __ZN4pyo33err5PyErr3new17h133078ef2602b275E, symObjAddr: 0x0, symBinAddr: 0xBBAC, symSize: 0xA0 }
  - { offset: 0x6336E, size: 0x8, addend: 0x0, symName: __ZN4pyo33err5PyErr3new17h465b42cc68e39f94E, symObjAddr: 0xA0, symBinAddr: 0xBC4C, symSize: 0xA0 }
  - { offset: 0x633CD, size: 0x8, addend: 0x0, symName: __ZN4pyo33err5PyErr3new17hcb9a641dfca2ef22E, symObjAddr: 0x140, symBinAddr: 0xBCEC, symSize: 0x6C }
  - { offset: 0x6346B, size: 0x8, addend: 0x0, symName: __ZN8pyo3_ffi7cpython10listobject15PyList_SET_ITEM17hd58625e5bee3ca47E, symObjAddr: 0x0, symBinAddr: 0xBFC4, symSize: 0x110 }
  - { offset: 0x64364, size: 0x8, addend: 0x0, symName: __ZN8pyo3_ffi7cpython10listobject15PyList_SET_ITEM17hd58625e5bee3ca47E, symObjAddr: 0x0, symBinAddr: 0xBFC4, symSize: 0x110 }
  - { offset: 0x64923, size: 0x8, addend: 0x0, symName: '__ZN104_$LT$T$u20$as$u20$pyo3..callback..IntoPyCallbackOutput$LT$$BP$mut$u20$pyo3_ffi..object..PyObject$GT$$GT$7convert17h9704d581e2977a41E', symObjAddr: 0x0, symBinAddr: 0xC0D4, symSize: 0x48 }
  - { offset: 0x65C9F, size: 0x8, addend: 0x0, symName: '__ZN104_$LT$T$u20$as$u20$pyo3..callback..IntoPyCallbackOutput$LT$$BP$mut$u20$pyo3_ffi..object..PyObject$GT$$GT$7convert17h9704d581e2977a41E', symObjAddr: 0x0, symBinAddr: 0xC0D4, symSize: 0x48 }
  - { offset: 0x65CFA, size: 0x8, addend: 0x0, symName: '__ZN54_$LT$$RF$T$u20$as$u20$pyo3..conversion..ToPyObject$GT$9to_object17he6e5cbd4eecc904dE', symObjAddr: 0x48, symBinAddr: 0xC11C, symSize: 0x28 }
  - { offset: 0x65D5D, size: 0x8, addend: 0x0, symName: '__ZN56_$LT$T$u20$as$u20$pyo3..impl_..wrap..OkWrap$LT$T$GT$$GT$4wrap17h8ea6af3d7a120c6dE', symObjAddr: 0x70, symBinAddr: 0xC144, symSize: 0x18 }
  - { offset: 0x665F7, size: 0x8, addend: 0x0, symName: '__ZN103_$LT$alloc..vec..into_iter..IntoIter$LT$T$C$A$GT$$u20$as$u20$core..iter..traits..iterator..Iterator$GT$4next17hc02fcb1d21f2f831E', symObjAddr: 0x0, symBinAddr: 0xC15C, symSize: 0x94 }
  - { offset: 0x67CC7, size: 0x8, addend: 0x0, symName: __ZN4core4iter6traits10exact_size17ExactSizeIterator3len17hf3fc497a6457bd78E, symObjAddr: 0x2F8, symBinAddr: 0xC454, symSize: 0xB8 }
  - { offset: 0x67E31, size: 0x8, addend: 0x0, symName: __ZN4core4iter6traits8iterator8Iterator3map17h351ba2076552c41fE, symObjAddr: 0x3B0, symBinAddr: 0xC50C, symSize: 0x28 }
  - { offset: 0x68069, size: 0x8, addend: 0x0, symName: '__ZN103_$LT$alloc..vec..into_iter..IntoIter$LT$T$C$A$GT$$u20$as$u20$core..iter..traits..iterator..Iterator$GT$4next17hc02fcb1d21f2f831E', symObjAddr: 0x0, symBinAddr: 0xC15C, symSize: 0x94 }
  - { offset: 0x681C3, size: 0x8, addend: 0x0, symName: '__ZN103_$LT$alloc..vec..into_iter..IntoIter$LT$T$C$A$GT$$u20$as$u20$core..iter..traits..iterator..Iterator$GT$8try_fold17h3857429243e1ec9bE', symObjAddr: 0x94, symBinAddr: 0xC1F0, symSize: 0x174 }
  - { offset: 0x6839A, size: 0x8, addend: 0x0, symName: '__ZN103_$LT$alloc..vec..into_iter..IntoIter$LT$T$C$A$GT$$u20$as$u20$core..iter..traits..iterator..Iterator$GT$9size_hint17h15945968b21ef4a2E', symObjAddr: 0x208, symBinAddr: 0xC364, symSize: 0xB4 }
  - { offset: 0x684B9, size: 0x8, addend: 0x0, symName: '__ZN114_$LT$alloc..vec..into_iter..IntoIter$LT$T$C$A$GT$$u20$as$u20$core..iter..traits..exact_size..ExactSizeIterator$GT$8is_empty17h0d518f91ef724d16E', symObjAddr: 0x2BC, symBinAddr: 0xC418, symSize: 0x3C }
  - { offset: 0x68842, size: 0x8, addend: 0x0, symName: '__ZN5alloc3vec9into_iter21IntoIter$LT$T$C$A$GT$16as_raw_mut_slice17h4092438062d94706E', symObjAddr: 0x3D8, symBinAddr: 0xC534, symSize: 0xCC }
  - { offset: 0x68DA5, size: 0x8, addend: 0x0, symName: '__ZN4core3num23_$LT$impl$u20$usize$GT$13unchecked_add18precondition_check17h2792b0f663ee1a70E', symObjAddr: 0x0, symBinAddr: 0xC600, symSize: 0x64 }
  - { offset: 0x68DF0, size: 0x8, addend: 0x0, symName: '__ZN4core3num23_$LT$impl$u20$usize$GT$13unchecked_add18precondition_check17h2792b0f663ee1a70E', symObjAddr: 0x0, symBinAddr: 0xC600, symSize: 0x64 }
  - { offset: 0x68EE5, size: 0x8, addend: 0x0, symName: '__ZN6kinodb156_$LT$impl$u20$pyo3..impl_..pyclass..PyMethods$LT$kinodb..PyDatabase$GT$$u20$for$u20$pyo3..impl_..pyclass..PyClassImplCollector$LT$kinodb..PyDatabase$GT$$GT$10py_methods17h42fab4d9e7b3781eE', symObjAddr: 0x0, symBinAddr: 0xC664, symSize: 0x14 }
  - { offset: 0x6A339, size: 0x8, addend: 0x0, symName: '__ZN6kinodb156_$LT$impl$u20$pyo3..impl_..pyclass..PyMethods$LT$kinodb..PyDatabase$GT$$u20$for$u20$pyo3..impl_..pyclass..PyClassImplCollector$LT$kinodb..PyDatabase$GT$$GT$10py_methods17h42fab4d9e7b3781eE', symObjAddr: 0x0, symBinAddr: 0xC664, symSize: 0x14 }
  - { offset: 0x6B17C, size: 0x8, addend: 0x0, symName: '__ZN4pyo36pycell14PyRef$LT$T$GT$10try_borrow17h12a708837ec12d72E', symObjAddr: 0x0, symBinAddr: 0xC678, symSize: 0x4C }
  - { offset: 0x6C614, size: 0x8, addend: 0x0, symName: '__ZN50_$LT$T$u20$as$u20$core..convert..Into$LT$U$GT$$GT$4into17h8ca195343e06d905E', symObjAddr: 0x70, symBinAddr: 0xC6E8, symSize: 0x1C }
  - { offset: 0x6C76A, size: 0x8, addend: 0x0, symName: '__ZN4pyo36pycell14PyRef$LT$T$GT$10try_borrow28_$u7b$$u7b$closure$u7d$$u7d$17h6d3dbff47fe68e71E', symObjAddr: 0x4C, symBinAddr: 0xC6C4, symSize: 0x24 }
  - { offset: 0x6C7B5, size: 0x8, addend: 0x0, symName: '__ZN72_$LT$pyo3..pycell..PyRef$LT$T$GT$$u20$as$u20$core..ops..deref..Deref$GT$5deref17heb8f2cda6a61279aE', symObjAddr: 0xC0, symBinAddr: 0xC738, symSize: 0x74 }
  - { offset: 0x6CADC, size: 0x8, addend: 0x0, symName: '__ZN57_$LT$T$u20$as$u20$pyo3..conversion..FromPyObjectBound$GT$20from_py_object_bound17he7e52df4e8193c0bE', symObjAddr: 0x8C, symBinAddr: 0xC704, symSize: 0x34 }
  - { offset: 0x6CB19, size: 0x8, addend: 0x0, symName: '__ZN79_$LT$pyo3..pycell..PyRef$LT$T$GT$$u20$as$u20$pyo3..conversion..FromPyObject$GT$13extract_bound17hfc6046c2d7520ad1E', symObjAddr: 0x134, symBinAddr: 0xC7AC, symSize: 0xA4 }
  - { offset: 0x6D4AA, size: 0x8, addend: 0x0, symName: '__ZN4pyo36pycell14PyRef$LT$T$GT$10try_borrow17h12a708837ec12d72E', symObjAddr: 0x0, symBinAddr: 0xC678, symSize: 0x4C }
  - { offset: 0x6D5C9, size: 0x8, addend: 0x0, symName: '__ZN4core3ptr8non_null16NonNull$LT$T$GT$13new_unchecked18precondition_check17h062e4f7fcb98cf3aE', symObjAddr: 0x0, symBinAddr: 0xC850, symSize: 0x58 }
  - { offset: 0x6D5EF, size: 0x8, addend: 0x0, symName: '__ZN4core3ptr8non_null16NonNull$LT$T$GT$13new_unchecked18precondition_check17h062e4f7fcb98cf3aE', symObjAddr: 0x0, symBinAddr: 0xC850, symSize: 0x58 }
  - { offset: 0x6D6A0, size: 0x8, addend: 0x0, symName: '__ZN120_$LT$kinodb..PyDatabase$u20$as$u20$pyo3..conversion..IntoPy$LT$pyo3..instance..Py$LT$pyo3..types..any..PyAny$GT$$GT$$GT$7into_py17he60110e459e03a78E', symObjAddr: 0x0, symBinAddr: 0xC8A8, symSize: 0xD0 }
  - { offset: 0x70483, size: 0x8, addend: 0x0, symName: '__ZN6kinodb156_$LT$impl$u20$pyo3..impl_..pyclass..PyMethods$LT$kinodb..PyDatabase$GT$$u20$for$u20$pyo3..impl_..pyclass..PyClassImplCollector$LT$kinodb..PyDatabase$GT$$GT$10py_methods5ITEMS17h1c03404ebe4f99e3E', symObjAddr: 0x34E8, symBinAddr: 0xDD1B0, symSize: 0x0 }
  - { offset: 0x70495, size: 0x8, addend: 0x0, symName: '__ZN6kinodb156_$LT$impl$u20$pyo3..impl_..pyclass..PyMethods$LT$kinodb..PyDatabase$GT$$u20$for$u20$pyo3..impl_..pyclass..PyClassImplCollector$LT$kinodb..PyDatabase$GT$$GT$10py_methods5ITEMS10trampoline17h09f26c3037a19f13E', symObjAddr: 0x1E94, symBinAddr: 0xE73C, symSize: 0x50 }
  - { offset: 0x704EB, size: 0x8, addend: 0x0, symName: '__ZN6kinodb156_$LT$impl$u20$pyo3..impl_..pyclass..PyMethods$LT$kinodb..PyDatabase$GT$$u20$for$u20$pyo3..impl_..pyclass..PyClassImplCollector$LT$kinodb..PyDatabase$GT$$GT$10py_methods5ITEMS10trampoline17h178f74c7c757275aE', symObjAddr: 0x1EE4, symBinAddr: 0xE78C, symSize: 0x3C }
  - { offset: 0x70517, size: 0x8, addend: 0x0, symName: '__ZN6kinodb156_$LT$impl$u20$pyo3..impl_..pyclass..PyMethods$LT$kinodb..PyDatabase$GT$$u20$for$u20$pyo3..impl_..pyclass..PyClassImplCollector$LT$kinodb..PyDatabase$GT$$GT$10py_methods5ITEMS10trampoline17h2a974a1580fc37ddE', symObjAddr: 0x1F20, symBinAddr: 0xE7C8, symSize: 0x50 }
  - { offset: 0x7056D, size: 0x8, addend: 0x0, symName: '__ZN6kinodb156_$LT$impl$u20$pyo3..impl_..pyclass..PyMethods$LT$kinodb..PyDatabase$GT$$u20$for$u20$pyo3..impl_..pyclass..PyClassImplCollector$LT$kinodb..PyDatabase$GT$$GT$10py_methods5ITEMS10trampoline17h2f887b3335e9a886E', symObjAddr: 0x1F70, symBinAddr: 0xE818, symSize: 0x44 }
  - { offset: 0x705A7, size: 0x8, addend: 0x0, symName: '__ZN6kinodb156_$LT$impl$u20$pyo3..impl_..pyclass..PyMethods$LT$kinodb..PyDatabase$GT$$u20$for$u20$pyo3..impl_..pyclass..PyClassImplCollector$LT$kinodb..PyDatabase$GT$$GT$10py_methods5ITEMS10trampoline17h3d874a9363234133E', symObjAddr: 0x1FB4, symBinAddr: 0xE85C, symSize: 0x3C }
  - { offset: 0x705D3, size: 0x8, addend: 0x0, symName: '__ZN6kinodb156_$LT$impl$u20$pyo3..impl_..pyclass..PyMethods$LT$kinodb..PyDatabase$GT$$u20$for$u20$pyo3..impl_..pyclass..PyClassImplCollector$LT$kinodb..PyDatabase$GT$$GT$10py_methods5ITEMS10trampoline17h6ebb873502294da1E', symObjAddr: 0x1FF0, symBinAddr: 0xE898, symSize: 0x50 }
  - { offset: 0x70629, size: 0x8, addend: 0x0, symName: '__ZN6kinodb156_$LT$impl$u20$pyo3..impl_..pyclass..PyMethods$LT$kinodb..PyDatabase$GT$$u20$for$u20$pyo3..impl_..pyclass..PyClassImplCollector$LT$kinodb..PyDatabase$GT$$GT$10py_methods5ITEMS10trampoline17h8300b4f5ff88cd50E', symObjAddr: 0x2040, symBinAddr: 0xE8E8, symSize: 0x44 }
  - { offset: 0x70663, size: 0x8, addend: 0x0, symName: '__ZN6kinodb156_$LT$impl$u20$pyo3..impl_..pyclass..PyMethods$LT$kinodb..PyDatabase$GT$$u20$for$u20$pyo3..impl_..pyclass..PyClassImplCollector$LT$kinodb..PyDatabase$GT$$GT$10py_methods5ITEMS10trampoline17h957381d824477d9fE', symObjAddr: 0x2084, symBinAddr: 0xE92C, symSize: 0x44 }
  - { offset: 0x7069D, size: 0x8, addend: 0x0, symName: '__ZN6kinodb156_$LT$impl$u20$pyo3..impl_..pyclass..PyMethods$LT$kinodb..PyDatabase$GT$$u20$for$u20$pyo3..impl_..pyclass..PyClassImplCollector$LT$kinodb..PyDatabase$GT$$GT$10py_methods5ITEMS10trampoline17h9ea1f35ddb16b4fdE', symObjAddr: 0x20C8, symBinAddr: 0xE970, symSize: 0x44 }
  - { offset: 0x706D7, size: 0x8, addend: 0x0, symName: '__ZN6kinodb156_$LT$impl$u20$pyo3..impl_..pyclass..PyMethods$LT$kinodb..PyDatabase$GT$$u20$for$u20$pyo3..impl_..pyclass..PyClassImplCollector$LT$kinodb..PyDatabase$GT$$GT$10py_methods5ITEMS10trampoline17hcf3160383e0f27f6E', symObjAddr: 0x210C, symBinAddr: 0xE9B4, symSize: 0x44 }
  - { offset: 0x7072B, size: 0x8, addend: 0x0, symName: '__ZN72_$LT$kinodb..PyDatabase$u20$as$u20$pyo3..impl_..pyclass..PyClassImpl$GT$10items_iter15INTRINSIC_ITEMS17h2744936cf4ad0790E', symObjAddr: 0x36C0, symBinAddr: 0x91740, symSize: 0x0 }
  - { offset: 0x7074B, size: 0x8, addend: 0x0, symName: '__ZN72_$LT$kinodb..PyDatabase$u20$as$u20$pyo3..impl_..pyclass..PyClassImpl$GT$16lazy_type_object11TYPE_OBJECT17h59e1a6b6d5a3b5d7E', symObjAddr: 0x36F8, symBinAddr: 0xE4428, symSize: 0x0 }
  - { offset: 0x7076B, size: 0x8, addend: 0x0, symName: '__ZN72_$LT$kinodb..PyDatabase$u20$as$u20$pyo3..impl_..pyclass..PyClassImpl$GT$3doc3DOC17h348925a337f8b46dE', symObjAddr: 0x3740, symBinAddr: 0xE4470, symSize: 0x0 }
  - { offset: 0x70779, size: 0x8, addend: 0x0, symName: '__ZN72_$LT$kinodb..PyDatabase$u20$as$u20$pyo3..impl_..pyclass..PyClassImpl$GT$10items_iter17haec8fcbcadb05383E', symObjAddr: 0x27E0, symBinAddr: 0xF088, symSize: 0x38 }
  - { offset: 0x707B4, size: 0x8, addend: 0x0, symName: '__ZN72_$LT$kinodb..PyDatabase$u20$as$u20$pyo3..impl_..pyclass..PyClassImpl$GT$16lazy_type_object17h6bdac02a8750ebdaE', symObjAddr: 0x2818, symBinAddr: 0xF0C0, symSize: 0xC }
  - { offset: 0x707D1, size: 0x8, addend: 0x0, symName: '__ZN72_$LT$kinodb..PyDatabase$u20$as$u20$pyo3..impl_..pyclass..PyClassImpl$GT$3doc17hb22a1e7a942c6bbeE', symObjAddr: 0x2824, symBinAddr: 0xF0CC, symSize: 0x3C }
  - { offset: 0x70A41, size: 0x8, addend: 0x0, symName: '__ZN120_$LT$kinodb..PyDatabase$u20$as$u20$pyo3..conversion..IntoPy$LT$pyo3..instance..Py$LT$pyo3..types..any..PyAny$GT$$GT$$GT$7into_py17he60110e459e03a78E', symObjAddr: 0x0, symBinAddr: 0xC8A8, symSize: 0xD0 }
  - { offset: 0x70AC7, size: 0x8, addend: 0x0, symName: '__ZN68_$LT$kinodb..PyDatabase$u20$as$u20$pyo3..type_object..PyTypeInfo$GT$15type_object_raw17h553a5d4f8925ec64E', symObjAddr: 0xD0, symBinAddr: 0xC978, symSize: 0x24 }
  - { offset: 0x70AFF, size: 0x8, addend: 0x0, symName: __ZN6kinodb17__pyfunction_open17h4131be69baa3a743E, symObjAddr: 0x2150, symBinAddr: 0xE9F8, symSize: 0x258 }
  - { offset: 0x70C7A, size: 0x8, addend: 0x0, symName: '__ZN6kinodb39_$LT$impl$u20$kinodb..open..MakeDef$GT$9_PYO3_DEF10trampoline17h52103f26e251a742E', symObjAddr: 0x23A8, symBinAddr: 0xEC50, symSize: 0x50 }
  - { offset: 0x70CDC, size: 0x8, addend: 0x0, symName: '__ZN6kinodb41_$LT$impl$u20$kinodb..kinodb..MakeDef$GT$8make_def15__pyo3_pymodule17h328d526e1f59dd55E', symObjAddr: 0x23F8, symBinAddr: 0xECA0, symSize: 0x38 }
  - { offset: 0x70D0A, size: 0x8, addend: 0x0, symName: __ZN6kinodb4open17h01372c70f30eb44fE, symObjAddr: 0x2430, symBinAddr: 0xECD8, symSize: 0x1B0 }
  - { offset: 0x70D91, size: 0x8, addend: 0x0, symName: __ZN6kinodb6kinodb17h366ae2ca7831aa2aE, symObjAddr: 0x25E0, symBinAddr: 0xEE88, symSize: 0x200 }
  - { offset: 0x71758, size: 0x8, addend: 0x0, symName: __ZN6kinodb10PyDatabase10num_frames17h9c8ecf56078d11b1E, symObjAddr: 0xF4, symBinAddr: 0xC99C, symSize: 0x24 }
  - { offset: 0x7177A, size: 0x8, addend: 0x0, symName: __ZN6kinodb10PyDatabase12num_episodes17h3806ba9d67e3fef1E, symObjAddr: 0x118, symBinAddr: 0xC9C0, symSize: 0x24 }
  - { offset: 0x7179C, size: 0x8, addend: 0x0, symName: __ZN6kinodb10PyDatabase12read_episode17he89880c4710f1eacE, symObjAddr: 0x13C, symBinAddr: 0xC9E4, symSize: 0x16C }
  - { offset: 0x71827, size: 0x8, addend: 0x0, symName: __ZN6kinodb10PyDatabase17__pymethod_path__17he5f555881eeb1058E, symObjAddr: 0x2A8, symBinAddr: 0xCB50, symSize: 0x1C8 }
  - { offset: 0x71916, size: 0x8, addend: 0x0, symName: __ZN6kinodb10PyDatabase18__pymethod_query__17h5624983ce2518393E, symObjAddr: 0x470, symBinAddr: 0xCD18, symSize: 0x398 }
  - { offset: 0x71AB7, size: 0x8, addend: 0x0, symName: __ZN6kinodb10PyDatabase20__pymethod___len____17h9ea920a473e682f7E, symObjAddr: 0x808, symBinAddr: 0xD0B0, symSize: 0x11C }
  - { offset: 0x71B70, size: 0x8, addend: 0x0, symName: __ZN6kinodb10PyDatabase20__pymethod_summary__17h22f56ab74194af94E, symObjAddr: 0x924, symBinAddr: 0xD1CC, symSize: 0x20C }
  - { offset: 0x71C4F, size: 0x8, addend: 0x0, symName: __ZN6kinodb10PyDatabase20__pymethod_version__17h1afcc8c72a127e7bE, symObjAddr: 0xB30, symBinAddr: 0xD3D8, symSize: 0x20C }
  - { offset: 0x71D2E, size: 0x8, addend: 0x0, symName: __ZN6kinodb10PyDatabase21__pymethod___repr____17h43c5f806e31e43cbE, symObjAddr: 0xD3C, symBinAddr: 0xD5E4, symSize: 0x178 }
  - { offset: 0x71DE7, size: 0x8, addend: 0x0, symName: __ZN6kinodb10PyDatabase22__pymethod_read_meta__17hc260cc0417a99cfeE, symObjAddr: 0xEB4, symBinAddr: 0xD75C, symSize: 0x388 }
  - { offset: 0x71F88, size: 0x8, addend: 0x0, symName: __ZN6kinodb10PyDatabase23__pymethod_num_frames__17h7da111384aa5e7b8E, symObjAddr: 0x123C, symBinAddr: 0xDAE4, symSize: 0x1B0 }
  - { offset: 0x72077, size: 0x8, addend: 0x0, symName: __ZN6kinodb10PyDatabase25__pymethod_num_episodes__17h96a6ff901f1823ffE, symObjAddr: 0x13EC, symBinAddr: 0xDC94, symSize: 0x1B0 }
  - { offset: 0x72166, size: 0x8, addend: 0x0, symName: __ZN6kinodb10PyDatabase25__pymethod_read_episode__17h7a6c881bb5ab8bafE, symObjAddr: 0x159C, symBinAddr: 0xDE44, symSize: 0x388 }
  - { offset: 0x72307, size: 0x8, addend: 0x0, symName: __ZN6kinodb10PyDatabase4path17h8cbd964c3100a2dfE, symObjAddr: 0x1924, symBinAddr: 0xE1CC, symSize: 0x24 }
  - { offset: 0x72329, size: 0x8, addend: 0x0, symName: __ZN6kinodb10PyDatabase5query17h64a9822ac062a4c4E, symObjAddr: 0x1948, symBinAddr: 0xE1F0, symSize: 0x48 }
  - { offset: 0x72359, size: 0x8, addend: 0x0, symName: __ZN6kinodb10PyDatabase7__len__17h6e3ad01a60faa175E, symObjAddr: 0x1990, symBinAddr: 0xE238, symSize: 0x24 }
  - { offset: 0x7237B, size: 0x8, addend: 0x0, symName: __ZN6kinodb10PyDatabase7summary17hd292d3070ed26914E, symObjAddr: 0x19B4, symBinAddr: 0xE25C, symSize: 0x208 }
  - { offset: 0x72489, size: 0x8, addend: 0x0, symName: __ZN6kinodb10PyDatabase7version17hf351d70195a8e475E, symObjAddr: 0x1BBC, symBinAddr: 0xE464, symSize: 0x9C }
  - { offset: 0x7251F, size: 0x8, addend: 0x0, symName: __ZN6kinodb10PyDatabase8__repr__17h7d072cbcb5068e4bE, symObjAddr: 0x1C58, symBinAddr: 0xE500, symSize: 0xD8 }
  - { offset: 0x72599, size: 0x8, addend: 0x0, symName: __ZN6kinodb10PyDatabase9read_meta17hc253ba906a3c4755E, symObjAddr: 0x1D30, symBinAddr: 0xE5D8, symSize: 0x164 }
  - { offset: 0x728E6, size: 0x8, addend: 0x0, symName: __ZN4pyo311type_object10PyTypeInfo17type_object_bound17h2c880d68f1256745E, symObjAddr: 0x0, symBinAddr: 0xF108, symSize: 0x30 }
  - { offset: 0x739AF, size: 0x8, addend: 0x0, symName: __ZN4pyo311type_object10PyTypeInfo17type_object_bound17h2c880d68f1256745E, symObjAddr: 0x0, symBinAddr: 0xF108, symSize: 0x30 }
  - { offset: 0x73A05, size: 0x8, addend: 0x0, symName: '__ZN73_$LT$pyo3..types..any..PyAny$u20$as$u20$pyo3..type_object..PyTypeInfo$GT$15type_object_raw28_$u7b$$u7b$closure$u7d$$u7d$17hd85824e0826eb651E', symObjAddr: 0x30, symBinAddr: 0xF138, symSize: 0x18 }
  - { offset: 0x74002, size: 0x8, addend: 0x0, symName: __ZN4pyo37pyclass18create_type_object18create_type_object17hb5a12112ffc5e177E, symObjAddr: 0x0, symBinAddr: 0xF150, symSize: 0x168 }
  - { offset: 0x754A2, size: 0x8, addend: 0x0, symName: __ZN4pyo37pyclass18create_type_object18create_type_object17hb5a12112ffc5e177E, symObjAddr: 0x0, symBinAddr: 0xF150, symSize: 0x168 }
  - { offset: 0x760DD, size: 0x8, addend: 0x0, symName: '__ZN55_$LT$$RF$T$u20$as$u20$core..convert..AsRef$LT$U$GT$$GT$6as_ref17h921360b22f8033bfE', symObjAddr: 0x1C, symBinAddr: 0xF2B8, symSize: 0x30 }
  - { offset: 0x7623A, size: 0x8, addend: 0x0, symName: __ZN4core3fmt9Arguments3new17h412d56cc3b8e8052E, symObjAddr: 0x0, symBinAddr: 0xF2E8, symSize: 0x1C }
  - { offset: 0x765D3, size: 0x8, addend: 0x0, symName: __ZN4core3fmt9Arguments3new17h412d56cc3b8e8052E, symObjAddr: 0x0, symBinAddr: 0xF2E8, symSize: 0x1C }
  - { offset: 0x76639, size: 0x8, addend: 0x0, symName: __ZN4core3fmt9Arguments3new17h5013bf43dbe43dcdE, symObjAddr: 0x1C, symBinAddr: 0xF304, symSize: 0x1C }
  - { offset: 0x7669F, size: 0x8, addend: 0x0, symName: __ZN4core3fmt9Arguments3new17h5f7ec0ffeb8e8a07E, symObjAddr: 0x38, symBinAddr: 0xF320, symSize: 0x1C }
  - { offset: 0x76705, size: 0x8, addend: 0x0, symName: __ZN4core3fmt9Arguments3new17ha1bf3de6de693027E, symObjAddr: 0x54, symBinAddr: 0xF33C, symSize: 0x1C }
  - { offset: 0x76755, size: 0x8, addend: 0x0, symName: __ZN4pyo35impl_12deprecations12inspect_type17h2385309d7ae2d2f6E, symObjAddr: 0x0, symBinAddr: 0xF358, symSize: 0x18 }
  - { offset: 0x778F9, size: 0x8, addend: 0x0, symName: __ZN4pyo35impl_12deprecations12inspect_type17h2385309d7ae2d2f6E, symObjAddr: 0x0, symBinAddr: 0xF358, symSize: 0x18 }
  - { offset: 0x77938, size: 0x8, addend: 0x0, symName: __ZN4pyo35impl_12deprecations12inspect_type17h2f9c2887ec47896aE, symObjAddr: 0x18, symBinAddr: 0xF370, symSize: 0x1C }
  - { offset: 0x77977, size: 0x8, addend: 0x0, symName: __ZN4pyo35impl_12deprecations12inspect_type17h773457a97b9d412aE, symObjAddr: 0x34, symBinAddr: 0xF38C, symSize: 0x18 }
  - { offset: 0x779B6, size: 0x8, addend: 0x0, symName: __ZN4pyo35impl_12deprecations12inspect_type17h8d3b1a5ba16af02bE, symObjAddr: 0x4C, symBinAddr: 0xF3A4, symSize: 0x14 }
  - { offset: 0x77C38, size: 0x8, addend: 0x0, symName: '__ZN87_$LT$pyo3..impl_..deprecations..GilRefs$LT$T$GT$$u20$as$u20$core..ops..deref..Deref$GT$5deref17h067f2959e43ca70bE', symObjAddr: 0xC0, symBinAddr: 0xF418, symSize: 0x14 }
  - { offset: 0x77C6D, size: 0x8, addend: 0x0, symName: '__ZN87_$LT$pyo3..impl_..deprecations..GilRefs$LT$T$GT$$u20$as$u20$core..ops..deref..Deref$GT$5deref17h11cfe6ab30a301fbE', symObjAddr: 0xD4, symBinAddr: 0xF42C, symSize: 0x14 }
  - { offset: 0x77CA2, size: 0x8, addend: 0x0, symName: '__ZN87_$LT$pyo3..impl_..deprecations..GilRefs$LT$T$GT$$u20$as$u20$core..ops..deref..Deref$GT$5deref17h5e629c013cc80004E', symObjAddr: 0xE8, symBinAddr: 0xF440, symSize: 0x14 }
  - { offset: 0x77CD7, size: 0x8, addend: 0x0, symName: '__ZN87_$LT$pyo3..impl_..deprecations..GilRefs$LT$T$GT$$u20$as$u20$core..ops..deref..Deref$GT$5deref17h6cdbd733e06800b6E', symObjAddr: 0xFC, symBinAddr: 0xF454, symSize: 0x14 }
  - { offset: 0x77D12, size: 0x8, addend: 0x0, symName: '__ZN93_$LT$pyo3..impl_..deprecations..OptionGilRefs$LT$T$GT$$u20$as$u20$core..ops..deref..Deref$GT$5deref17h1d5f9820d39e954cE', symObjAddr: 0x110, symBinAddr: 0xF468, symSize: 0x14 }
  - { offset: 0x77D47, size: 0x8, addend: 0x0, symName: '__ZN93_$LT$pyo3..impl_..deprecations..OptionGilRefs$LT$T$GT$$u20$as$u20$core..ops..deref..Deref$GT$5deref17h2e3bda1bb6bea21dE', symObjAddr: 0x124, symBinAddr: 0xF47C, symSize: 0x14 }
  - { offset: 0x77D7C, size: 0x8, addend: 0x0, symName: '__ZN93_$LT$pyo3..impl_..deprecations..OptionGilRefs$LT$T$GT$$u20$as$u20$core..ops..deref..Deref$GT$5deref17h59b946b58a608a94E', symObjAddr: 0x138, symBinAddr: 0xF490, symSize: 0x14 }
  - { offset: 0x77DB1, size: 0x8, addend: 0x0, symName: '__ZN93_$LT$pyo3..impl_..deprecations..OptionGilRefs$LT$T$GT$$u20$as$u20$core..ops..deref..Deref$GT$5deref17h7dc3b8460a432013E', symObjAddr: 0x14C, symBinAddr: 0xF4A4, symSize: 0x14 }
  - { offset: 0x781F0, size: 0x8, addend: 0x0, symName: '__ZN4pyo35impl_12deprecations16GilRefs$LT$T$GT$3new17h0b13f9b9216f44c8E', symObjAddr: 0x60, symBinAddr: 0xF3B8, symSize: 0x4 }
  - { offset: 0x7820D, size: 0x8, addend: 0x0, symName: '__ZN4pyo35impl_12deprecations16GilRefs$LT$T$GT$3new17h3fca78791d3a2f97E', symObjAddr: 0x64, symBinAddr: 0xF3BC, symSize: 0x4 }
  - { offset: 0x78690, size: 0x8, addend: 0x0, symName: '__ZN4pyo35impl_12deprecations16GilRefs$LT$T$GT$3new17h78da1d940d88a63cE', symObjAddr: 0x68, symBinAddr: 0xF3C0, symSize: 0x4 }
  - { offset: 0x786D4, size: 0x8, addend: 0x0, symName: '__ZN4pyo35impl_12deprecations16GilRefs$LT$T$GT$3new17h82215a04d5d6b930E', symObjAddr: 0x6C, symBinAddr: 0xF3C4, symSize: 0x4 }
  - { offset: 0x786FE, size: 0x8, addend: 0x0, symName: '__ZN4pyo35impl_12deprecations19NotAGilRef$LT$T$GT$12function_arg17h33da9cfa43ac33c7E', symObjAddr: 0x70, symBinAddr: 0xF3C8, symSize: 0x10 }
  - { offset: 0x78736, size: 0x8, addend: 0x0, symName: '__ZN4pyo35impl_12deprecations19NotAGilRef$LT$T$GT$12function_arg17h6a06e6656209af5fE', symObjAddr: 0x80, symBinAddr: 0xF3D8, symSize: 0x10 }
  - { offset: 0x7876E, size: 0x8, addend: 0x0, symName: '__ZN4pyo35impl_12deprecations19NotAGilRef$LT$T$GT$12function_arg17hd6886189421a0400E', symObjAddr: 0x90, symBinAddr: 0xF3E8, symSize: 0x10 }
  - { offset: 0x787A6, size: 0x8, addend: 0x0, symName: '__ZN4pyo35impl_12deprecations19NotAGilRef$LT$T$GT$12function_arg17he44d6d9ae2939e56E', symObjAddr: 0xA0, symBinAddr: 0xF3F8, symSize: 0x10 }
  - { offset: 0x787D1, size: 0x8, addend: 0x0, symName: '__ZN4pyo35impl_12deprecations19NotAGilRef$LT$T$GT$9is_python17hc80ce0499582b535E', symObjAddr: 0xB0, symBinAddr: 0xF408, symSize: 0x10 }
  - { offset: 0x78882, size: 0x8, addend: 0x0, symName: '__ZN103_$LT$pyo3..instance..Bound$LT$pyo3..types..any..PyAny$GT$$u20$as$u20$pyo3..types..any..PyAnyMethods$GT$18downcast_unchecked17h2c6e954403b6d32eE', symObjAddr: 0x0, symBinAddr: 0xF4B8, symSize: 0x74 }
  - { offset: 0x78963, size: 0x8, addend: 0x0, symName: '__ZN4core5slice29_$LT$impl$u20$$u5b$T$u5d$$GT$4iter17h34866694ce4e4082E', symObjAddr: 0x13DC, symBinAddr: 0x10894, symSize: 0x28 }
  - { offset: 0x7899A, size: 0x8, addend: 0x0, symName: '__ZN4core5slice29_$LT$impl$u20$$u5b$T$u5d$$GT$4iter17h9d3969a1dbf776c9E', symObjAddr: 0x1404, symBinAddr: 0x108BC, symSize: 0x28 }
  - { offset: 0x79D93, size: 0x8, addend: 0x0, symName: '__ZN50_$LT$T$u20$as$u20$core..convert..Into$LT$U$GT$$GT$4into17hd2ae4ba870170786E', symObjAddr: 0x1A14, symBinAddr: 0x10ECC, symSize: 0x24 }
  - { offset: 0x79DD3, size: 0x8, addend: 0x0, symName: '__ZN50_$LT$T$u20$as$u20$core..convert..Into$LT$U$GT$$GT$4into17hdcae0ab1c44c6acbE', symObjAddr: 0x1A38, symBinAddr: 0x10EF0, symSize: 0x24 }
  - { offset: 0x79EA6, size: 0x8, addend: 0x0, symName: '__ZN127_$LT$pyo3..instance..Py$LT$pyo3..types..any..PyAny$GT$$u20$as$u20$core..convert..From$LT$pyo3..instance..Bound$LT$T$GT$$GT$$GT$4from17h0cef7c5ac2f2ac7eE', symObjAddr: 0x1288, symBinAddr: 0x10740, symSize: 0x84 }
  - { offset: 0x79EFB, size: 0x8, addend: 0x0, symName: '__ZN127_$LT$pyo3..instance..Py$LT$pyo3..types..any..PyAny$GT$$u20$as$u20$core..convert..From$LT$pyo3..instance..Bound$LT$T$GT$$GT$$GT$4from17h9f627bd0385f0ebeE', symObjAddr: 0x130C, symBinAddr: 0x107C4, symSize: 0x84 }
  - { offset: 0x79F56, size: 0x8, addend: 0x0, symName: '__ZN129_$LT$pyo3..instance..Py$LT$T$GT$$u20$as$u20$pyo3..conversion..IntoPy$LT$pyo3..instance..Py$LT$pyo3..types..any..PyAny$GT$$GT$$GT$7into_py17hdbe63b607c6b7548E', symObjAddr: 0x1390, symBinAddr: 0x10848, symSize: 0x24 }
  - { offset: 0x79FAE, size: 0x8, addend: 0x0, symName: '__ZN132_$LT$pyo3..instance..Bound$LT$T$GT$$u20$as$u20$pyo3..conversion..IntoPy$LT$pyo3..instance..Py$LT$pyo3..types..any..PyAny$GT$$GT$$GT$7into_py17h53d0ecd15bf76030E', symObjAddr: 0x13B4, symBinAddr: 0x1086C, symSize: 0x28 }
  - { offset: 0x7A1F8, size: 0x8, addend: 0x0, symName: '__ZN4pyo38instance11Py$LT$T$GT$24from_borrowed_ptr_or_opt28_$u7b$$u7b$closure$u7d$$u7d$17h9ba146899868a92bE', symObjAddr: 0x15D0, symBinAddr: 0x10A88, symSize: 0xF4 }
  - { offset: 0x7A331, size: 0x8, addend: 0x0, symName: '__ZN4pyo38instance39Borrowed$LT$pyo3..types..any..PyAny$GT$15from_ptr_or_opt28_$u7b$$u7b$closure$u7d$$u7d$17ha07fd8cee286cb0fE', symObjAddr: 0x19B8, symBinAddr: 0x10E70, symSize: 0x20 }
  - { offset: 0x7A48D, size: 0x8, addend: 0x0, symName: '__ZN69_$LT$pyo3..instance..Bound$LT$T$GT$$u20$as$u20$core..clone..Clone$GT$5clone17hd83e5fd8f76c3888E', symObjAddr: 0x1A5C, symBinAddr: 0x10F14, symSize: 0x34 }
  - { offset: 0x7A4CA, size: 0x8, addend: 0x0, symName: '__ZN79_$LT$pyo3..instance..Bound$LT$T$GT$$u20$as$u20$pyo3..conversion..ToPyObject$GT$9to_object17h1040c02e805b7468E', symObjAddr: 0x1A90, symBinAddr: 0x10F48, symSize: 0x28 }
  - { offset: 0x7A51C, size: 0x8, addend: 0x0, symName: '__ZN79_$LT$pyo3..instance..Bound$LT$T$GT$$u20$as$u20$pyo3..conversion..ToPyObject$GT$9to_object17hf043902956090ac1E', symObjAddr: 0x1AB8, symBinAddr: 0x10F70, symSize: 0x28 }
  - { offset: 0x7A6E4, size: 0x8, addend: 0x0, symName: '__ZN103_$LT$pyo3..instance..Bound$LT$pyo3..types..any..PyAny$GT$$u20$as$u20$pyo3..types..any..PyAnyMethods$GT$18downcast_unchecked17h2c6e954403b6d32eE', symObjAddr: 0x0, symBinAddr: 0xF4B8, symSize: 0x74 }
  - { offset: 0x7A71B, size: 0x8, addend: 0x0, symName: '__ZN103_$LT$pyo3..instance..Bound$LT$pyo3..types..any..PyAny$GT$$u20$as$u20$pyo3..types..any..PyAnyMethods$GT$23downcast_into_unchecked17h201474913aa147c5E', symObjAddr: 0x74, symBinAddr: 0xF52C, symSize: 0x14 }
  - { offset: 0x7A752, size: 0x8, addend: 0x0, symName: '__ZN103_$LT$pyo3..instance..Bound$LT$pyo3..types..any..PyAny$GT$$u20$as$u20$pyo3..types..any..PyAnyMethods$GT$7extract17h7c90b594476d22b1E', symObjAddr: 0x88, symBinAddr: 0xF540, symSize: 0x30 }
  - { offset: 0x7A789, size: 0x8, addend: 0x0, symName: '__ZN103_$LT$pyo3..instance..Bound$LT$pyo3..types..any..PyAny$GT$$u20$as$u20$pyo3..types..any..PyAnyMethods$GT$7extract17hf50936d32e41b55aE', symObjAddr: 0xB8, symBinAddr: 0xF570, symSize: 0x30 }
  - { offset: 0x7A7C0, size: 0x8, addend: 0x0, symName: '__ZN103_$LT$pyo3..instance..Bound$LT$pyo3..types..any..PyAny$GT$$u20$as$u20$pyo3..types..any..PyAnyMethods$GT$8downcast17h852fbd882bf4db50E', symObjAddr: 0xE8, symBinAddr: 0xF5A0, symSize: 0x84 }
  - { offset: 0x7A803, size: 0x8, addend: 0x0, symName: '__ZN107_$LT$pyo3..instance..Bound$LT$pyo3..types..dict..PyDict$GT$$u20$as$u20$pyo3..types..dict..PyDictMethods$GT$8set_item17h42cdad7f3242c537E', symObjAddr: 0x16C, symBinAddr: 0xF624, symSize: 0xFC }
  - { offset: 0x7A877, size: 0x8, addend: 0x0, symName: '__ZN107_$LT$pyo3..instance..Bound$LT$pyo3..types..dict..PyDict$GT$$u20$as$u20$pyo3..types..dict..PyDictMethods$GT$8set_item17h4919091944de4cc3E', symObjAddr: 0x268, symBinAddr: 0xF720, symSize: 0x11C }
  - { offset: 0x7A8EB, size: 0x8, addend: 0x0, symName: '__ZN107_$LT$pyo3..instance..Bound$LT$pyo3..types..dict..PyDict$GT$$u20$as$u20$pyo3..types..dict..PyDictMethods$GT$8set_item17h4a1b779e6f90062bE', symObjAddr: 0x384, symBinAddr: 0xF83C, symSize: 0x11C }
  - { offset: 0x7A95F, size: 0x8, addend: 0x0, symName: '__ZN107_$LT$pyo3..instance..Bound$LT$pyo3..types..dict..PyDict$GT$$u20$as$u20$pyo3..types..dict..PyDictMethods$GT$8set_item17h4d4a1bb9051d7d5aE', symObjAddr: 0x4A0, symBinAddr: 0xF958, symSize: 0x11C }
  - { offset: 0x7A9D5, size: 0x8, addend: 0x0, symName: '__ZN107_$LT$pyo3..instance..Bound$LT$pyo3..types..dict..PyDict$GT$$u20$as$u20$pyo3..types..dict..PyDictMethods$GT$8set_item17h5e24f203c2a6d401E', symObjAddr: 0x5BC, symBinAddr: 0xFA74, symSize: 0xFC }
  - { offset: 0x7AA49, size: 0x8, addend: 0x0, symName: '__ZN107_$LT$pyo3..instance..Bound$LT$pyo3..types..dict..PyDict$GT$$u20$as$u20$pyo3..types..dict..PyDictMethods$GT$8set_item17h69c61ea965398391E', symObjAddr: 0x6B8, symBinAddr: 0xFB70, symSize: 0x11C }
  - { offset: 0x7AABF, size: 0x8, addend: 0x0, symName: '__ZN107_$LT$pyo3..instance..Bound$LT$pyo3..types..dict..PyDict$GT$$u20$as$u20$pyo3..types..dict..PyDictMethods$GT$8set_item17h7338dcc86d09365aE', symObjAddr: 0x7D4, symBinAddr: 0xFC8C, symSize: 0xFC }
  - { offset: 0x7AB33, size: 0x8, addend: 0x0, symName: '__ZN107_$LT$pyo3..instance..Bound$LT$pyo3..types..dict..PyDict$GT$$u20$as$u20$pyo3..types..dict..PyDictMethods$GT$8set_item17h75e43f3dd1ff23ddE', symObjAddr: 0x8D0, symBinAddr: 0xFD88, symSize: 0xFC }
  - { offset: 0x7ABA7, size: 0x8, addend: 0x0, symName: '__ZN107_$LT$pyo3..instance..Bound$LT$pyo3..types..dict..PyDict$GT$$u20$as$u20$pyo3..types..dict..PyDictMethods$GT$8set_item17h75fccf4c3473d2f8E', symObjAddr: 0x9CC, symBinAddr: 0xFE84, symSize: 0x11C }
  - { offset: 0x7AC1D, size: 0x8, addend: 0x0, symName: '__ZN107_$LT$pyo3..instance..Bound$LT$pyo3..types..dict..PyDict$GT$$u20$as$u20$pyo3..types..dict..PyDictMethods$GT$8set_item17h96532395f2545917E', symObjAddr: 0xAE8, symBinAddr: 0xFFA0, symSize: 0xFC }
  - { offset: 0x7AC91, size: 0x8, addend: 0x0, symName: '__ZN107_$LT$pyo3..instance..Bound$LT$pyo3..types..dict..PyDict$GT$$u20$as$u20$pyo3..types..dict..PyDictMethods$GT$8set_item17hc44dfb6e75cb40baE', symObjAddr: 0xBE4, symBinAddr: 0x1009C, symSize: 0x100 }
  - { offset: 0x7AD05, size: 0x8, addend: 0x0, symName: '__ZN107_$LT$pyo3..instance..Bound$LT$pyo3..types..dict..PyDict$GT$$u20$as$u20$pyo3..types..dict..PyDictMethods$GT$8set_item17hc49be3059d1a8175E', symObjAddr: 0xCE4, symBinAddr: 0x1019C, symSize: 0xFC }
  - { offset: 0x7AD79, size: 0x8, addend: 0x0, symName: '__ZN107_$LT$pyo3..instance..Bound$LT$pyo3..types..dict..PyDict$GT$$u20$as$u20$pyo3..types..dict..PyDictMethods$GT$8set_item17hf2a368e8b283b570E', symObjAddr: 0xDE0, symBinAddr: 0x10298, symSize: 0xFC }
  - { offset: 0x7ADED, size: 0x8, addend: 0x0, symName: '__ZN107_$LT$pyo3..instance..Bound$LT$pyo3..types..dict..PyDict$GT$$u20$as$u20$pyo3..types..dict..PyDictMethods$GT$8set_item17hfc4434acd0116948E', symObjAddr: 0xEDC, symBinAddr: 0x10394, symSize: 0x11C }
  - { offset: 0x7AE84, size: 0x8, addend: 0x0, symName: '__ZN107_$LT$pyo3..instance..Bound$LT$pyo3..types..list..PyList$GT$$u20$as$u20$pyo3..types..list..PyListMethods$GT$6append17h937b522a8036f56eE', symObjAddr: 0xFF8, symBinAddr: 0x104B0, symSize: 0x98 }
  - { offset: 0x7AF09, size: 0x8, addend: 0x0, symName: '__ZN115_$LT$pyo3..instance..Bound$LT$pyo3..types..module..PyModule$GT$$u20$as$u20$pyo3..types..module..PyModuleMethods$GT$3add17h2a5869b0cd22c2e0E', symObjAddr: 0x1090, symBinAddr: 0x10548, symSize: 0x140 }
  - { offset: 0x7AF7D, size: 0x8, addend: 0x0, symName: '__ZN115_$LT$pyo3..instance..Bound$LT$pyo3..types..module..PyModule$GT$$u20$as$u20$pyo3..types..module..PyModuleMethods$GT$9add_class17h03b79bc22fe3a75cE', symObjAddr: 0x11D0, symBinAddr: 0x10688, symSize: 0xB8 }
  - { offset: 0x7B0A2, size: 0x8, addend: 0x0, symName: '__ZN4pyo311conversions3std3vec70_$LT$impl$u20$pyo3..conversion..ToPyObject$u20$for$u20$$u5b$T$u5d$$GT$9to_object17h663d1ddadc9b1592E', symObjAddr: 0x142C, symBinAddr: 0x108E4, symSize: 0x64 }
  - { offset: 0x7B1C7, size: 0x8, addend: 0x0, symName: '__ZN4pyo35impl_9pymethods133_$LT$impl$u20$core..convert..From$LT$pyo3..impl_..pymethods..BoundRef$LT$T$GT$$GT$$u20$for$u20$$RF$pyo3..instance..Bound$LT$T$GT$$GT$4from17hae8b85d8dc441f90E', symObjAddr: 0x1490, symBinAddr: 0x10948, symSize: 0x14 }
  - { offset: 0x7C553, size: 0x8, addend: 0x0, symName: '__ZN4pyo38instance11Py$LT$T$GT$10into_bound17h99c9486951001ec6E', symObjAddr: 0x14A4, symBinAddr: 0x1095C, symSize: 0x1C }
  - { offset: 0x7C59A, size: 0x8, addend: 0x0, symName: '__ZN4pyo38instance11Py$LT$T$GT$13from_non_null17h065d71171a362929E', symObjAddr: 0x14C0, symBinAddr: 0x10978, symSize: 0x14 }
  - { offset: 0x7C5E0, size: 0x8, addend: 0x0, symName: '__ZN4pyo38instance11Py$LT$T$GT$16get_class_object17hb270e683be150765E', symObjAddr: 0x14D4, symBinAddr: 0x1098C, symSize: 0x78 }
  - { offset: 0x7C674, size: 0x8, addend: 0x0, symName: '__ZN4pyo38instance11Py$LT$T$GT$17from_borrowed_ptr17h9e28954fd145acdcE', symObjAddr: 0x154C, symBinAddr: 0x10A04, symSize: 0x50 }
  - { offset: 0x7C6BB, size: 0x8, addend: 0x0, symName: '__ZN4pyo38instance11Py$LT$T$GT$24from_borrowed_ptr_or_opt17h7037f63471e2632dE', symObjAddr: 0x159C, symBinAddr: 0x10A54, symSize: 0x34 }
  - { offset: 0x7C751, size: 0x8, addend: 0x0, symName: '__ZN4pyo38instance11Py$LT$T$GT$3new17hbaaae59534906439E', symObjAddr: 0x16C4, symBinAddr: 0x10B7C, symSize: 0x50 }
  - { offset: 0x7C7A4, size: 0x8, addend: 0x0, symName: '__ZN4pyo38instance11Py$LT$T$GT$6as_ptr17h1c80787f07e5ba83E', symObjAddr: 0x1714, symBinAddr: 0x10BCC, symSize: 0x1C }
  - { offset: 0x7C7D0, size: 0x8, addend: 0x0, symName: '__ZN4pyo38instance11Py$LT$T$GT$8into_any17h83b4a6074b2ea4eeE', symObjAddr: 0x1730, symBinAddr: 0x10BE8, symSize: 0x3C }
  - { offset: 0x7C7FC, size: 0x8, addend: 0x0, symName: '__ZN4pyo38instance11Py$LT$T$GT$8into_ptr17h5c1ebee8588b1dc4E', symObjAddr: 0x176C, symBinAddr: 0x10C24, symSize: 0x30 }
  - { offset: 0x7C828, size: 0x8, addend: 0x0, symName: '__ZN4pyo38instance11Py$LT$T$GT$9clone_ref17h164bcb239862beecE', symObjAddr: 0x179C, symBinAddr: 0x10C54, symSize: 0xF8 }
  - { offset: 0x7C89A, size: 0x8, addend: 0x0, symName: '__ZN4pyo38instance14Bound$LT$T$GT$10try_borrow17h40cde8cd310f2ff0E', symObjAddr: 0x1894, symBinAddr: 0x10D4C, symSize: 0x24 }
  - { offset: 0x7C8C6, size: 0x8, addend: 0x0, symName: '__ZN4pyo38instance14Bound$LT$T$GT$16get_class_object17h5f025dfa6460944eE', symObjAddr: 0x18B8, symBinAddr: 0x10D70, symSize: 0x2C }
  - { offset: 0x7C8F2, size: 0x8, addend: 0x0, symName: '__ZN4pyo38instance14Bound$LT$T$GT$3new17h65020b6e0e586518E', symObjAddr: 0x18E4, symBinAddr: 0x10D9C, symSize: 0x60 }
  - { offset: 0x7C942, size: 0x8, addend: 0x0, symName: '__ZN4pyo38instance14Bound$LT$T$GT$6as_ptr17hb5364f3de6931bb6E', symObjAddr: 0x1944, symBinAddr: 0x10DFC, symSize: 0x2C }
  - { offset: 0x7C96E, size: 0x8, addend: 0x0, symName: '__ZN4pyo38instance14Bound$LT$T$GT$6unbind17hc0c1fa3d3476fb81E', symObjAddr: 0x1970, symBinAddr: 0x10E28, symSize: 0x48 }
  - { offset: 0x7C9C5, size: 0x8, addend: 0x0, symName: '__ZN4pyo38instance39Borrowed$LT$pyo3..types..any..PyAny$GT$18downcast_unchecked17h3e7e19a8076e405dE', symObjAddr: 0x19D8, symBinAddr: 0x10E90, symSize: 0x14 }
  - { offset: 0x7C9FE, size: 0x8, addend: 0x0, symName: '__ZN4pyo38internal8get_slot78_$LT$impl$u20$pyo3..instance..Bound$LT$pyo3..types..typeobject..PyType$GT$$GT$8get_slot17h5f036ad36bc6bc75E', symObjAddr: 0x19EC, symBinAddr: 0x10EA4, symSize: 0x28 }
  - { offset: 0x7CB28, size: 0x8, addend: 0x0, symName: __ZN4pyo35impl_10trampoline11module_init17h8986b8d25901c3f9E, symObjAddr: 0x0, symBinAddr: 0x10F98, symSize: 0x28 }
  - { offset: 0x7DEB2, size: 0x8, addend: 0x0, symName: __ZN4pyo35impl_10trampoline11module_init17h8986b8d25901c3f9E, symObjAddr: 0x0, symBinAddr: 0x10F98, symSize: 0x28 }
  - { offset: 0x7DEDE, size: 0x8, addend: 0x0, symName: __ZN4pyo35impl_10trampoline22fastcall_with_keywords17h2d9e29a69df99eb9E, symObjAddr: 0x28, symBinAddr: 0x10FC0, symSize: 0x5C }
  - { offset: 0x7DF42, size: 0x8, addend: 0x0, symName: __ZN4pyo35impl_10trampoline6noargs17h4005c257f58d01b9E, symObjAddr: 0x84, symBinAddr: 0x1101C, symSize: 0x64 }
  - { offset: 0x7DF8A, size: 0x8, addend: 0x0, symName: __ZN4pyo35impl_10trampoline7dealloc17h4471044b6cefc977E, symObjAddr: 0xE8, symBinAddr: 0x11080, symSize: 0x34 }
  - { offset: 0x7DFC0, size: 0x8, addend: 0x0, symName: __ZN4pyo35impl_10trampoline7lenfunc17h555745b05d756d5cE, symObjAddr: 0x11C, symBinAddr: 0x110B4, symSize: 0x30 }
  - { offset: 0x7DFFA, size: 0x8, addend: 0x0, symName: __ZN4pyo35impl_10trampoline8reprfunc17h694ba8ff6650e674E, symObjAddr: 0x14C, symBinAddr: 0x110E4, symSize: 0x30 }
  - { offset: 0x7E876, size: 0x8, addend: 0x0, symName: __ZN3std9panicking12catch_unwind7do_call17h0bf9e55def00c50bE, symObjAddr: 0x0, symBinAddr: 0x11114, symSize: 0x8C }
  - { offset: 0x80ACB, size: 0x8, addend: 0x0, symName: __ZN3std9panicking12catch_unwind7do_call17h0bf9e55def00c50bE, symObjAddr: 0x0, symBinAddr: 0x11114, symSize: 0x8C }
  - { offset: 0x80BC6, size: 0x8, addend: 0x0, symName: __ZN3std9panicking12catch_unwind7do_call17h0c09e3d38f621917E, symObjAddr: 0x8C, symBinAddr: 0x111A0, symSize: 0x8C }
  - { offset: 0x80CC1, size: 0x8, addend: 0x0, symName: __ZN3std9panicking12catch_unwind7do_call17h1f49e6948ecf42fdE, symObjAddr: 0x118, symBinAddr: 0x1122C, symSize: 0x80 }
  - { offset: 0x80DBC, size: 0x8, addend: 0x0, symName: __ZN3std9panicking12catch_unwind7do_call17h36557db25af228baE, symObjAddr: 0x198, symBinAddr: 0x112AC, symSize: 0x8C }
  - { offset: 0x80EB7, size: 0x8, addend: 0x0, symName: __ZN3std9panicking12catch_unwind7do_call17h88afa6c65d09f6f9E, symObjAddr: 0x224, symBinAddr: 0x11338, symSize: 0x8C }
  - { offset: 0x80FB2, size: 0x8, addend: 0x0, symName: __ZN3std9panicking12catch_unwind7do_call17h8e5d6ab38c17a080E, symObjAddr: 0x2B0, symBinAddr: 0x113C4, symSize: 0x88 }
  - { offset: 0x810AD, size: 0x8, addend: 0x0, symName: __ZN3std9panicking12catch_unwind8do_catch17h198b03520056c03eE, symObjAddr: 0x338, symBinAddr: 0x1144C, symSize: 0x70 }
  - { offset: 0x81142, size: 0x8, addend: 0x0, symName: __ZN3std9panicking12catch_unwind8do_catch17h412861c06d37bd47E, symObjAddr: 0x3A8, symBinAddr: 0x114BC, symSize: 0x70 }
  - { offset: 0x811D7, size: 0x8, addend: 0x0, symName: __ZN3std9panicking12catch_unwind8do_catch17h7443046c2ce91a73E, symObjAddr: 0x418, symBinAddr: 0x1152C, symSize: 0x70 }
  - { offset: 0x8126C, size: 0x8, addend: 0x0, symName: __ZN3std9panicking12catch_unwind8do_catch17h84b6b33c0182d740E, symObjAddr: 0x488, symBinAddr: 0x1159C, symSize: 0x70 }
  - { offset: 0x81301, size: 0x8, addend: 0x0, symName: __ZN3std9panicking12catch_unwind8do_catch17h959c6d281403eff3E, symObjAddr: 0x4F8, symBinAddr: 0x1160C, symSize: 0x70 }
  - { offset: 0x81396, size: 0x8, addend: 0x0, symName: __ZN3std9panicking12catch_unwind8do_catch17hf7b141dbb5b24e3cE, symObjAddr: 0x568, symBinAddr: 0x1167C, symSize: 0x70 }
  - { offset: 0x818A2, size: 0x8, addend: 0x0, symName: '__ZN114_$LT$pyo3..pyclass_init..PyNativeTypeInitializer$LT$T$GT$$u20$as$u20$pyo3..pyclass_init..PyObjectInit$LT$T$GT$$GT$15into_new_object17h6c32037b10fcb590E', symObjAddr: 0x0, symBinAddr: 0x116EC, symSize: 0x3C }
  - { offset: 0x82F38, size: 0x8, addend: 0x0, symName: '__ZN114_$LT$pyo3..pyclass_init..PyNativeTypeInitializer$LT$T$GT$$u20$as$u20$pyo3..pyclass_init..PyObjectInit$LT$T$GT$$GT$15into_new_object17h6c32037b10fcb590E', symObjAddr: 0x0, symBinAddr: 0x116EC, symSize: 0x3C }
  - { offset: 0x82FBC, size: 0x8, addend: 0x0, symName: '__ZN114_$LT$pyo3..pyclass_init..PyNativeTypeInitializer$LT$T$GT$$u20$as$u20$pyo3..pyclass_init..PyObjectInit$LT$T$GT$$GT$17can_be_subclassed17hfc6de1d462ec658dE', symObjAddr: 0x3C, symBinAddr: 0x11728, symSize: 0x18 }
  - { offset: 0x8315C, size: 0x8, addend: 0x0, symName: '__ZN96_$LT$pyo3..pyclass_init..PyClassInitializer$LT$T$GT$$u20$as$u20$core..convert..From$LT$T$GT$$GT$4from17hf9751b94132b813aE', symObjAddr: 0x4F8, symBinAddr: 0x11BE4, symSize: 0x48 }
  - { offset: 0x83CCF, size: 0x8, addend: 0x0, symName: '__ZN4pyo312pyclass_init27PyClassInitializer$LT$T$GT$19create_class_object17h7bd9ab2b46e1e614E', symObjAddr: 0x54, symBinAddr: 0x11740, symSize: 0x98 }
  - { offset: 0x83DA5, size: 0x8, addend: 0x0, symName: '__ZN4pyo312pyclass_init27PyClassInitializer$LT$T$GT$27create_class_object_of_type17h6a768138e43d39c4E', symObjAddr: 0xEC, symBinAddr: 0x117D8, symSize: 0x314 }
  - { offset: 0x83FB0, size: 0x8, addend: 0x0, symName: '__ZN4pyo312pyclass_init27PyClassInitializer$LT$T$GT$3new17hdf3f12e306a9b8edE', symObjAddr: 0x400, symBinAddr: 0x11AEC, symSize: 0xF8 }
  - { offset: 0x8401D, size: 0x8, addend: 0x0, symName: __ZN4pyo33gil8GILGuard6python17h4c9a2e475f618a8cE, symObjAddr: 0x0, symBinAddr: 0x11C2C, symSize: 0x20 }
  - { offset: 0x840CD, size: 0x8, addend: 0x0, symName: __ZN4pyo33gil8GILGuard6python17h4c9a2e475f618a8cE, symObjAddr: 0x0, symBinAddr: 0x11C2C, symSize: 0x20 }
  - { offset: 0x8410D, size: 0x8, addend: 0x0, symName: '__ZN71_$LT$alloc..borrow..Cow$LT$B$GT$$u20$as$u20$core..ops..deref..Deref$GT$5deref17hdacd4866b3bd4e47E', symObjAddr: 0x0, symBinAddr: 0x11C4C, symSize: 0x70 }
  - { offset: 0x84129, size: 0x8, addend: 0x0, symName: '__ZN71_$LT$alloc..borrow..Cow$LT$B$GT$$u20$as$u20$core..ops..deref..Deref$GT$5deref17hdacd4866b3bd4e47E', symObjAddr: 0x0, symBinAddr: 0x11C4C, symSize: 0x70 }
  - { offset: 0x842D9, size: 0x8, addend: 0x0, symName: __ZN4pyo35types4list13new_from_iter17h80be9324ec21a04fE, symObjAddr: 0x0, symBinAddr: 0x11CBC, symSize: 0x2A8 }
  - { offset: 0x85414, size: 0x8, addend: 0x0, symName: __ZN4pyo35types4list13new_from_iter17h80be9324ec21a04fE, symObjAddr: 0x0, symBinAddr: 0x11CBC, symSize: 0x2A8 }
  - { offset: 0x85B40, size: 0x8, addend: 0x0, symName: '__ZN153_$LT$core..result..Result$LT$T$C$F$GT$$u20$as$u20$core..ops..try_trait..FromResidual$LT$core..result..Result$LT$core..convert..Infallible$C$E$GT$$GT$$GT$13from_residual17h029d21d899a5c8abE', symObjAddr: 0x0, symBinAddr: 0x11F64, symSize: 0x58 }
  - { offset: 0x862E3, size: 0x8, addend: 0x0, symName: '__ZN153_$LT$core..result..Result$LT$T$C$F$GT$$u20$as$u20$core..ops..try_trait..FromResidual$LT$core..result..Result$LT$core..convert..Infallible$C$E$GT$$GT$$GT$13from_residual17h029d21d899a5c8abE', symObjAddr: 0x0, symBinAddr: 0x11F64, symSize: 0x58 }
  - { offset: 0x8634B, size: 0x8, addend: 0x0, symName: '__ZN153_$LT$core..result..Result$LT$T$C$F$GT$$u20$as$u20$core..ops..try_trait..FromResidual$LT$core..result..Result$LT$core..convert..Infallible$C$E$GT$$GT$$GT$13from_residual17h3dc6f11f591e17deE', symObjAddr: 0x58, symBinAddr: 0x11FBC, symSize: 0x48 }
  - { offset: 0x863D0, size: 0x8, addend: 0x0, symName: '__ZN153_$LT$core..result..Result$LT$T$C$F$GT$$u20$as$u20$core..ops..try_trait..FromResidual$LT$core..result..Result$LT$core..convert..Infallible$C$E$GT$$GT$$GT$13from_residual17h5bc21b43d6b25800E', symObjAddr: 0xA0, symBinAddr: 0x12004, symSize: 0x48 }
  - { offset: 0x86455, size: 0x8, addend: 0x0, symName: '__ZN153_$LT$core..result..Result$LT$T$C$F$GT$$u20$as$u20$core..ops..try_trait..FromResidual$LT$core..result..Result$LT$core..convert..Infallible$C$E$GT$$GT$$GT$13from_residual17h64b57662130fb3acE', symObjAddr: 0xE8, symBinAddr: 0x1204C, symSize: 0x48 }
  - { offset: 0x864DA, size: 0x8, addend: 0x0, symName: '__ZN153_$LT$core..result..Result$LT$T$C$F$GT$$u20$as$u20$core..ops..try_trait..FromResidual$LT$core..result..Result$LT$core..convert..Infallible$C$E$GT$$GT$$GT$13from_residual17h9b1f4d60529211a7E', symObjAddr: 0x130, symBinAddr: 0x12094, symSize: 0x48 }
  - { offset: 0x8655F, size: 0x8, addend: 0x0, symName: '__ZN153_$LT$core..result..Result$LT$T$C$F$GT$$u20$as$u20$core..ops..try_trait..FromResidual$LT$core..result..Result$LT$core..convert..Infallible$C$E$GT$$GT$$GT$13from_residual17hd55d5b083e825dceE', symObjAddr: 0x178, symBinAddr: 0x120DC, symSize: 0x48 }
  - { offset: 0x865E4, size: 0x8, addend: 0x0, symName: '__ZN153_$LT$core..result..Result$LT$T$C$F$GT$$u20$as$u20$core..ops..try_trait..FromResidual$LT$core..result..Result$LT$core..convert..Infallible$C$E$GT$$GT$$GT$13from_residual17hf2e8ba62f93b5e10E', symObjAddr: 0x1C0, symBinAddr: 0x12124, symSize: 0x48 }
  - { offset: 0x87D17, size: 0x8, addend: 0x0, symName: '__ZN79_$LT$core..result..Result$LT$T$C$E$GT$$u20$as$u20$core..ops..try_trait..Try$GT$6branch17h0125b9963d3f0b17E', symObjAddr: 0x1028, symBinAddr: 0x12F8C, symSize: 0x80 }
  - { offset: 0x87D95, size: 0x8, addend: 0x0, symName: '__ZN79_$LT$core..result..Result$LT$T$C$E$GT$$u20$as$u20$core..ops..try_trait..Try$GT$6branch17h040316119b10b52cE', symObjAddr: 0x10A8, symBinAddr: 0x1300C, symSize: 0x80 }
  - { offset: 0x87E13, size: 0x8, addend: 0x0, symName: '__ZN79_$LT$core..result..Result$LT$T$C$E$GT$$u20$as$u20$core..ops..try_trait..Try$GT$6branch17h2392c66d22775b3aE', symObjAddr: 0x1128, symBinAddr: 0x1308C, symSize: 0x94 }
  - { offset: 0x87E90, size: 0x8, addend: 0x0, symName: '__ZN79_$LT$core..result..Result$LT$T$C$E$GT$$u20$as$u20$core..ops..try_trait..Try$GT$6branch17h5daf6c6ccc7832bdE', symObjAddr: 0x11BC, symBinAddr: 0x13120, symSize: 0x80 }
  - { offset: 0x87F0E, size: 0x8, addend: 0x0, symName: '__ZN79_$LT$core..result..Result$LT$T$C$E$GT$$u20$as$u20$core..ops..try_trait..Try$GT$6branch17h6d33176e402683dcE', symObjAddr: 0x123C, symBinAddr: 0x131A0, symSize: 0x80 }
  - { offset: 0x87F8C, size: 0x8, addend: 0x0, symName: '__ZN79_$LT$core..result..Result$LT$T$C$E$GT$$u20$as$u20$core..ops..try_trait..Try$GT$6branch17h7e7c0d99839240b1E', symObjAddr: 0x12BC, symBinAddr: 0x13220, symSize: 0xBC }
  - { offset: 0x88009, size: 0x8, addend: 0x0, symName: '__ZN79_$LT$core..result..Result$LT$T$C$E$GT$$u20$as$u20$core..ops..try_trait..Try$GT$6branch17h93bef44383b574cfE', symObjAddr: 0x1378, symBinAddr: 0x132DC, symSize: 0x8C }
  - { offset: 0x88087, size: 0x8, addend: 0x0, symName: '__ZN79_$LT$core..result..Result$LT$T$C$E$GT$$u20$as$u20$core..ops..try_trait..Try$GT$6branch17ha6d7a723eb7cd9d4E', symObjAddr: 0x1404, symBinAddr: 0x13368, symSize: 0x88 }
  - { offset: 0x88105, size: 0x8, addend: 0x0, symName: '__ZN79_$LT$core..result..Result$LT$T$C$E$GT$$u20$as$u20$core..ops..try_trait..Try$GT$6branch17had2825b42e6fc523E', symObjAddr: 0x148C, symBinAddr: 0x133F0, symSize: 0xB0 }
  - { offset: 0x88182, size: 0x8, addend: 0x0, symName: '__ZN79_$LT$core..result..Result$LT$T$C$E$GT$$u20$as$u20$core..ops..try_trait..Try$GT$6branch17hb53fbee83a0be5d1E', symObjAddr: 0x153C, symBinAddr: 0x134A0, symSize: 0xB0 }
  - { offset: 0x881FF, size: 0x8, addend: 0x0, symName: '__ZN79_$LT$core..result..Result$LT$T$C$E$GT$$u20$as$u20$core..ops..try_trait..Try$GT$6branch17hd4cbcd941506b906E', symObjAddr: 0x15EC, symBinAddr: 0x13550, symSize: 0x70 }
  - { offset: 0x89F57, size: 0x8, addend: 0x0, symName: '__ZN88_$LT$core..result..Result$LT$T$C$E$GT$$u20$as$u20$pyo3..impl_..wrap..OkWrap$LT$T$GT$$GT$4wrap17h2a30e5d35afc300fE', symObjAddr: 0x165C, symBinAddr: 0x135C0, symSize: 0x30 }
  - { offset: 0x89F96, size: 0x8, addend: 0x0, symName: '__ZN88_$LT$core..result..Result$LT$T$C$E$GT$$u20$as$u20$pyo3..impl_..wrap..OkWrap$LT$T$GT$$GT$4wrap17hd5a8cccff098e745E', symObjAddr: 0x168C, symBinAddr: 0x135F0, symSize: 0x30 }
  - { offset: 0x89FD5, size: 0x8, addend: 0x0, symName: '__ZN88_$LT$core..result..Result$LT$T$C$E$GT$$u20$as$u20$pyo3..impl_..wrap..OkWrap$LT$T$GT$$GT$4wrap17hf5c61c7b14f9368eE', symObjAddr: 0x16BC, symBinAddr: 0x13620, symSize: 0x30 }
  - { offset: 0x8A5FD, size: 0x8, addend: 0x0, symName: '__ZN4core6result19Result$LT$T$C$E$GT$14unwrap_or_else17hc62021cac88b41a5E', symObjAddr: 0x208, symBinAddr: 0x1216C, symSize: 0x70 }
  - { offset: 0x8A6BB, size: 0x8, addend: 0x0, symName: '__ZN4core6result19Result$LT$T$C$E$GT$14unwrap_or_else17hcf5f823a8c6ebbcbE', symObjAddr: 0x278, symBinAddr: 0x121DC, symSize: 0x7C }
  - { offset: 0x8A727, size: 0x8, addend: 0x0, symName: '__ZN4core6result19Result$LT$T$C$E$GT$3map17h134cd89f3d7673f6E', symObjAddr: 0x2F4, symBinAddr: 0x12258, symSize: 0x80 }
  - { offset: 0x8B089, size: 0x8, addend: 0x0, symName: '__ZN4core6result19Result$LT$T$C$E$GT$3map17h1fec882b4bca38b5E', symObjAddr: 0x374, symBinAddr: 0x122D8, symSize: 0xCC }
  - { offset: 0x8B186, size: 0x8, addend: 0x0, symName: '__ZN4core6result19Result$LT$T$C$E$GT$3map17h2087a7eb987de714E', symObjAddr: 0x440, symBinAddr: 0x123A4, symSize: 0x84 }
  - { offset: 0x8B219, size: 0x8, addend: 0x0, symName: '__ZN4core6result19Result$LT$T$C$E$GT$3map17h2a8d02e8b82d1ef0E', symObjAddr: 0x4C4, symBinAddr: 0x12428, symSize: 0x8C }
  - { offset: 0x8B2AC, size: 0x8, addend: 0x0, symName: '__ZN4core6result19Result$LT$T$C$E$GT$3map17h325b7ca5dd0b1d58E', symObjAddr: 0x550, symBinAddr: 0x124B4, symSize: 0x8C }
  - { offset: 0x8B357, size: 0x8, addend: 0x0, symName: '__ZN4core6result19Result$LT$T$C$E$GT$3map17h6c2fc55c4d3fd1cdE', symObjAddr: 0x5DC, symBinAddr: 0x12540, symSize: 0x80 }
  - { offset: 0x8B3F7, size: 0x8, addend: 0x0, symName: '__ZN4core6result19Result$LT$T$C$E$GT$3map17h6ec528c2167e18dfE', symObjAddr: 0x65C, symBinAddr: 0x125C0, symSize: 0x4C }
  - { offset: 0x8B489, size: 0x8, addend: 0x0, symName: '__ZN4core6result19Result$LT$T$C$E$GT$3map17hbaffaf49b4168d7cE', symObjAddr: 0x6A8, symBinAddr: 0x1260C, symSize: 0xA8 }
  - { offset: 0x8B51C, size: 0x8, addend: 0x0, symName: '__ZN4core6result19Result$LT$T$C$E$GT$3map17hbdbdffeb57d03ebdE', symObjAddr: 0x750, symBinAddr: 0x126B4, symSize: 0x94 }
  - { offset: 0x8B5AF, size: 0x8, addend: 0x0, symName: '__ZN4core6result19Result$LT$T$C$E$GT$3map17hc0a0cddaada4738dE', symObjAddr: 0x7E4, symBinAddr: 0x12748, symSize: 0xA8 }
  - { offset: 0x8B642, size: 0x8, addend: 0x0, symName: '__ZN4core6result19Result$LT$T$C$E$GT$3map17hcd24eb2cd28cb8baE', symObjAddr: 0x88C, symBinAddr: 0x127F0, symSize: 0x8C }
  - { offset: 0x8B70E, size: 0x8, addend: 0x0, symName: '__ZN4core6result19Result$LT$T$C$E$GT$6is_err17h67c8ef88ade2b5dbE', symObjAddr: 0x918, symBinAddr: 0x1287C, symSize: 0x20 }
  - { offset: 0x8B779, size: 0x8, addend: 0x0, symName: '__ZN4core6result19Result$LT$T$C$E$GT$7map_err17h3b7e7559586e98b3E', symObjAddr: 0x938, symBinAddr: 0x1289C, symSize: 0x98 }
  - { offset: 0x8B824, size: 0x8, addend: 0x0, symName: '__ZN4core6result19Result$LT$T$C$E$GT$7map_err17h4edaa8547ac58ba4E', symObjAddr: 0x9D0, symBinAddr: 0x12934, symSize: 0x30 }
  - { offset: 0x8B898, size: 0x8, addend: 0x0, symName: '__ZN4core6result19Result$LT$T$C$E$GT$7map_err17h5115bfe3e985f698E', symObjAddr: 0xA00, symBinAddr: 0x12964, symSize: 0x30 }
  - { offset: 0x8B954, size: 0x8, addend: 0x0, symName: '__ZN4core6result19Result$LT$T$C$E$GT$7map_err17h58fabce68ea0c03dE', symObjAddr: 0xA30, symBinAddr: 0x12994, symSize: 0xA8 }
  - { offset: 0x8BA50, size: 0x8, addend: 0x0, symName: '__ZN4core6result19Result$LT$T$C$E$GT$7map_err17h61a9407bf7a84124E', symObjAddr: 0xAD8, symBinAddr: 0x12A3C, symSize: 0xD4 }
  - { offset: 0x8BAE4, size: 0x8, addend: 0x0, symName: '__ZN4core6result19Result$LT$T$C$E$GT$7map_err17h6b7a2a5e7252167cE', symObjAddr: 0xBAC, symBinAddr: 0x12B10, symSize: 0x40 }
  - { offset: 0x8BB59, size: 0x8, addend: 0x0, symName: '__ZN4core6result19Result$LT$T$C$E$GT$7map_err17h79ab47133f3dff41E', symObjAddr: 0xBEC, symBinAddr: 0x12B50, symSize: 0xAC }
  - { offset: 0x8BBEC, size: 0x8, addend: 0x0, symName: '__ZN4core6result19Result$LT$T$C$E$GT$7map_err17h9e35920c039bcc66E', symObjAddr: 0xC98, symBinAddr: 0x12BFC, symSize: 0x48 }
  - { offset: 0x8BC62, size: 0x8, addend: 0x0, symName: '__ZN4core6result19Result$LT$T$C$E$GT$7map_err17ha51f6a4d08c43205E', symObjAddr: 0xCE0, symBinAddr: 0x12C44, symSize: 0xD4 }
  - { offset: 0x8BD0E, size: 0x8, addend: 0x0, symName: '__ZN4core6result19Result$LT$T$C$E$GT$7map_err17hbfcb2a31c4a87a0aE', symObjAddr: 0xDB4, symBinAddr: 0x12D18, symSize: 0x78 }
  - { offset: 0x8BDA0, size: 0x8, addend: 0x0, symName: '__ZN4core6result19Result$LT$T$C$E$GT$7map_err17hddbc13789c2e6177E', symObjAddr: 0xE2C, symBinAddr: 0x12D90, symSize: 0x70 }
  - { offset: 0x8BE32, size: 0x8, addend: 0x0, symName: '__ZN4core6result19Result$LT$T$C$E$GT$7map_err17hefe8a3736f7f135bE', symObjAddr: 0xE9C, symBinAddr: 0x12E00, symSize: 0xBC }
  - { offset: 0x8BED3, size: 0x8, addend: 0x0, symName: '__ZN4core6result19Result$LT$T$C$E$GT$7map_err17hf42973feb4354f1eE', symObjAddr: 0xF58, symBinAddr: 0x12EBC, symSize: 0xD0 }
  - { offset: 0x8BFBD, size: 0x8, addend: 0x0, symName: '__ZN102_$LT$pyo3..internal..get_slot..Slot$LT$74_i32$GT$$u20$as$u20$pyo3..internal..get_slot..GetSlotImpl$GT$8get_slot17h89a35dfdc5f9ee25E', symObjAddr: 0x0, symBinAddr: 0x13650, symSize: 0x74 }
  - { offset: 0x8C865, size: 0x8, addend: 0x0, symName: '__ZN102_$LT$pyo3..internal..get_slot..Slot$LT$74_i32$GT$$u20$as$u20$pyo3..internal..get_slot..GetSlotImpl$GT$8get_slot17h89a35dfdc5f9ee25E', symObjAddr: 0x0, symBinAddr: 0x13650, symSize: 0x74 }
  - { offset: 0x8D426, size: 0x8, addend: 0x0, symName: __ZN4core4iter6traits8iterator8Iterator3map17h29472ee1f7411cb3E, symObjAddr: 0x0, symBinAddr: 0x136C4, symSize: 0x1C }
  - { offset: 0x8D46A, size: 0x8, addend: 0x0, symName: __ZN4core4iter6traits8iterator8Iterator3map17h29472ee1f7411cb3E, symObjAddr: 0x0, symBinAddr: 0x136C4, symSize: 0x1C }
  - { offset: 0x8D4C2, size: 0x8, addend: 0x0, symName: __ZN4core4iter6traits8iterator8Iterator3map17h4f1e3200570b7f13E, symObjAddr: 0x1C, symBinAddr: 0x136E0, symSize: 0x30 }
  - { offset: 0x8D52F, size: 0x8, addend: 0x0, symName: __ZN4core4iter6traits8iterator8Iterator3map17h688d04a579be1e1cE, symObjAddr: 0x4C, symBinAddr: 0x13710, symSize: 0x1C }
  - { offset: 0x8D587, size: 0x8, addend: 0x0, symName: __ZN4core4iter6traits8iterator8Iterator3map17h719004d2148933b6E, symObjAddr: 0x68, symBinAddr: 0x1372C, symSize: 0x30 }
  - { offset: 0x8D5F4, size: 0x8, addend: 0x0, symName: __ZN4core4iter6traits8iterator8Iterator3map17h80bb887317c815f4E, symObjAddr: 0x98, symBinAddr: 0x1375C, symSize: 0x1C }
  - { offset: 0x8D64C, size: 0x8, addend: 0x0, symName: __ZN4core4iter6traits8iterator8Iterator3map17hc11ab11ca5d2f558E, symObjAddr: 0xB4, symBinAddr: 0x13778, symSize: 0x1C }
  - { offset: 0x8D6A4, size: 0x8, addend: 0x0, symName: __ZN4core4iter6traits8iterator8Iterator3map17hecc72f3ad8ffd96aE, symObjAddr: 0xD0, symBinAddr: 0x13794, symSize: 0x30 }
  - { offset: 0x8D711, size: 0x8, addend: 0x0, symName: __ZN4core4iter6traits8iterator8Iterator3map17hf1f5ae4f35b58106E, symObjAddr: 0x100, symBinAddr: 0x137C4, symSize: 0x30 }
  - { offset: 0x8D77E, size: 0x8, addend: 0x0, symName: __ZN4core4iter6traits8iterator8Iterator6copied17he94aacf8523472f4E, symObjAddr: 0x130, symBinAddr: 0x137F4, symSize: 0x1C }
  - { offset: 0x8D7BE, size: 0x8, addend: 0x0, symName: __ZN4core4iter6traits8iterator8Iterator8try_fold17h932d95e9279e6685E, symObjAddr: 0x14C, symBinAddr: 0x13810, symSize: 0x154 }
  - { offset: 0x8D872, size: 0x8, addend: 0x0, symName: __ZN4core4iter6traits8iterator8Iterator8try_fold17ha40da6e4d4e161a3E, symObjAddr: 0x2A0, symBinAddr: 0x13964, symSize: 0x154 }
  - { offset: 0x8D926, size: 0x8, addend: 0x0, symName: __ZN4core4iter6traits8iterator8Iterator8try_fold17hb63614b3097bfa0eE, symObjAddr: 0x3F4, symBinAddr: 0x13AB8, symSize: 0x154 }
  - { offset: 0x8D9DA, size: 0x8, addend: 0x0, symName: __ZN4core4iter6traits8iterator8Iterator8try_fold17hcf8a5635dcdb7d52E, symObjAddr: 0x548, symBinAddr: 0x13C0C, symSize: 0x154 }
  - { offset: 0x8E03F, size: 0x8, addend: 0x0, symName: '__ZN91_$LT$core..slice..iter..Iter$LT$T$GT$$u20$as$u20$core..iter..traits..iterator..Iterator$GT$4fold17h6dbc17b0a6c7a494E', symObjAddr: 0x834, symBinAddr: 0x13EF8, symSize: 0x1E0 }
  - { offset: 0x8E240, size: 0x8, addend: 0x0, symName: '__ZN91_$LT$core..slice..iter..Iter$LT$T$GT$$u20$as$u20$core..iter..traits..iterator..Iterator$GT$4fold17he436b3b0644e4a8cE', symObjAddr: 0xA14, symBinAddr: 0x140D8, symSize: 0x1E0 }
  - { offset: 0x8E441, size: 0x8, addend: 0x0, symName: '__ZN91_$LT$core..slice..iter..Iter$LT$T$GT$$u20$as$u20$core..iter..traits..iterator..Iterator$GT$4fold17he455ad311c8042a5E', symObjAddr: 0xBF4, symBinAddr: 0x142B8, symSize: 0x1E0 }
  - { offset: 0x8E642, size: 0x8, addend: 0x0, symName: '__ZN91_$LT$core..slice..iter..Iter$LT$T$GT$$u20$as$u20$core..iter..traits..iterator..Iterator$GT$4fold17heb2b20687b24bef5E', symObjAddr: 0xDD4, symBinAddr: 0x14498, symSize: 0x1E0 }
  - { offset: 0x8E843, size: 0x8, addend: 0x0, symName: '__ZN91_$LT$core..slice..iter..Iter$LT$T$GT$$u20$as$u20$core..iter..traits..iterator..Iterator$GT$4next17h2e10fdee6e0daadaE', symObjAddr: 0xFB4, symBinAddr: 0x14678, symSize: 0x84 }
  - { offset: 0x8E8F9, size: 0x8, addend: 0x0, symName: '__ZN91_$LT$core..slice..iter..Iter$LT$T$GT$$u20$as$u20$core..iter..traits..iterator..Iterator$GT$4next17h9bcfb0cd643b6034E', symObjAddr: 0x1038, symBinAddr: 0x146FC, symSize: 0x84 }
  - { offset: 0x8E9AF, size: 0x8, addend: 0x0, symName: '__ZN91_$LT$core..slice..iter..Iter$LT$T$GT$$u20$as$u20$core..iter..traits..iterator..Iterator$GT$4next17had589bbbeb9c5de0E', symObjAddr: 0x10BC, symBinAddr: 0x14780, symSize: 0x84 }
  - { offset: 0x8EA65, size: 0x8, addend: 0x0, symName: '__ZN91_$LT$core..slice..iter..Iter$LT$T$GT$$u20$as$u20$core..iter..traits..iterator..Iterator$GT$4next17hc2ea40d89632224cE', symObjAddr: 0x1140, symBinAddr: 0x14804, symSize: 0x84 }
  - { offset: 0x8EB6A, size: 0x8, addend: 0x0, symName: '__ZN91_$LT$core..slice..iter..Iter$LT$T$GT$$u20$as$u20$core..iter..traits..iterator..Iterator$GT$8position17h5493f69f780c3955E', symObjAddr: 0x11C4, symBinAddr: 0x14888, symSize: 0x1D0 }
  - { offset: 0x8EDC7, size: 0x8, addend: 0x0, symName: '__ZN91_$LT$core..slice..iter..Iter$LT$T$GT$$u20$as$u20$core..iter..traits..iterator..Iterator$GT$8position17hd3410f3cd8f2517bE', symObjAddr: 0x1394, symBinAddr: 0x14A58, symSize: 0x1D0 }
  - { offset: 0x8EFD5, size: 0x8, addend: 0x0, symName: '__ZN91_$LT$core..slice..iter..Iter$LT$T$GT$$u20$as$u20$core..iter..traits..iterator..Iterator$GT$9size_hint17h2ec22f6b7e23d3deE', symObjAddr: 0x1564, symBinAddr: 0x14C28, symSize: 0xB4 }
  - { offset: 0x8F102, size: 0x8, addend: 0x0, symName: '__ZN91_$LT$core..slice..iter..Iter$LT$T$GT$$u20$as$u20$core..iter..traits..iterator..Iterator$GT$9size_hint17h300e2c596f4ac2e8E', symObjAddr: 0x1618, symBinAddr: 0x14CDC, symSize: 0xB4 }
  - { offset: 0x8F22F, size: 0x8, addend: 0x0, symName: '__ZN91_$LT$core..slice..iter..Iter$LT$T$GT$$u20$as$u20$core..iter..traits..iterator..Iterator$GT$9size_hint17h54a50d922f2301e3E', symObjAddr: 0x16CC, symBinAddr: 0x14D90, symSize: 0xB4 }
  - { offset: 0x8F35C, size: 0x8, addend: 0x0, symName: '__ZN91_$LT$core..slice..iter..Iter$LT$T$GT$$u20$as$u20$core..iter..traits..iterator..Iterator$GT$9size_hint17h579a05c70f55c58dE', symObjAddr: 0x1780, symBinAddr: 0x14E44, symSize: 0xB4 }
  - { offset: 0x8F489, size: 0x8, addend: 0x0, symName: '__ZN91_$LT$core..slice..iter..Iter$LT$T$GT$$u20$as$u20$core..iter..traits..iterator..Iterator$GT$9size_hint17hab7a55a56d1f348eE', symObjAddr: 0x1834, symBinAddr: 0x14EF8, symSize: 0xB4 }
  - { offset: 0x925F5, size: 0x8, addend: 0x0, symName: '__ZN4core5slice4iter13Iter$LT$T$GT$3new17h8b42806e74a3a587E', symObjAddr: 0x69C, symBinAddr: 0x13D60, symSize: 0x58 }
  - { offset: 0x927A5, size: 0x8, addend: 0x0, symName: '__ZN4core5slice4iter13Iter$LT$T$GT$3new17hc0abe3b8c5b38677E', symObjAddr: 0x6F4, symBinAddr: 0x13DB8, symSize: 0x50 }
  - { offset: 0x92955, size: 0x8, addend: 0x0, symName: '__ZN4core5slice4iter13Iter$LT$T$GT$3new17hc715583d8c5c4caaE', symObjAddr: 0x744, symBinAddr: 0x13E08, symSize: 0x50 }
  - { offset: 0x92B05, size: 0x8, addend: 0x0, symName: '__ZN4core5slice4iter13Iter$LT$T$GT$3new17hcab26e5299545e21E', symObjAddr: 0x794, symBinAddr: 0x13E58, symSize: 0x50 }
  - { offset: 0x92CCF, size: 0x8, addend: 0x0, symName: '__ZN4core5slice4iter13Iter$LT$T$GT$3new17hd328a3b6cd4991c4E', symObjAddr: 0x7E4, symBinAddr: 0x13EA8, symSize: 0x50 }
  - { offset: 0x934F1, size: 0x8, addend: 0x0, symName: __ZN4pyo35impl_4wrap19map_result_into_ptr17h110d76e7713769afE, symObjAddr: 0x0, symBinAddr: 0x14FAC, symSize: 0x44 }
  - { offset: 0x94CFD, size: 0x8, addend: 0x0, symName: __ZN4pyo35impl_4wrap19map_result_into_ptr17h110d76e7713769afE, symObjAddr: 0x0, symBinAddr: 0x14FAC, symSize: 0x44 }
  - { offset: 0x94D4C, size: 0x8, addend: 0x0, symName: __ZN4pyo35impl_4wrap19map_result_into_ptr17h2bca4c688ca5c065E, symObjAddr: 0x44, symBinAddr: 0x14FF0, symSize: 0x44 }
  - { offset: 0x94D9B, size: 0x8, addend: 0x0, symName: __ZN4pyo35impl_4wrap19map_result_into_ptr17h50531441cfdd21f7E, symObjAddr: 0x88, symBinAddr: 0x15034, symSize: 0x44 }
  - { offset: 0x94DEA, size: 0x8, addend: 0x0, symName: __ZN4pyo35impl_4wrap19map_result_into_ptr17h625a75623a2abcf4E, symObjAddr: 0xCC, symBinAddr: 0x15078, symSize: 0x44 }
  - { offset: 0x94E39, size: 0x8, addend: 0x0, symName: __ZN4pyo35impl_4wrap19map_result_into_ptr17h64377bacd8a4fc50E, symObjAddr: 0x110, symBinAddr: 0x150BC, symSize: 0x44 }
  - { offset: 0x94E88, size: 0x8, addend: 0x0, symName: __ZN4pyo35impl_4wrap19map_result_into_ptr17hf250c468672d47abE, symObjAddr: 0x154, symBinAddr: 0x15100, symSize: 0x44 }
  - { offset: 0x94ED7, size: 0x8, addend: 0x0, symName: __ZN4pyo35impl_4wrap19map_result_into_ptr17hf9d37ad345d4ed62E, symObjAddr: 0x198, symBinAddr: 0x15144, symSize: 0x44 }
  - { offset: 0x94F2B, size: 0x8, addend: 0x0, symName: '__ZN4pyo35impl_4wrap19map_result_into_ptr28_$u7b$$u7b$closure$u7d$$u7d$17h0421399e88118dd1E', symObjAddr: 0x1DC, symBinAddr: 0x15188, symSize: 0x38 }
  - { offset: 0x94F7A, size: 0x8, addend: 0x0, symName: '__ZN4pyo35impl_4wrap19map_result_into_ptr28_$u7b$$u7b$closure$u7d$$u7d$17h0db40be20fa6758eE', symObjAddr: 0x214, symBinAddr: 0x151C0, symSize: 0x3C }
  - { offset: 0x94FC9, size: 0x8, addend: 0x0, symName: '__ZN4pyo35impl_4wrap19map_result_into_ptr28_$u7b$$u7b$closure$u7d$$u7d$17h6171ff92d9841a12E', symObjAddr: 0x250, symBinAddr: 0x151FC, symSize: 0x38 }
  - { offset: 0x95018, size: 0x8, addend: 0x0, symName: '__ZN4pyo35impl_4wrap19map_result_into_ptr28_$u7b$$u7b$closure$u7d$$u7d$17h79d5724bcb19d6d9E', symObjAddr: 0x288, symBinAddr: 0x15234, symSize: 0x30 }
  - { offset: 0x95066, size: 0x8, addend: 0x0, symName: '__ZN4pyo35impl_4wrap19map_result_into_ptr28_$u7b$$u7b$closure$u7d$$u7d$17h92fe7023d1ededfeE', symObjAddr: 0x2B8, symBinAddr: 0x15264, symSize: 0x34 }
  - { offset: 0x950B4, size: 0x8, addend: 0x0, symName: '__ZN4pyo35impl_4wrap19map_result_into_ptr28_$u7b$$u7b$closure$u7d$$u7d$17hb7e806400d4f2532E', symObjAddr: 0x2EC, symBinAddr: 0x15298, symSize: 0x3C }
  - { offset: 0x95102, size: 0x8, addend: 0x0, symName: '__ZN4pyo35impl_4wrap19map_result_into_ptr28_$u7b$$u7b$closure$u7d$$u7d$17hf6d1601de1180753E', symObjAddr: 0x328, symBinAddr: 0x152D4, symSize: 0x30 }
  - { offset: 0x951DB, size: 0x8, addend: 0x0, symName: '__ZN56_$LT$T$u20$as$u20$pyo3..impl_..wrap..OkWrap$LT$T$GT$$GT$4wrap17h36fe889181f60078E', symObjAddr: 0x358, symBinAddr: 0x15304, symSize: 0x10 }
  - { offset: 0x95210, size: 0x8, addend: 0x0, symName: '__ZN56_$LT$T$u20$as$u20$pyo3..impl_..wrap..OkWrap$LT$T$GT$$GT$4wrap17h836b9cb6e9eba303E', symObjAddr: 0x368, symBinAddr: 0x15314, symSize: 0x10 }
  - { offset: 0x95245, size: 0x8, addend: 0x0, symName: '__ZN56_$LT$T$u20$as$u20$pyo3..impl_..wrap..OkWrap$LT$T$GT$$GT$4wrap17hf4c688b9506f049fE', symObjAddr: 0x378, symBinAddr: 0x15324, symSize: 0x18 }
  - { offset: 0x95D46, size: 0x8, addend: 0x0, symName: '__ZN4pyo311conversions3std3num115_$LT$impl$u20$pyo3..conversion..IntoPy$LT$pyo3..instance..Py$LT$pyo3..types..any..PyAny$GT$$GT$$u20$for$u20$u64$GT$7into_py17h8069986b1720a884E', symObjAddr: 0x0, symBinAddr: 0x1533C, symSize: 0x2C }
  - { offset: 0x96DCB, size: 0x8, addend: 0x0, symName: '__ZN4pyo311conversions3std3num115_$LT$impl$u20$pyo3..conversion..IntoPy$LT$pyo3..instance..Py$LT$pyo3..types..any..PyAny$GT$$GT$$u20$for$u20$u64$GT$7into_py17h8069986b1720a884E', symObjAddr: 0x0, symBinAddr: 0x1533C, symSize: 0x2C }
  - { offset: 0x96E16, size: 0x8, addend: 0x0, symName: '__ZN4pyo311conversions3std3num62_$LT$impl$u20$pyo3..conversion..ToPyObject$u20$for$u20$u64$GT$9to_object17h96b3204b67684720E', symObjAddr: 0x2C, symBinAddr: 0x15368, symSize: 0x34 }
  - { offset: 0x973D3, size: 0x8, addend: 0x0, symName: '__ZN77_$LT$pyo3..exceptions..PyIOError$u20$as$u20$pyo3..type_object..PyTypeInfo$GT$15type_object_raw17h852c3de5ca3cce5cE', symObjAddr: 0x0, symBinAddr: 0x1539C, symSize: 0x24 }
  - { offset: 0x983EE, size: 0x8, addend: 0x0, symName: '__ZN77_$LT$pyo3..exceptions..PyIOError$u20$as$u20$pyo3..type_object..PyTypeInfo$GT$15type_object_raw17h852c3de5ca3cce5cE', symObjAddr: 0x0, symBinAddr: 0x1539C, symSize: 0x24 }
  - { offset: 0x9842E, size: 0x8, addend: 0x0, symName: '__ZN80_$LT$pyo3..exceptions..PyIndexError$u20$as$u20$pyo3..type_object..PyTypeInfo$GT$15type_object_raw17h870934bb19dcee3cE', symObjAddr: 0x24, symBinAddr: 0x153C0, symSize: 0x24 }
  - { offset: 0x98973, size: 0x8, addend: 0x0, symName: __ZN4core3ptr5write17h5aad14026b3c4047E, symObjAddr: 0x0, symBinAddr: 0x153E4, symSize: 0x2C }
  - { offset: 0x9898A, size: 0x8, addend: 0x0, symName: __ZN4core3ptr5write17h5aad14026b3c4047E, symObjAddr: 0x0, symBinAddr: 0x153E4, symSize: 0x2C }
  - { offset: 0x98EFC, size: 0x8, addend: 0x0, symName: '__ZN54_$LT$$RF$T$u20$as$u20$pyo3..conversion..ToPyObject$GT$9to_object17h0357fbd1dee4ac28E', symObjAddr: 0x0, symBinAddr: 0x15410, symSize: 0x30 }
  - { offset: 0x99F77, size: 0x8, addend: 0x0, symName: '__ZN54_$LT$$RF$T$u20$as$u20$pyo3..conversion..ToPyObject$GT$9to_object17h0357fbd1dee4ac28E', symObjAddr: 0x0, symBinAddr: 0x15410, symSize: 0x30 }
  - { offset: 0x9A910, size: 0x8, addend: 0x0, symName: '__ZN65_$LT$alloc..string..String$u20$as$u20$core..ops..deref..Deref$GT$5deref17haf95191b622f2892E', symObjAddr: 0x420, symBinAddr: 0x15810, symSize: 0x20 }
  - { offset: 0x9A9F3, size: 0x8, addend: 0x0, symName: '__ZN51_$LT$str$u20$as$u20$alloc..string..SpecToString$GT$14spec_to_string17h0ce5176cf2cbdec6E', symObjAddr: 0x44, symBinAddr: 0x15454, symSize: 0x50 }
  - { offset: 0x9AB1C, size: 0x8, addend: 0x0, symName: '__ZN58_$LT$alloc..string..String$u20$as$u20$core..fmt..Debug$GT$3fmt17h35433cc7a2cb28daE', symObjAddr: 0x94, symBinAddr: 0x154A4, symSize: 0x3C }
  - { offset: 0x9ACFF, size: 0x8, addend: 0x0, symName: '__ZN5alloc6string83_$LT$impl$u20$core..cmp..PartialEq$LT$alloc..string..String$GT$$u20$for$u20$str$GT$2eq17h87f1d8ec3517332dE', symObjAddr: 0x330, symBinAddr: 0x15720, symSize: 0x58 }
  - { offset: 0x9AE9D, size: 0x8, addend: 0x0, symName: '__ZN5alloc6string83_$LT$impl$u20$core..cmp..PartialEq$LT$alloc..string..String$GT$$u20$for$u20$str$GT$2ne17hfc8c3b3680cdc4f7E', symObjAddr: 0x388, symBinAddr: 0x15778, symSize: 0x5C }
  - { offset: 0x9B067, size: 0x8, addend: 0x0, symName: '__ZN60_$LT$alloc..string..String$u20$as$u20$core..fmt..Display$GT$3fmt17h0d7a26bfa3eb04b4E', symObjAddr: 0x3E4, symBinAddr: 0x157D4, symSize: 0x3C }
  - { offset: 0x9B153, size: 0x8, addend: 0x0, symName: '__ZN73_$LT$$RF$alloc..string..String$u20$as$u20$core..str..pattern..Pattern$GT$15is_contained_in17hc332b536d7ec330dE', symObjAddr: 0x440, symBinAddr: 0x15830, symSize: 0x50 }
  - { offset: 0x9B25C, size: 0x8, addend: 0x0, symName: '__ZN77_$LT$alloc..string..String$u20$as$u20$core..cmp..PartialEq$LT$$RF$str$GT$$GT$2eq17h62c8bcf2f3607cfaE', symObjAddr: 0x490, symBinAddr: 0x15880, symSize: 0x64 }
  - { offset: 0x9BDFD, size: 0x8, addend: 0x0, symName: __ZN5alloc6string6String4push17hde122629222c5d33E, symObjAddr: 0xD0, symBinAddr: 0x154E0, symSize: 0x114 }
  - { offset: 0x9C096, size: 0x8, addend: 0x0, symName: __ZN5alloc6string6String6as_str17h4f371179bc788041E, symObjAddr: 0x1E4, symBinAddr: 0x155F4, symSize: 0x20 }
  - { offset: 0x9C1C2, size: 0x8, addend: 0x0, symName: __ZN5alloc6string6String9from_utf817hc9141545f33b207dE, symObjAddr: 0x224, symBinAddr: 0x15614, symSize: 0x10C }
  - { offset: 0x9C6A6, size: 0x8, addend: 0x0, symName: __ZN5alloc5alloc15exchange_malloc17h1cac153843fe38bbE, symObjAddr: 0x0, symBinAddr: 0x158E4, symSize: 0xB0 }
  - { offset: 0x9D047, size: 0x8, addend: 0x0, symName: '__ZN63_$LT$alloc..alloc..Global$u20$as$u20$core..alloc..Allocator$GT$10deallocate17hd3a586c7f25a5d22E', symObjAddr: 0x244, symBinAddr: 0x15B28, symSize: 0x58 }
  - { offset: 0x9D18B, size: 0x8, addend: 0x0, symName: __ZN5alloc5alloc15exchange_malloc17h1cac153843fe38bbE, symObjAddr: 0x0, symBinAddr: 0x158E4, symSize: 0xB0 }
  - { offset: 0x9D4E5, size: 0x8, addend: 0x0, symName: __ZN5alloc5alloc6Global18alloc_impl_runtime17h21334ec4f6358f84E, symObjAddr: 0xB0, symBinAddr: 0x15994, symSize: 0x194 }
  - { offset: 0x9D8FA, size: 0x8, addend: 0x0, symName: '__ZN157_$LT$$LT$alloc..vec..into_iter..IntoIter$LT$T$C$A$GT$$u20$as$u20$core..ops..drop..Drop$GT$..drop..DropGuard$LT$T$C$A$GT$$u20$as$u20$core..ops..drop..Drop$GT$4drop17h029191eb45c01b42E', symObjAddr: 0x0, symBinAddr: 0x15B80, symSize: 0x6C }
  - { offset: 0x9DA49, size: 0x8, addend: 0x0, symName: '__ZN78_$LT$std..io..error..repr_bitpacked..Repr$u20$as$u20$core..ops..drop..Drop$GT$4drop17h21063a6913b59f02E', symObjAddr: 0x1EC4, symBinAddr: 0x1713C, symSize: 0x38 }
  - { offset: 0x9EB6A, size: 0x8, addend: 0x0, symName: '__ZN4core3ptr101drop_in_place$LT$std..io..error..ErrorData$LT$alloc..boxed..Box$LT$std..io..error..Custom$GT$$GT$$GT$17ha909031cba35acc6E', symObjAddr: 0xE4, symBinAddr: 0x15C64, symSize: 0x48 }
  - { offset: 0x9EB99, size: 0x8, addend: 0x0, symName: '__ZN4core3ptr107drop_in_place$LT$$u5b$$LP$alloc..vec..Vec$LT$f32$GT$$C$alloc..vec..Vec$LT$f32$GT$$C$f32$C$bool$RP$$u5d$$GT$17hc618e927ea335689E', symObjAddr: 0x12C, symBinAddr: 0x15CAC, symSize: 0xC4 }
  - { offset: 0x9EBC8, size: 0x8, addend: 0x0, symName: '__ZN4core3ptr118drop_in_place$LT$alloc..boxed..Box$LT$dyn$u20$core..error..Error$u2b$core..marker..Sync$u2b$core..marker..Send$GT$$GT$17h8bad4d8c99f4f54cE', symObjAddr: 0x1F0, symBinAddr: 0x15D70, symSize: 0x80 }
  - { offset: 0x9EBF7, size: 0x8, addend: 0x0, symName: '__ZN4core3ptr120drop_in_place$LT$alloc..vec..Vec$LT$$LP$alloc..vec..Vec$LT$f32$GT$$C$alloc..vec..Vec$LT$f32$GT$$C$f32$C$bool$RP$$GT$$GT$17h963992f1db68a886E', symObjAddr: 0x270, symBinAddr: 0x15DF0, symSize: 0x5C }
  - { offset: 0x9EC26, size: 0x8, addend: 0x0, symName: '__ZN4core3ptr127drop_in_place$LT$alloc..raw_vec..RawVec$LT$$LP$alloc..vec..Vec$LT$f32$GT$$C$alloc..vec..Vec$LT$f32$GT$$C$f32$C$bool$RP$$GT$$GT$17haeea85bec7712499E', symObjAddr: 0x2CC, symBinAddr: 0x15E4C, symSize: 0x24 }
  - { offset: 0x9EC55, size: 0x8, addend: 0x0, symName: '__ZN4core3ptr136drop_in_place$LT$alloc..vec..into_iter..IntoIter$LT$$LP$alloc..vec..Vec$LT$f32$GT$$C$alloc..vec..Vec$LT$f32$GT$$C$f32$C$bool$RP$$GT$$GT$17h2dc5c814bc1ed8deE', symObjAddr: 0x2F0, symBinAddr: 0x15E70, symSize: 0x24 }
  - { offset: 0x9EC84, size: 0x8, addend: 0x0, symName: '__ZN4core3ptr186drop_in_place$LT$core..iter..adapters..enumerate..Enumerate$LT$alloc..vec..into_iter..IntoIter$LT$$LP$alloc..vec..Vec$LT$f32$GT$$C$alloc..vec..Vec$LT$f32$GT$$C$f32$C$bool$RP$$GT$$GT$$GT$17ha6421291cbc51bccE', symObjAddr: 0x314, symBinAddr: 0x15E94, symSize: 0x24 }
  - { offset: 0x9ECB3, size: 0x8, addend: 0x0, symName: '__ZN4core3ptr230drop_in_place$LT$$LT$alloc..vec..into_iter..IntoIter$LT$T$C$A$GT$$u20$as$u20$core..ops..drop..Drop$GT$..drop..DropGuard$LT$$LP$alloc..vec..Vec$LT$f32$GT$$C$alloc..vec..Vec$LT$f32$GT$$C$f32$C$bool$RP$$C$alloc..alloc..Global$GT$$GT$17hcb4d42a8dd06855eE', symObjAddr: 0x338, symBinAddr: 0x15EB8, symSize: 0x24 }
  - { offset: 0x9ECE2, size: 0x8, addend: 0x0, symName: '__ZN4core3ptr42drop_in_place$LT$alloc..string..String$GT$17h900e99fc9c79567eE', symObjAddr: 0x3EC, symBinAddr: 0x15EDC, symSize: 0x24 }
  - { offset: 0x9ED11, size: 0x8, addend: 0x0, symName: '__ZN4core3ptr42drop_in_place$LT$std..io..error..Error$GT$17h04de9f254dfbf4b3E', symObjAddr: 0x410, symBinAddr: 0x15F00, symSize: 0x24 }
  - { offset: 0x9ED40, size: 0x8, addend: 0x0, symName: '__ZN4core3ptr43drop_in_place$LT$std..io..error..Custom$GT$17hdb6edf0499fb1bc4E', symObjAddr: 0x434, symBinAddr: 0x15F24, symSize: 0x24 }
  - { offset: 0x9ED6F, size: 0x8, addend: 0x0, symName: '__ZN4core3ptr44drop_in_place$LT$kinodb_core..kql..Query$GT$17h8729f61475fae3b1E', symObjAddr: 0x458, symBinAddr: 0x15F48, symSize: 0x24 }
  - { offset: 0x9ED9E, size: 0x8, addend: 0x0, symName: '__ZN4core3ptr44drop_in_place$LT$kinodb_core..kql..Token$GT$17h2718a1a6ecfa3d67E', symObjAddr: 0x47C, symBinAddr: 0x15F6C, symSize: 0x84 }
  - { offset: 0x9EDCD, size: 0x8, addend: 0x0, symName: '__ZN4core3ptr44drop_in_place$LT$kinodb_core..kql..Value$GT$17h1e52ccefb94d6e9aE', symObjAddr: 0x500, symBinAddr: 0x15FF0, symSize: 0x54 }
  - { offset: 0x9EDFC, size: 0x8, addend: 0x0, symName: '__ZN4core3ptr46drop_in_place$LT$alloc..vec..Vec$LT$u8$GT$$GT$17h2cf8c0f3cfa14e11E', symObjAddr: 0x578, symBinAddr: 0x16044, symSize: 0x5C }
  - { offset: 0x9EE2B, size: 0x8, addend: 0x0, symName: '__ZN4core3ptr46drop_in_place$LT$kinodb_core..types..Frame$GT$17h3fd222b80f13d423E', symObjAddr: 0x5D4, symBinAddr: 0x160A0, symSize: 0x90 }
  - { offset: 0x9EE5A, size: 0x8, addend: 0x0, symName: '__ZN4core3ptr47drop_in_place$LT$alloc..vec..Vec$LT$f32$GT$$GT$17h5ce0eb9618ddfcb9E', symObjAddr: 0x664, symBinAddr: 0x16130, symSize: 0x5C }
  - { offset: 0x9EE89, size: 0x8, addend: 0x0, symName: '__ZN4core3ptr48drop_in_place$LT$alloc..vec..Vec$LT$char$GT$$GT$17h3f913f285303b0afE', symObjAddr: 0x71C, symBinAddr: 0x1618C, symSize: 0x5C }
  - { offset: 0x9EEB8, size: 0x8, addend: 0x0, symName: '__ZN4core3ptr48drop_in_place$LT$kinodb_core..kql..Condition$GT$17h8cd8d0fbc38b3a72E', symObjAddr: 0x778, symBinAddr: 0x161E8, symSize: 0x60 }
  - { offset: 0x9EEE7, size: 0x8, addend: 0x0, symName: '__ZN4core3ptr49drop_in_place$LT$alloc..string..FromUtf8Error$GT$17hbabf90bd665017fcE', symObjAddr: 0x820, symBinAddr: 0x16248, symSize: 0x24 }
  - { offset: 0x9EF16, size: 0x8, addend: 0x0, symName: '__ZN4core3ptr49drop_in_place$LT$alloc..vec..Vec$LT$usize$GT$$GT$17h421809f74572f172E', symObjAddr: 0x844, symBinAddr: 0x1626C, symSize: 0x5C }
  - { offset: 0x9EF45, size: 0x8, addend: 0x0, symName: '__ZN4core3ptr49drop_in_place$LT$kinodb_core..kql..ParseError$GT$17hc1b3004997a553bcE', symObjAddr: 0x8A0, symBinAddr: 0x162C8, symSize: 0xC0 }
  - { offset: 0x9EF74, size: 0x8, addend: 0x0, symName: '__ZN4core3ptr49drop_in_place$LT$kinodb_core..types..ImageObs$GT$17heb4286d99a6d6b14E', symObjAddr: 0x960, symBinAddr: 0x16388, symSize: 0x60 }
  - { offset: 0x9EFA3, size: 0x8, addend: 0x0, symName: '__ZN4core3ptr51drop_in_place$LT$kinodb_core..reader..KdbReader$GT$17h00d76dccc0ff1e38E', symObjAddr: 0xA08, symBinAddr: 0x163E8, symSize: 0x60 }
  - { offset: 0x9EFD2, size: 0x8, addend: 0x0, symName: '__ZN4core3ptr51drop_in_place$LT$kinodb_core..reader..ReadError$GT$17hff8e1d42976c8452E', symObjAddr: 0xA68, symBinAddr: 0x16448, symSize: 0x50 }
  - { offset: 0x9F001, size: 0x8, addend: 0x0, symName: '__ZN4core3ptr52drop_in_place$LT$kinodb_core..types..EpisodeMeta$GT$17hf97a1bd63503d9b2E', symObjAddr: 0xB78, symBinAddr: 0x16498, symSize: 0x60 }
  - { offset: 0x9F030, size: 0x8, addend: 0x0, symName: '__ZN4core3ptr53drop_in_place$LT$alloc..raw_vec..RawVec$LT$u8$GT$$GT$17h748b9ea71c72b054E', symObjAddr: 0xBD8, symBinAddr: 0x164F8, symSize: 0x24 }
  - { offset: 0x9F05F, size: 0x8, addend: 0x0, symName: '__ZN4core3ptr53drop_in_place$LT$kinodb_core..index..EpisodeIndex$GT$17h03ae8816b044e957E', symObjAddr: 0xBFC, symBinAddr: 0x1651C, symSize: 0x24 }
  - { offset: 0x9F08E, size: 0x8, addend: 0x0, symName: '__ZN4core3ptr54drop_in_place$LT$alloc..raw_vec..RawVec$LT$f32$GT$$GT$17h2bf7d917da43fc83E', symObjAddr: 0xC20, symBinAddr: 0x16540, symSize: 0x24 }
  - { offset: 0x9F0BD, size: 0x8, addend: 0x0, symName: '__ZN4core3ptr55drop_in_place$LT$alloc..raw_vec..RawVec$LT$char$GT$$GT$17h6251643058bbd4faE', symObjAddr: 0xC68, symBinAddr: 0x16564, symSize: 0x24 }
  - { offset: 0x9F0EC, size: 0x8, addend: 0x0, symName: '__ZN4core3ptr56drop_in_place$LT$$u5b$kinodb_core..types..Frame$u5d$$GT$17h3539484218268d6aE', symObjAddr: 0xCB0, symBinAddr: 0x16588, symSize: 0xC4 }
  - { offset: 0x9F11B, size: 0x8, addend: 0x0, symName: '__ZN4core3ptr56drop_in_place$LT$alloc..raw_vec..RawVec$LT$usize$GT$$GT$17h7661ecfeb3f562ebE', symObjAddr: 0xD74, symBinAddr: 0x1664C, symSize: 0x24 }
  - { offset: 0x9F14A, size: 0x8, addend: 0x0, symName: '__ZN4core3ptr57drop_in_place$LT$std..io..error..repr_bitpacked..Repr$GT$17hcab86cf1e0475117E', symObjAddr: 0xDBC, symBinAddr: 0x16670, symSize: 0x24 }
  - { offset: 0x9F179, size: 0x8, addend: 0x0, symName: '__ZN4core3ptr58drop_in_place$LT$$u5b$kinodb_core..kql..Condition$u5d$$GT$17hc40803ae5ef72d79E', symObjAddr: 0xDE0, symBinAddr: 0x16694, symSize: 0xC4 }
  - { offset: 0x9F1A8, size: 0x8, addend: 0x0, symName: '__ZN4core3ptr59drop_in_place$LT$$u5b$kinodb_core..types..ImageObs$u5d$$GT$17h5c8dd4eae4d179cfE', symObjAddr: 0xEA4, symBinAddr: 0x16758, symSize: 0xB4 }
  - { offset: 0x9F1D7, size: 0x8, addend: 0x0, symName: '__ZN4core3ptr60drop_in_place$LT$$LP$kinodb_core..kql..Token$C$usize$RP$$GT$17h423e991d0bafd4b1E', symObjAddr: 0xF58, symBinAddr: 0x1680C, symSize: 0x24 }
  - { offset: 0x9F206, size: 0x8, addend: 0x0, symName: '__ZN4core3ptr62drop_in_place$LT$alloc..vec..set_len_on_drop..SetLenOnDrop$GT$17hc85af5542cd42d4aE', symObjAddr: 0x1040, symBinAddr: 0x16830, symSize: 0x24 }
  - { offset: 0x9F235, size: 0x8, addend: 0x0, symName: '__ZN4core3ptr68drop_in_place$LT$alloc..boxed..Box$LT$std..io..error..Custom$GT$$GT$17h0e8bb34a1b4d097aE', symObjAddr: 0x1118, symBinAddr: 0x16854, symSize: 0x60 }
  - { offset: 0x9F264, size: 0x8, addend: 0x0, symName: '__ZN4core3ptr69drop_in_place$LT$alloc..vec..Vec$LT$kinodb_core..types..Frame$GT$$GT$17h8a827ee816969a2fE', symObjAddr: 0x1178, symBinAddr: 0x168B4, symSize: 0x5C }
  - { offset: 0x9F293, size: 0x8, addend: 0x0, symName: '__ZN4core3ptr70drop_in_place$LT$$u5b$$LP$kinodb_core..kql..Token$C$usize$RP$$u5d$$GT$17hb98d1f2bed1d6cabE', symObjAddr: 0x11D4, symBinAddr: 0x16910, symSize: 0xC4 }
  - { offset: 0x9F2C2, size: 0x8, addend: 0x0, symName: '__ZN4core3ptr71drop_in_place$LT$alloc..vec..Vec$LT$kinodb_core..kql..Condition$GT$$GT$17h08144b7e98d7af7eE', symObjAddr: 0x1298, symBinAddr: 0x169D4, symSize: 0x5C }
  - { offset: 0x9F2F1, size: 0x8, addend: 0x0, symName: '__ZN4core3ptr72drop_in_place$LT$alloc..vec..Vec$LT$kinodb_core..types..ImageObs$GT$$GT$17hf3840be0092f2742E', symObjAddr: 0x12F4, symBinAddr: 0x16A30, symSize: 0x5C }
  - { offset: 0x9F320, size: 0x8, addend: 0x0, symName: '__ZN4core3ptr74drop_in_place$LT$alloc..vec..Vec$LT$kinodb_core..index..IndexEntry$GT$$GT$17h7eeee0cd0a210129E', symObjAddr: 0x13D0, symBinAddr: 0x16A8C, symSize: 0x5C }
  - { offset: 0x9F34F, size: 0x8, addend: 0x0, symName: '__ZN4core3ptr76drop_in_place$LT$alloc..raw_vec..RawVec$LT$kinodb_core..types..Frame$GT$$GT$17h2f083606667c5e3cE', symObjAddr: 0x1488, symBinAddr: 0x16AE8, symSize: 0x24 }
  - { offset: 0x9F37E, size: 0x8, addend: 0x0, symName: '__ZN4core3ptr78drop_in_place$LT$alloc..raw_vec..RawVec$LT$kinodb_core..kql..Condition$GT$$GT$17h2c4d817b181e30c2E', symObjAddr: 0x14AC, symBinAddr: 0x16B0C, symSize: 0x24 }
  - { offset: 0x9F3AD, size: 0x8, addend: 0x0, symName: '__ZN4core3ptr79drop_in_place$LT$alloc..raw_vec..RawVec$LT$kinodb_core..types..ImageObs$GT$$GT$17hd5b2fc3e0cb71f0bE', symObjAddr: 0x14D0, symBinAddr: 0x16B30, symSize: 0x24 }
  - { offset: 0x9F3DC, size: 0x8, addend: 0x0, symName: '__ZN4core3ptr81drop_in_place$LT$alloc..raw_vec..RawVec$LT$kinodb_core..index..IndexEntry$GT$$GT$17hffac35900ef637b6E', symObjAddr: 0x1574, symBinAddr: 0x16B54, symSize: 0x24 }
  - { offset: 0x9F40B, size: 0x8, addend: 0x0, symName: '__ZN4core3ptr83drop_in_place$LT$alloc..vec..Vec$LT$$LP$kinodb_core..kql..Token$C$usize$RP$$GT$$GT$17h7e48732c511cb1f4E', symObjAddr: 0x1688, symBinAddr: 0x16B78, symSize: 0x5C }
  - { offset: 0x9F43A, size: 0x8, addend: 0x0, symName: '__ZN4core3ptr90drop_in_place$LT$alloc..raw_vec..RawVec$LT$$LP$kinodb_core..kql..Token$C$usize$RP$$GT$$GT$17hacff014eee2f2ab1E', symObjAddr: 0x1708, symBinAddr: 0x16BD4, symSize: 0x24 }
  - { offset: 0x9F469, size: 0x8, addend: 0x0, symName: '__ZN4core3ptr97drop_in_place$LT$$LP$alloc..vec..Vec$LT$f32$GT$$C$alloc..vec..Vec$LT$f32$GT$$C$f32$C$bool$RP$$GT$17h8e48e21cc4d89ab4E', symObjAddr: 0x17BC, symBinAddr: 0x16BF8, symSize: 0x60 }
  - { offset: 0x9F610, size: 0x8, addend: 0x0, symName: __ZN4core3ops8function5FnMut8call_mut17h1e78807594015924E, symObjAddr: 0x6C, symBinAddr: 0x15BEC, symSize: 0x24 }
  - { offset: 0x9F671, size: 0x8, addend: 0x0, symName: __ZN4core3ops8function5FnMut8call_mut17h9a9f24c2a2979b6cE, symObjAddr: 0x90, symBinAddr: 0x15C10, symSize: 0x28 }
  - { offset: 0x9F6BB, size: 0x8, addend: 0x0, symName: __ZN4core3ops8function6FnOnce9call_once17ha776d8892a77575bE, symObjAddr: 0xB8, symBinAddr: 0x15C38, symSize: 0x2C }
  - { offset: 0x9FB02, size: 0x8, addend: 0x0, symName: '__ZN157_$LT$$LT$alloc..vec..into_iter..IntoIter$LT$T$C$A$GT$$u20$as$u20$core..ops..drop..Drop$GT$..drop..DropGuard$LT$T$C$A$GT$$u20$as$u20$core..ops..drop..Drop$GT$4drop17h029191eb45c01b42E', symObjAddr: 0x0, symBinAddr: 0x15B80, symSize: 0x6C }
  - { offset: 0x9FC6E, size: 0x8, addend: 0x0, symName: '__ZN86_$LT$alloc..vec..into_iter..IntoIter$LT$T$C$A$GT$$u20$as$u20$core..ops..drop..Drop$GT$4drop17hc2c9dd89bedca0b9E', symObjAddr: 0x1F1C, symBinAddr: 0x17194, symSize: 0x78 }
  - { offset: 0x9FDB8, size: 0x8, addend: 0x0, symName: '__ZN70_$LT$alloc..vec..Vec$LT$T$C$A$GT$$u20$as$u20$core..ops..drop..Drop$GT$4drop17h0832a582cce525faE', symObjAddr: 0x185C, symBinAddr: 0x16C58, symSize: 0x38 }
  - { offset: 0x9FE68, size: 0x8, addend: 0x0, symName: '__ZN70_$LT$alloc..vec..Vec$LT$T$C$A$GT$$u20$as$u20$core..ops..drop..Drop$GT$4drop17h1503a04ae46c94f2E', symObjAddr: 0x1894, symBinAddr: 0x16C90, symSize: 0x38 }
  - { offset: 0x9FF18, size: 0x8, addend: 0x0, symName: '__ZN70_$LT$alloc..vec..Vec$LT$T$C$A$GT$$u20$as$u20$core..ops..drop..Drop$GT$4drop17h231a66cec118f793E', symObjAddr: 0x18CC, symBinAddr: 0x16CC8, symSize: 0x38 }
  - { offset: 0x9FFC8, size: 0x8, addend: 0x0, symName: '__ZN70_$LT$alloc..vec..Vec$LT$T$C$A$GT$$u20$as$u20$core..ops..drop..Drop$GT$4drop17h36ede310af2f60cdE', symObjAddr: 0x1904, symBinAddr: 0x16D00, symSize: 0x24 }
  - { offset: 0xA0078, size: 0x8, addend: 0x0, symName: '__ZN70_$LT$alloc..vec..Vec$LT$T$C$A$GT$$u20$as$u20$core..ops..drop..Drop$GT$4drop17h42dd391b0969f80aE', symObjAddr: 0x1928, symBinAddr: 0x16D24, symSize: 0x38 }
  - { offset: 0xA0128, size: 0x8, addend: 0x0, symName: '__ZN70_$LT$alloc..vec..Vec$LT$T$C$A$GT$$u20$as$u20$core..ops..drop..Drop$GT$4drop17h5e35b5d1d62d05e3E', symObjAddr: 0x1960, symBinAddr: 0x16D5C, symSize: 0x24 }
  - { offset: 0xA01D8, size: 0x8, addend: 0x0, symName: '__ZN70_$LT$alloc..vec..Vec$LT$T$C$A$GT$$u20$as$u20$core..ops..drop..Drop$GT$4drop17h836e6aa6e6269516E', symObjAddr: 0x1984, symBinAddr: 0x16D80, symSize: 0x38 }
  - { offset: 0xA0288, size: 0x8, addend: 0x0, symName: '__ZN70_$LT$alloc..vec..Vec$LT$T$C$A$GT$$u20$as$u20$core..ops..drop..Drop$GT$4drop17h84f0374bd18b2414E', symObjAddr: 0x19BC, symBinAddr: 0x16DB8, symSize: 0x24 }
  - { offset: 0xA0338, size: 0x8, addend: 0x0, symName: '__ZN70_$LT$alloc..vec..Vec$LT$T$C$A$GT$$u20$as$u20$core..ops..drop..Drop$GT$4drop17hc822f33308ac28b8E', symObjAddr: 0x1A3C, symBinAddr: 0x16DDC, symSize: 0x24 }
  - { offset: 0xA0670, size: 0x8, addend: 0x0, symName: '__ZN83_$LT$alloc..vec..set_len_on_drop..SetLenOnDrop$u20$as$u20$core..ops..drop..Drop$GT$4drop17h742b657262a43ed3E', symObjAddr: 0x1EFC, symBinAddr: 0x17174, symSize: 0x20 }
  - { offset: 0xA0F00, size: 0x8, addend: 0x0, symName: '__ZN77_$LT$alloc..raw_vec..RawVec$LT$T$C$A$GT$$u20$as$u20$core..ops..drop..Drop$GT$4drop17h16a0950bc56a964cE', symObjAddr: 0x1C64, symBinAddr: 0x16F74, symSize: 0x30 }
  - { offset: 0xA0F3C, size: 0x8, addend: 0x0, symName: '__ZN77_$LT$alloc..raw_vec..RawVec$LT$T$C$A$GT$$u20$as$u20$core..ops..drop..Drop$GT$4drop17h356627479b84ecd3E', symObjAddr: 0x1C94, symBinAddr: 0x16FA4, symSize: 0x30 }
  - { offset: 0xA0F78, size: 0x8, addend: 0x0, symName: '__ZN77_$LT$alloc..raw_vec..RawVec$LT$T$C$A$GT$$u20$as$u20$core..ops..drop..Drop$GT$4drop17h4d854252250a956bE', symObjAddr: 0x1CC4, symBinAddr: 0x16FD4, symSize: 0x34 }
  - { offset: 0xA0FB4, size: 0x8, addend: 0x0, symName: '__ZN77_$LT$alloc..raw_vec..RawVec$LT$T$C$A$GT$$u20$as$u20$core..ops..drop..Drop$GT$4drop17h6114e67966966e65E', symObjAddr: 0x1D5C, symBinAddr: 0x17008, symSize: 0x34 }
  - { offset: 0xA0FF0, size: 0x8, addend: 0x0, symName: '__ZN77_$LT$alloc..raw_vec..RawVec$LT$T$C$A$GT$$u20$as$u20$core..ops..drop..Drop$GT$4drop17h7582f8f9125852a1E', symObjAddr: 0x1D90, symBinAddr: 0x1703C, symSize: 0x34 }
  - { offset: 0xA102C, size: 0x8, addend: 0x0, symName: '__ZN77_$LT$alloc..raw_vec..RawVec$LT$T$C$A$GT$$u20$as$u20$core..ops..drop..Drop$GT$4drop17h7fe9c1d85d598afaE', symObjAddr: 0x1DC4, symBinAddr: 0x17070, symSize: 0x30 }
  - { offset: 0xA1068, size: 0x8, addend: 0x0, symName: '__ZN77_$LT$alloc..raw_vec..RawVec$LT$T$C$A$GT$$u20$as$u20$core..ops..drop..Drop$GT$4drop17hb45f137d7e7a32eeE', symObjAddr: 0x1DF4, symBinAddr: 0x170A0, symSize: 0x34 }
  - { offset: 0xA10A4, size: 0x8, addend: 0x0, symName: '__ZN77_$LT$alloc..raw_vec..RawVec$LT$T$C$A$GT$$u20$as$u20$core..ops..drop..Drop$GT$4drop17hdd017c9749665db2E', symObjAddr: 0x1E28, symBinAddr: 0x170D4, symSize: 0x34 }
  - { offset: 0xA10E0, size: 0x8, addend: 0x0, symName: '__ZN77_$LT$alloc..raw_vec..RawVec$LT$T$C$A$GT$$u20$as$u20$core..ops..drop..Drop$GT$4drop17he2fedff93762db81E', symObjAddr: 0x1E5C, symBinAddr: 0x17108, symSize: 0x34 }
  - { offset: 0xA1164, size: 0x8, addend: 0x0, symName: '__ZN72_$LT$alloc..boxed..Box$LT$T$C$A$GT$$u20$as$u20$core..ops..drop..Drop$GT$4drop17hd1c77fde2631a517E', symObjAddr: 0x1ABC, symBinAddr: 0x16E00, symSize: 0xC4 }
  - { offset: 0xA129D, size: 0x8, addend: 0x0, symName: '__ZN72_$LT$alloc..boxed..Box$LT$T$C$A$GT$$u20$as$u20$core..ops..drop..Drop$GT$4drop17heb6d9fbe1c8aa2b3E', symObjAddr: 0x1B80, symBinAddr: 0x16EC4, symSize: 0xB0 }
  - { offset: 0xA22A1, size: 0x8, addend: 0x0, symName: __ZN4core5alloc6layout6Layout25from_size_align_unchecked18precondition_check17hd1763c972c8f1618E, symObjAddr: 0x0, symBinAddr: 0x1720C, symSize: 0xBC }
  - { offset: 0xA26C9, size: 0x8, addend: 0x0, symName: __ZN4core5alloc6layout6Layout25from_size_align_unchecked18precondition_check17hd1763c972c8f1618E, symObjAddr: 0x0, symBinAddr: 0x1720C, symSize: 0xBC }
  - { offset: 0xA292C, size: 0x8, addend: 0x0, symName: '__ZN108_$LT$kinodb_core..reader..ReadError$u20$as$u20$core..convert..From$LT$kinodb_core..index..IndexError$GT$$GT$4from17h9ec0d7c7e9280a87E', symObjAddr: 0x0, symBinAddr: 0x172C8, symSize: 0x18 }
  - { offset: 0xA3B05, size: 0x8, addend: 0x0, symName: '__ZN108_$LT$kinodb_core..reader..ReadError$u20$as$u20$core..convert..From$LT$kinodb_core..index..IndexError$GT$$GT$4from17h9ec0d7c7e9280a87E', symObjAddr: 0x0, symBinAddr: 0x172C8, symSize: 0x18 }
  - { offset: 0xA3B37, size: 0x8, addend: 0x0, symName: '__ZN110_$LT$kinodb_core..reader..ReadError$u20$as$u20$core..convert..From$LT$kinodb_core..header..HeaderError$GT$$GT$4from17hdec5a0c8842c01e0E', symObjAddr: 0x18, symBinAddr: 0x172E0, symSize: 0x18 }
  - { offset: 0xA3EA4, size: 0x8, addend: 0x0, symName: '__ZN67_$LT$kinodb_core..reader..ReadError$u20$as$u20$core..fmt..Debug$GT$3fmt17h6efc65c086b79761E', symObjAddr: 0x271C, symBinAddr: 0x198E8, symSize: 0x26C }
  - { offset: 0xA3FAF, size: 0x8, addend: 0x0, symName: '__ZN69_$LT$kinodb_core..reader..ReadError$u20$as$u20$core..fmt..Display$GT$3fmt17h2865c2afd04a45a1E', symObjAddr: 0x2988, symBinAddr: 0x19B54, symSize: 0x34C }
  - { offset: 0xA4261, size: 0x8, addend: 0x0, symName: '__ZN99_$LT$kinodb_core..reader..ReadError$u20$as$u20$core..convert..From$LT$std..io..error..Error$GT$$GT$4from17h7563c903a20d57b0E', symObjAddr: 0x2CD4, symBinAddr: 0x19EA0, symSize: 0x24 }
  - { offset: 0xA4673, size: 0x8, addend: 0x0, symName: __ZN11kinodb_core6reader6Cursor10read_bytes17ha1e45cd2869d5615E, symObjAddr: 0x30, symBinAddr: 0x172F8, symSize: 0x21C }
  - { offset: 0xA4778, size: 0x8, addend: 0x0, symName: __ZN11kinodb_core6reader6Cursor11read_string17h69cbbf2599f35997E, symObjAddr: 0x24C, symBinAddr: 0x17514, symSize: 0x1CC }
  - { offset: 0xA483D, size: 0x8, addend: 0x0, symName: __ZN11kinodb_core6reader6Cursor12read_f32_vec17hd9170b15d7ca50aeE, symObjAddr: 0x418, symBinAddr: 0x176E0, symSize: 0x1B0 }
  - { offset: 0xA48CE, size: 0x8, addend: 0x0, symName: __ZN11kinodb_core6reader6Cursor3new17h42326517978548b6E, symObjAddr: 0x5C8, symBinAddr: 0x17890, symSize: 0x24 }
  - { offset: 0xA48F1, size: 0x8, addend: 0x0, symName: __ZN11kinodb_core6reader6Cursor7read_u817hf48369710d6af22dE, symObjAddr: 0x5EC, symBinAddr: 0x178B4, symSize: 0x110 }
  - { offset: 0xA4939, size: 0x8, addend: 0x0, symName: __ZN11kinodb_core6reader6Cursor8read_f3217he7d46e5d375de2d0E, symObjAddr: 0x6FC, symBinAddr: 0x179C4, symSize: 0x1F4 }
  - { offset: 0xA49C2, size: 0x8, addend: 0x0, symName: __ZN11kinodb_core6reader6Cursor8read_u1617hd567c13627d1b2f5E, symObjAddr: 0x8F0, symBinAddr: 0x17BB8, symSize: 0x18C }
  - { offset: 0xA4A51, size: 0x8, addend: 0x0, symName: __ZN11kinodb_core6reader6Cursor8read_u3217ha961b958f8eaf893E, symObjAddr: 0xA7C, symBinAddr: 0x17D44, symSize: 0x1F4 }
  - { offset: 0xA4AE7, size: 0x8, addend: 0x0, symName: __ZN11kinodb_core6reader6Cursor9remaining17h24701049a3ca518fE, symObjAddr: 0xC70, symBinAddr: 0x17F38, symSize: 0x40 }
  - { offset: 0xA4B3D, size: 0x8, addend: 0x0, symName: __ZN11kinodb_core6reader9KdbReader10num_frames17h4b5fb49c922a1c11E, symObjAddr: 0xCB0, symBinAddr: 0x17F78, symSize: 0x18 }
  - { offset: 0xA4B73, size: 0x8, addend: 0x0, symName: __ZN11kinodb_core6reader9KdbReader11decode_meta17ha7e06a4279266ef9E, symObjAddr: 0xCC8, symBinAddr: 0x17F90, symSize: 0x5B4 }
  - { offset: 0xA4D51, size: 0x8, addend: 0x0, symName: __ZN11kinodb_core6reader9KdbReader12num_episodes17hc36c4c7f1c1704d7E, symObjAddr: 0x127C, symBinAddr: 0x18544, symSize: 0x24 }
  - { offset: 0xA4D73, size: 0x8, addend: 0x0, symName: __ZN11kinodb_core6reader9KdbReader12read_episode17h1a75599a1517359bE, symObjAddr: 0x12A0, symBinAddr: 0x18568, symSize: 0xE8 }
  - { offset: 0xA4DDF, size: 0x8, addend: 0x0, symName: __ZN11kinodb_core6reader9KdbReader13decode_frames17hb76bc09714869d22E, symObjAddr: 0x1388, symBinAddr: 0x18650, symSize: 0xFD8 }
  - { offset: 0xA5243, size: 0x8, addend: 0x0, symName: __ZN11kinodb_core6reader9KdbReader23read_episode_from_entry17h9abb074ff69fd80cE, symObjAddr: 0x2448, symBinAddr: 0x19628, symSize: 0x1E8 }
  - { offset: 0xA531D, size: 0x8, addend: 0x0, symName: __ZN11kinodb_core6reader9KdbReader6header17h0939feadfe00cd7cE, symObjAddr: 0x2644, symBinAddr: 0x19810, symSize: 0x14 }
  - { offset: 0xA533F, size: 0x8, addend: 0x0, symName: __ZN11kinodb_core6reader9KdbReader9read_meta17he6f05914dba41b3bE, symObjAddr: 0x2658, symBinAddr: 0x19824, symSize: 0xC4 }
  - { offset: 0xA5562, size: 0x8, addend: 0x0, symName: '__ZN103_$LT$alloc..vec..into_iter..IntoIter$LT$T$C$A$GT$$u20$as$u20$core..iter..traits..iterator..Iterator$GT$4next17h1914700f2ace9d7dE', symObjAddr: 0x0, symBinAddr: 0x19EC4, symSize: 0xBC }
  - { offset: 0xA5966, size: 0x8, addend: 0x0, symName: __ZN4core4iter6traits8iterator8Iterator9enumerate17h80f44e3d74b2cc9cE, symObjAddr: 0x170, symBinAddr: 0x1A034, symSize: 0x18 }
  - { offset: 0xA5997, size: 0x8, addend: 0x0, symName: __ZN4core4iter6traits8iterator8Iterator9enumerate17h80f44e3d74b2cc9cE, symObjAddr: 0x170, symBinAddr: 0x1A034, symSize: 0x18 }
  - { offset: 0xA5C38, size: 0x8, addend: 0x0, symName: '__ZN103_$LT$alloc..vec..into_iter..IntoIter$LT$T$C$A$GT$$u20$as$u20$core..iter..traits..iterator..Iterator$GT$4next17h1914700f2ace9d7dE', symObjAddr: 0x0, symBinAddr: 0x19EC4, symSize: 0xBC }
  - { offset: 0xA5D90, size: 0x8, addend: 0x0, symName: '__ZN103_$LT$alloc..vec..into_iter..IntoIter$LT$T$C$A$GT$$u20$as$u20$core..iter..traits..iterator..Iterator$GT$9size_hint17h833a95c9bc47e97aE', symObjAddr: 0xBC, symBinAddr: 0x19F80, symSize: 0xB4 }
  - { offset: 0xA611B, size: 0x8, addend: 0x0, symName: '__ZN5alloc3vec9into_iter21IntoIter$LT$T$C$A$GT$16as_raw_mut_slice17hfa41a2047118d092E', symObjAddr: 0x188, symBinAddr: 0x1A04C, symSize: 0xCC }
  - { offset: 0xA6257, size: 0x8, addend: 0x0, symName: '__ZN75_$LT$usize$u20$as$u20$core..slice..index..SliceIndex$LT$$u5b$T$u5d$$GT$$GT$3get17h9990f6332fb1ded1E', symObjAddr: 0x0, symBinAddr: 0x1A118, symSize: 0x4C }
  - { offset: 0xA6278, size: 0x8, addend: 0x0, symName: '__ZN75_$LT$usize$u20$as$u20$core..slice..index..SliceIndex$LT$$u5b$T$u5d$$GT$$GT$3get17h9990f6332fb1ded1E', symObjAddr: 0x0, symBinAddr: 0x1A118, symSize: 0x4C }
  - { offset: 0xA62BB, size: 0x8, addend: 0x0, symName: '__ZN75_$LT$usize$u20$as$u20$core..slice..index..SliceIndex$LT$$u5b$T$u5d$$GT$$GT$5index17h8b28636091edddffE', symObjAddr: 0x114, symBinAddr: 0x1A164, symSize: 0x5C }
  - { offset: 0xA6301, size: 0x8, addend: 0x0, symName: '__ZN75_$LT$usize$u20$as$u20$core..slice..index..SliceIndex$LT$$u5b$T$u5d$$GT$$GT$5index17haec3bdf3368e449dE', symObjAddr: 0x170, symBinAddr: 0x1A1C0, symSize: 0x64 }
  - { offset: 0xA6347, size: 0x8, addend: 0x0, symName: '__ZN75_$LT$usize$u20$as$u20$core..slice..index..SliceIndex$LT$$u5b$T$u5d$$GT$$GT$5index17hb2a79bcbbe080642E', symObjAddr: 0x1D4, symBinAddr: 0x1A224, symSize: 0x5C }
  - { offset: 0xA689B, size: 0x8, addend: 0x0, symName: '__ZN4core4iter6traits8iterator8Iterator8for_each4call28_$u7b$$u7b$closure$u7d$$u7d$17h2f4e4b5291c828dbE', symObjAddr: 0x64, symBinAddr: 0x1A280, symSize: 0x28 }
  - { offset: 0xA6ADE, size: 0x8, addend: 0x0, symName: '__ZN153_$LT$core..result..Result$LT$T$C$F$GT$$u20$as$u20$core..ops..try_trait..FromResidual$LT$core..result..Result$LT$core..convert..Infallible$C$E$GT$$GT$$GT$13from_residual17h15445ca0e2af6fe4E', symObjAddr: 0x0, symBinAddr: 0x1A2A8, symSize: 0x40 }
  - { offset: 0xA77EB, size: 0x8, addend: 0x0, symName: '__ZN153_$LT$core..result..Result$LT$T$C$F$GT$$u20$as$u20$core..ops..try_trait..FromResidual$LT$core..result..Result$LT$core..convert..Infallible$C$E$GT$$GT$$GT$13from_residual17h15445ca0e2af6fe4E', symObjAddr: 0x0, symBinAddr: 0x1A2A8, symSize: 0x40 }
  - { offset: 0xA7870, size: 0x8, addend: 0x0, symName: '__ZN153_$LT$core..result..Result$LT$T$C$F$GT$$u20$as$u20$core..ops..try_trait..FromResidual$LT$core..result..Result$LT$core..convert..Infallible$C$E$GT$$GT$$GT$13from_residual17h3a9c45ee6e6dd9feE', symObjAddr: 0x40, symBinAddr: 0x1A2E8, symSize: 0x58 }
  - { offset: 0xA78D8, size: 0x8, addend: 0x0, symName: '__ZN153_$LT$core..result..Result$LT$T$C$F$GT$$u20$as$u20$core..ops..try_trait..FromResidual$LT$core..result..Result$LT$core..convert..Infallible$C$E$GT$$GT$$GT$13from_residual17h618bb7e2e68c4d29E', symObjAddr: 0x184, symBinAddr: 0x1A340, symSize: 0x40 }
  - { offset: 0xA795D, size: 0x8, addend: 0x0, symName: '__ZN153_$LT$core..result..Result$LT$T$C$F$GT$$u20$as$u20$core..ops..try_trait..FromResidual$LT$core..result..Result$LT$core..convert..Infallible$C$E$GT$$GT$$GT$13from_residual17h705c9ef60728a19aE', symObjAddr: 0x1C4, symBinAddr: 0x1A380, symSize: 0x40 }
  - { offset: 0xA79E2, size: 0x8, addend: 0x0, symName: '__ZN153_$LT$core..result..Result$LT$T$C$F$GT$$u20$as$u20$core..ops..try_trait..FromResidual$LT$core..result..Result$LT$core..convert..Infallible$C$E$GT$$GT$$GT$13from_residual17h9557cfa2ea796880E', symObjAddr: 0x240, symBinAddr: 0x1A3C0, symSize: 0x5C }
  - { offset: 0xA7A68, size: 0x8, addend: 0x0, symName: '__ZN153_$LT$core..result..Result$LT$T$C$F$GT$$u20$as$u20$core..ops..try_trait..FromResidual$LT$core..result..Result$LT$core..convert..Infallible$C$E$GT$$GT$$GT$13from_residual17h99c50995918d0a82E', symObjAddr: 0x29C, symBinAddr: 0x1A41C, symSize: 0x50 }
  - { offset: 0xA7AD0, size: 0x8, addend: 0x0, symName: '__ZN153_$LT$core..result..Result$LT$T$C$F$GT$$u20$as$u20$core..ops..try_trait..FromResidual$LT$core..result..Result$LT$core..convert..Infallible$C$E$GT$$GT$$GT$13from_residual17haec83055e0dd8a59E', symObjAddr: 0x2EC, symBinAddr: 0x1A46C, symSize: 0x48 }
  - { offset: 0xA7B55, size: 0x8, addend: 0x0, symName: '__ZN153_$LT$core..result..Result$LT$T$C$F$GT$$u20$as$u20$core..ops..try_trait..FromResidual$LT$core..result..Result$LT$core..convert..Infallible$C$E$GT$$GT$$GT$13from_residual17hb6a5f92fa1d3f488E', symObjAddr: 0x38C, symBinAddr: 0x1A4B4, symSize: 0x48 }
  - { offset: 0xA7BDA, size: 0x8, addend: 0x0, symName: '__ZN153_$LT$core..result..Result$LT$T$C$F$GT$$u20$as$u20$core..ops..try_trait..FromResidual$LT$core..result..Result$LT$core..convert..Infallible$C$E$GT$$GT$$GT$13from_residual17hc87250eaa7c6546fE', symObjAddr: 0x3D4, symBinAddr: 0x1A4FC, symSize: 0x4C }
  - { offset: 0xA7C42, size: 0x8, addend: 0x0, symName: '__ZN153_$LT$core..result..Result$LT$T$C$F$GT$$u20$as$u20$core..ops..try_trait..FromResidual$LT$core..result..Result$LT$core..convert..Infallible$C$E$GT$$GT$$GT$13from_residual17hcd8a08eb5f6e3fcdE', symObjAddr: 0x420, symBinAddr: 0x1A548, symSize: 0x48 }
  - { offset: 0xA7CC7, size: 0x8, addend: 0x0, symName: '__ZN153_$LT$core..result..Result$LT$T$C$F$GT$$u20$as$u20$core..ops..try_trait..FromResidual$LT$core..result..Result$LT$core..convert..Infallible$C$E$GT$$GT$$GT$13from_residual17hea31267badff6565E', symObjAddr: 0x4F8, symBinAddr: 0x1A590, symSize: 0x4C }
  - { offset: 0xA7D2F, size: 0x8, addend: 0x0, symName: '__ZN153_$LT$core..result..Result$LT$T$C$F$GT$$u20$as$u20$core..ops..try_trait..FromResidual$LT$core..result..Result$LT$core..convert..Infallible$C$E$GT$$GT$$GT$13from_residual17heeeee91d9067974dE', symObjAddr: 0x544, symBinAddr: 0x1A5DC, symSize: 0x48 }
  - { offset: 0xA7DB4, size: 0x8, addend: 0x0, symName: '__ZN153_$LT$core..result..Result$LT$T$C$F$GT$$u20$as$u20$core..ops..try_trait..FromResidual$LT$core..result..Result$LT$core..convert..Infallible$C$E$GT$$GT$$GT$13from_residual17hf21a6b977ec745f6E', symObjAddr: 0x58C, symBinAddr: 0x1A624, symSize: 0x48 }
  - { offset: 0xA7E39, size: 0x8, addend: 0x0, symName: '__ZN153_$LT$core..result..Result$LT$T$C$F$GT$$u20$as$u20$core..ops..try_trait..FromResidual$LT$core..result..Result$LT$core..convert..Infallible$C$E$GT$$GT$$GT$13from_residual17hf73211694b351722E', symObjAddr: 0x5D4, symBinAddr: 0x1A66C, symSize: 0x50 }
  - { offset: 0xA7EA0, size: 0x8, addend: 0x0, symName: '__ZN153_$LT$core..result..Result$LT$T$C$F$GT$$u20$as$u20$core..ops..try_trait..FromResidual$LT$core..result..Result$LT$core..convert..Infallible$C$E$GT$$GT$$GT$13from_residual17hfc1d4bed3ec3c819E', symObjAddr: 0x624, symBinAddr: 0x1A6BC, symSize: 0x48 }
  - { offset: 0xA82EC, size: 0x8, addend: 0x0, symName: '__ZN79_$LT$core..result..Result$LT$T$C$E$GT$$u20$as$u20$core..ops..try_trait..Try$GT$6branch17h1da609dad57c3467E', symObjAddr: 0xA14, symBinAddr: 0x1A8F0, symSize: 0x94 }
  - { offset: 0xA8369, size: 0x8, addend: 0x0, symName: '__ZN79_$LT$core..result..Result$LT$T$C$E$GT$$u20$as$u20$core..ops..try_trait..Try$GT$6branch17h1e31d57a70894868E', symObjAddr: 0xAA8, symBinAddr: 0x1A984, symSize: 0x94 }
  - { offset: 0xA83E6, size: 0x8, addend: 0x0, symName: '__ZN79_$LT$core..result..Result$LT$T$C$E$GT$$u20$as$u20$core..ops..try_trait..Try$GT$6branch17h41c6501cafe553adE', symObjAddr: 0xB3C, symBinAddr: 0x1AA18, symSize: 0x84 }
  - { offset: 0xA8464, size: 0x8, addend: 0x0, symName: '__ZN79_$LT$core..result..Result$LT$T$C$E$GT$$u20$as$u20$core..ops..try_trait..Try$GT$6branch17h59a3e125cfc1464fE', symObjAddr: 0xBC0, symBinAddr: 0x1AA9C, symSize: 0x94 }
  - { offset: 0xA84E1, size: 0x8, addend: 0x0, symName: '__ZN79_$LT$core..result..Result$LT$T$C$E$GT$$u20$as$u20$core..ops..try_trait..Try$GT$6branch17h5e4d7f699458b746E', symObjAddr: 0xC54, symBinAddr: 0x1AB30, symSize: 0xAC }
  - { offset: 0xA855F, size: 0x8, addend: 0x0, symName: '__ZN79_$LT$core..result..Result$LT$T$C$E$GT$$u20$as$u20$core..ops..try_trait..Try$GT$6branch17h63c32a0343ebca1fE', symObjAddr: 0xD00, symBinAddr: 0x1ABDC, symSize: 0x98 }
  - { offset: 0xA85DC, size: 0x8, addend: 0x0, symName: '__ZN79_$LT$core..result..Result$LT$T$C$E$GT$$u20$as$u20$core..ops..try_trait..Try$GT$6branch17h656be190b9f02cd4E', symObjAddr: 0xD98, symBinAddr: 0x1AC74, symSize: 0x84 }
  - { offset: 0xA865A, size: 0x8, addend: 0x0, symName: '__ZN79_$LT$core..result..Result$LT$T$C$E$GT$$u20$as$u20$core..ops..try_trait..Try$GT$6branch17h6ae8369cd0069022E', symObjAddr: 0xE1C, symBinAddr: 0x1ACF8, symSize: 0x84 }
  - { offset: 0xA86D8, size: 0x8, addend: 0x0, symName: '__ZN79_$LT$core..result..Result$LT$T$C$E$GT$$u20$as$u20$core..ops..try_trait..Try$GT$6branch17h799f1cc158b3f83bE', symObjAddr: 0xEA0, symBinAddr: 0x1AD7C, symSize: 0xB0 }
  - { offset: 0xA8755, size: 0x8, addend: 0x0, symName: '__ZN79_$LT$core..result..Result$LT$T$C$E$GT$$u20$as$u20$core..ops..try_trait..Try$GT$6branch17h93e9a7176a086756E', symObjAddr: 0xFC4, symBinAddr: 0x1AE2C, symSize: 0x98 }
  - { offset: 0xA87D2, size: 0x8, addend: 0x0, symName: '__ZN79_$LT$core..result..Result$LT$T$C$E$GT$$u20$as$u20$core..ops..try_trait..Try$GT$6branch17h95fb552fd3d88464E', symObjAddr: 0x105C, symBinAddr: 0x1AEC4, symSize: 0x84 }
  - { offset: 0xA8850, size: 0x8, addend: 0x0, symName: '__ZN79_$LT$core..result..Result$LT$T$C$E$GT$$u20$as$u20$core..ops..try_trait..Try$GT$6branch17h98c4bb54b10c9e9bE', symObjAddr: 0x10E0, symBinAddr: 0x1AF48, symSize: 0x94 }
  - { offset: 0xA88CD, size: 0x8, addend: 0x0, symName: '__ZN79_$LT$core..result..Result$LT$T$C$E$GT$$u20$as$u20$core..ops..try_trait..Try$GT$6branch17ha1fd01f939c99433E', symObjAddr: 0x1174, symBinAddr: 0x1AFDC, symSize: 0x84 }
  - { offset: 0xA894B, size: 0x8, addend: 0x0, symName: '__ZN79_$LT$core..result..Result$LT$T$C$E$GT$$u20$as$u20$core..ops..try_trait..Try$GT$6branch17ha9a629465125aad9E', symObjAddr: 0x11F8, symBinAddr: 0x1B060, symSize: 0x98 }
  - { offset: 0xA89C8, size: 0x8, addend: 0x0, symName: '__ZN79_$LT$core..result..Result$LT$T$C$E$GT$$u20$as$u20$core..ops..try_trait..Try$GT$6branch17hb0b437f0d0016061E', symObjAddr: 0x1290, symBinAddr: 0x1B0F8, symSize: 0x94 }
  - { offset: 0xA8A45, size: 0x8, addend: 0x0, symName: '__ZN79_$LT$core..result..Result$LT$T$C$E$GT$$u20$as$u20$core..ops..try_trait..Try$GT$6branch17he9f4469805d6b80bE', symObjAddr: 0x13F4, symBinAddr: 0x1B18C, symSize: 0xAC }
  - { offset: 0xA8AC3, size: 0x8, addend: 0x0, symName: '__ZN79_$LT$core..result..Result$LT$T$C$E$GT$$u20$as$u20$core..ops..try_trait..Try$GT$6branch17hfca18e037eef21a5E', symObjAddr: 0x14A0, symBinAddr: 0x1B238, symSize: 0x7C }
  - { offset: 0xA8B40, size: 0x8, addend: 0x0, symName: '__ZN79_$LT$core..result..Result$LT$T$C$E$GT$$u20$as$u20$core..ops..try_trait..Try$GT$6branch17hff88813f4362e05fE', symObjAddr: 0x15CC, symBinAddr: 0x1B2B4, symSize: 0xB0 }
  - { offset: 0xAA634, size: 0x8, addend: 0x0, symName: '__ZN4core6result19Result$LT$T$C$E$GT$7map_err17h45af0a3801f15783E', symObjAddr: 0x718, symBinAddr: 0x1A704, symSize: 0x88 }
  - { offset: 0xAA6CE, size: 0x8, addend: 0x0, symName: '__ZN4core6result19Result$LT$T$C$E$GT$7map_err17h99b80e0564dae982E', symObjAddr: 0x7A0, symBinAddr: 0x1A78C, symSize: 0x94 }
  - { offset: 0xAA76E, size: 0x8, addend: 0x0, symName: '__ZN4core6result19Result$LT$T$C$E$GT$7map_err17hbeea3d1b3d97cfc3E', symObjAddr: 0x834, symBinAddr: 0x1A820, symSize: 0xD0 }
  - { offset: 0xAA887, size: 0x8, addend: 0x0, symName: __ZN4core4char7methods15encode_utf8_raw17hf3357ccfd91089b0E, symObjAddr: 0x0, symBinAddr: 0x1B364, symSize: 0x100 }
  - { offset: 0xAA8F9, size: 0x8, addend: 0x0, symName: __ZN4core4char7methods15encode_utf8_raw8do_panic7runtime17hdb6926fcb7679c6aE, symObjAddr: 0x100, symBinAddr: 0x1B464, symSize: 0xC4 }
  - { offset: 0xAA9F6, size: 0x8, addend: 0x0, symName: __ZN4core4char7methods15encode_utf8_raw17hf3357ccfd91089b0E, symObjAddr: 0x0, symBinAddr: 0x1B364, symSize: 0x100 }
  - { offset: 0xAAB17, size: 0x8, addend: 0x0, symName: '__ZN4core4char7methods22_$LT$impl$u20$char$GT$13is_alphabetic17h71acd67759c71677E', symObjAddr: 0x1C4, symBinAddr: 0x1B528, symSize: 0xC0 }
  - { offset: 0xAAB71, size: 0x8, addend: 0x0, symName: '__ZN4core4char7methods22_$LT$impl$u20$char$GT$13is_whitespace17h869afb50d201a05fE', symObjAddr: 0x284, symBinAddr: 0x1B5E8, symSize: 0x90 }
  - { offset: 0xAABB5, size: 0x8, addend: 0x0, symName: '__ZN4core4char7methods22_$LT$impl$u20$char$GT$14is_ascii_digit17h7bd6ac0ac2d24635E', symObjAddr: 0x314, symBinAddr: 0x1B678, symSize: 0x64 }
  - { offset: 0xAAC01, size: 0x8, addend: 0x0, symName: '__ZN4core4char7methods22_$LT$impl$u20$char$GT$15is_alphanumeric17hfb5691e874520401E', symObjAddr: 0x378, symBinAddr: 0x1B6DC, symSize: 0x14C }
  - { offset: 0xAAC68, size: 0x8, addend: 0x0, symName: '__ZN4core4char7methods22_$LT$impl$u20$char$GT$8to_digit17hc15c6d8b16b44575E', symObjAddr: 0x4C4, symBinAddr: 0x1B828, symSize: 0x120 }
  - { offset: 0xAAD1E, size: 0x8, addend: 0x0, symName: __ZN4core4char7methods25encode_utf8_raw_unchecked17h9a0aa53efcca55c8E, symObjAddr: 0x5E4, symBinAddr: 0x1B948, symSize: 0x188 }
  - { offset: 0xAB572, size: 0x8, addend: 0x0, symName: __ZN4core7unicode12unicode_data11white_space6lookup17ha531b7a9978b494fE, symObjAddr: 0x0, symBinAddr: 0x1BAD0, symSize: 0x14C }
  - { offset: 0xAB593, size: 0x8, addend: 0x0, symName: __ZN4core7unicode12unicode_data11white_space6lookup17ha531b7a9978b494fE, symObjAddr: 0x0, symBinAddr: 0x1BAD0, symSize: 0x14C }
  - { offset: 0xAB5F1, size: 0x8, addend: 0x0, symName: '__ZN4core3cmp5impls55_$LT$impl$u20$core..cmp..PartialEq$u20$for$u20$bool$GT$2eq17hb72a67c792596c88E', symObjAddr: 0x0, symBinAddr: 0x1BC1C, symSize: 0x34 }
  - { offset: 0xAB612, size: 0x8, addend: 0x0, symName: '__ZN4core3cmp5impls55_$LT$impl$u20$core..cmp..PartialEq$u20$for$u20$bool$GT$2eq17hb72a67c792596c88E', symObjAddr: 0x0, symBinAddr: 0x1BC1C, symSize: 0x34 }
  - { offset: 0xAB685, size: 0x8, addend: 0x0, symName: '__ZN4core3num21_$LT$impl$u20$i64$GT$16from_ascii_radix17h4a8605af51b003a0E', symObjAddr: 0x0, symBinAddr: 0x1BC50, symSize: 0x7BC }
  - { offset: 0xAB898, size: 0x8, addend: 0x0, symName: '__ZN4core3num21_$LT$impl$u20$i64$GT$16from_ascii_radix17h4a8605af51b003a0E', symObjAddr: 0x0, symBinAddr: 0x1BC50, symSize: 0x7BC }
  - { offset: 0xABD46, size: 0x8, addend: 0x0, symName: '__ZN4core3num21_$LT$impl$u20$u16$GT$13from_le_bytes17h7e40343414f96ccbE', symObjAddr: 0x7D4, symBinAddr: 0x1C40C, symSize: 0x1C }
  - { offset: 0xABDA0, size: 0x8, addend: 0x0, symName: '__ZN4core3num21_$LT$impl$u20$u32$GT$13from_le_bytes17h0ad9f1acd7bed599E', symObjAddr: 0x808, symBinAddr: 0x1C428, symSize: 0x1C }
  - { offset: 0xABDFA, size: 0x8, addend: 0x0, symName: '__ZN4core3num21_$LT$impl$u20$u64$GT$13from_le_bytes17hf1c9653eda888304E', symObjAddr: 0x83C, symBinAddr: 0x1C444, symSize: 0x1C }
  - { offset: 0xABE66, size: 0x8, addend: 0x0, symName: '__ZN4core3num23_$LT$impl$u20$isize$GT$13unchecked_neg18precondition_check17he87db09f26e26c75E', symObjAddr: 0x858, symBinAddr: 0x1C460, symSize: 0x6C }
  - { offset: 0xABF1D, size: 0x8, addend: 0x0, symName: '__ZN4core3num23_$LT$impl$u20$usize$GT$13unchecked_add18precondition_check17h2ceb0b7d0ec2fe54E', symObjAddr: 0x8C4, symBinAddr: 0x1C4CC, symSize: 0x64 }
  - { offset: 0xABF9C, size: 0x8, addend: 0x0, symName: '__ZN4core3num23_$LT$impl$u20$usize$GT$13unchecked_sub18precondition_check17hb42bcc79af424525E', symObjAddr: 0x928, symBinAddr: 0x1C530, symSize: 0x60 }
  - { offset: 0xABFF0, size: 0x8, addend: 0x0, symName: '__ZN4core3num23_$LT$impl$u20$usize$GT$14is_multiple_of17hea212401e7b98098E', symObjAddr: 0x988, symBinAddr: 0x1C590, symSize: 0x88 }
  - { offset: 0xAC033, size: 0x8, addend: 0x0, symName: '__ZN4core3num60_$LT$impl$u20$core..str..traits..FromStr$u20$for$u20$i64$GT$8from_str17h21310fb9f2db4311E', symObjAddr: 0xA10, symBinAddr: 0x1C618, symSize: 0x30 }
  - { offset: 0xAC328, size: 0x8, addend: 0x0, symName: '__ZN52_$LT$char$u20$as$u20$core..str..pattern..Pattern$GT$15is_contained_in17hba4b583362e46e14E', symObjAddr: 0x0, symBinAddr: 0x1C648, symSize: 0xB4 }
  - { offset: 0xAC5CC, size: 0x8, addend: 0x0, symName: '__ZN52_$LT$char$u20$as$u20$core..str..pattern..Pattern$GT$15is_contained_in17hba4b583362e46e14E', symObjAddr: 0x0, symBinAddr: 0x1C648, symSize: 0xB4 }
  - { offset: 0xAC6EC, size: 0x8, addend: 0x0, symName: '__ZN55_$LT$$RF$str$u20$as$u20$core..str..pattern..Pattern$GT$15is_contained_in17h8b9d8951f7bf14eeE', symObjAddr: 0xB4, symBinAddr: 0x1C6FC, symSize: 0x164 }
  - { offset: 0xACA0B, size: 0x8, addend: 0x0, symName: '__ZN80_$LT$core..str..pattern..StrSearcher$u20$as$u20$core..str..pattern..Searcher$GT$10next_match17h26b82b1eb7902091E', symObjAddr: 0x218, symBinAddr: 0x1C860, symSize: 0x148 }
  - { offset: 0xACA97, size: 0x8, addend: 0x0, symName: '__ZN80_$LT$core..str..pattern..StrSearcher$u20$as$u20$core..str..pattern..Searcher$GT$4next17h60be61038cbd393aE', symObjAddr: 0x360, symBinAddr: 0x1C9A8, symSize: 0x434 }
  - { offset: 0xACD8B, size: 0x8, addend: 0x0, symName: '__ZN84_$LT$core..str..pattern..MatchOnly$u20$as$u20$core..str..pattern..TwoWayStrategy$GT$16use_early_reject17hb4589a84c51259c3E', symObjAddr: 0x794, symBinAddr: 0x1CDDC, symSize: 0xC }
  - { offset: 0xACDA9, size: 0x8, addend: 0x0, symName: '__ZN84_$LT$core..str..pattern..MatchOnly$u20$as$u20$core..str..pattern..TwoWayStrategy$GT$8matching17h736da462163b22f2E', symObjAddr: 0x7A0, symBinAddr: 0x1CDE8, symSize: 0x28 }
  - { offset: 0xACDE6, size: 0x8, addend: 0x0, symName: '__ZN84_$LT$core..str..pattern..MatchOnly$u20$as$u20$core..str..pattern..TwoWayStrategy$GT$9rejecting17h098f2f13f4376c5eE', symObjAddr: 0x7C8, symBinAddr: 0x1CE10, symSize: 0x18 }
  - { offset: 0xACE29, size: 0x8, addend: 0x0, symName: '__ZN89_$LT$core..str..pattern..RejectAndMatch$u20$as$u20$core..str..pattern..TwoWayStrategy$GT$16use_early_reject17ha5d0555620bc6fb1E', symObjAddr: 0x7E0, symBinAddr: 0x1CE28, symSize: 0xC }
  - { offset: 0xACE47, size: 0x8, addend: 0x0, symName: '__ZN89_$LT$core..str..pattern..RejectAndMatch$u20$as$u20$core..str..pattern..TwoWayStrategy$GT$8matching17hb46774e2c5207ad0E', symObjAddr: 0x7EC, symBinAddr: 0x1CE34, symSize: 0x20 }
  - { offset: 0xACE84, size: 0x8, addend: 0x0, symName: '__ZN89_$LT$core..str..pattern..RejectAndMatch$u20$as$u20$core..str..pattern..TwoWayStrategy$GT$9rejecting17h8d70edf6e24fa27dE', symObjAddr: 0x80C, symBinAddr: 0x1CE54, symSize: 0x28 }
  - { offset: 0xAD70C, size: 0x8, addend: 0x0, symName: '__ZN4core3str21_$LT$impl$u20$str$GT$3len17hca28eb4042c57331E', symObjAddr: 0x0, symBinAddr: 0x1CE7C, symSize: 0x1C }
  - { offset: 0xAD728, size: 0x8, addend: 0x0, symName: '__ZN4core3str21_$LT$impl$u20$str$GT$3len17hca28eb4042c57331E', symObjAddr: 0x0, symBinAddr: 0x1CE7C, symSize: 0x1C }
  - { offset: 0xAD754, size: 0x8, addend: 0x0, symName: '__ZN4core3str21_$LT$impl$u20$str$GT$4trim17he218a9c11f4e3fc2E', symObjAddr: 0x1C, symBinAddr: 0x1CE98, symSize: 0x28 }
  - { offset: 0xAD782, size: 0x8, addend: 0x0, symName: '__ZN4core3str21_$LT$impl$u20$str$GT$5chars17h7c4f8927c931396dE', symObjAddr: 0x44, symBinAddr: 0x1CEC0, symSize: 0x20 }
  - { offset: 0xAD7F0, size: 0x8, addend: 0x0, symName: '__ZN4core3str21_$LT$impl$u20$str$GT$8is_empty17h2b53a6a170ac70feE', symObjAddr: 0x64, symBinAddr: 0x1CEE0, symSize: 0x1C }
  - { offset: 0xAD9D3, size: 0x8, addend: 0x0, symName: __ZN4core5slice3raw14from_raw_parts18precondition_check17h05b517567d21a87fE, symObjAddr: 0x0, symBinAddr: 0x1CEFC, symSize: 0x10C }
  - { offset: 0xADB72, size: 0x8, addend: 0x0, symName: __ZN4core5slice3raw14from_raw_parts18precondition_check17h05b517567d21a87fE, symObjAddr: 0x0, symBinAddr: 0x1CEFC, symSize: 0x10C }
  - { offset: 0xADC8E, size: 0x8, addend: 0x0, symName: __ZN4core5slice3raw18from_raw_parts_mut18precondition_check17h690600b811d04638E, symObjAddr: 0x10C, symBinAddr: 0x1D008, symSize: 0x10C }
  - { offset: 0xADE50, size: 0x8, addend: 0x0, symName: '__ZN4core3f3221_$LT$impl$u20$f32$GT$13from_le_bytes17he7d9970c03d477fdE', symObjAddr: 0x18, symBinAddr: 0x1D114, symSize: 0x1C }
  - { offset: 0xADED6, size: 0x8, addend: 0x0, symName: '__ZN5alloc3str56_$LT$impl$u20$alloc..borrow..ToOwned$u20$for$u20$str$GT$8to_owned17hc2ffc09b79dd2f70E', symObjAddr: 0x0, symBinAddr: 0x1D130, symSize: 0x50 }
  - { offset: 0xAE18C, size: 0x8, addend: 0x0, symName: '__ZN5alloc3str56_$LT$impl$u20$alloc..borrow..ToOwned$u20$for$u20$str$GT$8to_owned17hc2ffc09b79dd2f70E', symObjAddr: 0x0, symBinAddr: 0x1D130, symSize: 0x50 }
  - { offset: 0xAE294, size: 0x8, addend: 0x0, symName: '__ZN53_$LT$T$u20$as$u20$core..slice..cmp..SliceContains$GT$14slice_contains17h523f21ac5d62287fE', symObjAddr: 0x0, symBinAddr: 0x1D180, symSize: 0x78 }
  - { offset: 0xAE33C, size: 0x8, addend: 0x0, symName: '__ZN53_$LT$T$u20$as$u20$core..slice..cmp..SliceContains$GT$14slice_contains17h523f21ac5d62287fE', symObjAddr: 0x0, symBinAddr: 0x1D180, symSize: 0x78 }
  - { offset: 0xAE48D, size: 0x8, addend: 0x0, symName: '__ZN53_$LT$T$u20$as$u20$core..slice..cmp..SliceContains$GT$14slice_contains28_$u7b$$u7b$closure$u7d$$u7d$17h6ada1204b1a6a097E', symObjAddr: 0x78, symBinAddr: 0x1D1F8, symSize: 0x38 }
  - { offset: 0xAE4DD, size: 0x8, addend: 0x0, symName: '__ZN73_$LT$$u5b$A$u5d$$u20$as$u20$core..slice..cmp..SlicePartialEq$LT$B$GT$$GT$5equal17hdd750bdaafa7f483E', symObjAddr: 0xB0, symBinAddr: 0x1D230, symSize: 0x88 }
  - { offset: 0xAE820, size: 0x8, addend: 0x0, symName: '__ZN102_$LT$core..str..iter..CharIndices$u20$as$u20$core..iter..traits..double_ended..DoubleEndedIterator$GT$9next_back17h816816f04f474954E', symObjAddr: 0x0, symBinAddr: 0x1D2B8, symSize: 0x180 }
  - { offset: 0xAE907, size: 0x8, addend: 0x0, symName: '__ZN102_$LT$core..str..iter..CharIndices$u20$as$u20$core..iter..traits..double_ended..DoubleEndedIterator$GT$9next_back17h816816f04f474954E', symObjAddr: 0x0, symBinAddr: 0x1D2B8, symSize: 0x180 }
  - { offset: 0xAEB74, size: 0x8, addend: 0x0, symName: '__ZN81_$LT$core..str..iter..Chars$u20$as$u20$core..iter..traits..iterator..Iterator$GT$4next17hbdd6452325ef9bd0E', symObjAddr: 0x180, symBinAddr: 0x1D438, symSize: 0x80 }
  - { offset: 0xAEC0F, size: 0x8, addend: 0x0, symName: '__ZN81_$LT$core..str..iter..Chars$u20$as$u20$core..iter..traits..iterator..Iterator$GT$9size_hint17h1c91e9e6b841499dE', symObjAddr: 0x200, symBinAddr: 0x1D4B8, symSize: 0xF4 }
  - { offset: 0xAEDBD, size: 0x8, addend: 0x0, symName: '__ZN87_$LT$core..str..iter..CharIndices$u20$as$u20$core..iter..traits..iterator..Iterator$GT$4next17h04bd88c07967aaa5E', symObjAddr: 0x2F4, symBinAddr: 0x1D5AC, symSize: 0x1A4 }
  - { offset: 0xAF8DE, size: 0x8, addend: 0x0, symName: '__ZN4core4iter5range101_$LT$impl$u20$core..iter..traits..iterator..Iterator$u20$for$u20$core..ops..range..Range$LT$A$GT$$GT$4next17h708a116997f010d5E', symObjAddr: 0xBC, symBinAddr: 0x1D750, symSize: 0x24 }
  - { offset: 0xAF91B, size: 0x8, addend: 0x0, symName: '__ZN89_$LT$core..ops..range..Range$LT$T$GT$$u20$as$u20$core..iter..range..RangeIteratorImpl$GT$9spec_next17h05ba3fd5e1e9dfedE', symObjAddr: 0xF4, symBinAddr: 0x1D788, symSize: 0x94 }
  - { offset: 0xAF9A7, size: 0x8, addend: 0x0, symName: '__ZN63_$LT$I$u20$as$u20$core..iter..traits..collect..IntoIterator$GT$9into_iter17h42072c3e3ecd6ef7E', symObjAddr: 0xE0, symBinAddr: 0x1D774, symSize: 0x14 }
  - { offset: 0xAFAA9, size: 0x8, addend: 0x0, symName: __ZN11kinodb_core6header10FileHeader10from_bytes17h357e74d7529f6cafE, symObjAddr: 0x0, symBinAddr: 0x1D81C, symSize: 0x8C4 }
  - { offset: 0xB025B, size: 0x8, addend: 0x0, symName: '__ZN69_$LT$kinodb_core..header..HeaderError$u20$as$u20$core..fmt..Debug$GT$3fmt17h52da6b421e81f935E', symObjAddr: 0xC64, symBinAddr: 0x1E0E0, symSize: 0x15C }
  - { offset: 0xB0301, size: 0x8, addend: 0x0, symName: '__ZN71_$LT$kinodb_core..header..HeaderError$u20$as$u20$core..fmt..Display$GT$3fmt17hcbf765e3664b3947E', symObjAddr: 0xDC0, symBinAddr: 0x1E23C, symSize: 0x23C }
  - { offset: 0xB045A, size: 0x8, addend: 0x0, symName: __ZN11kinodb_core6header10FileHeader10from_bytes17h357e74d7529f6cafE, symObjAddr: 0x0, symBinAddr: 0x1D81C, symSize: 0x8C4 }
  - { offset: 0xB0DCB, size: 0x8, addend: 0x0, symName: '__ZN78_$LT$std..io..error..repr_bitpacked..Repr$u20$as$u20$core..ops..drop..Drop$GT$4drop28_$u7b$$u7b$closure$u7d$$u7d$17h19f2f1e1aed132abE', symObjAddr: 0x3CC, symBinAddr: 0x1E654, symSize: 0x3C }
  - { offset: 0xB0E81, size: 0x8, addend: 0x0, symName: __ZN3std2io5error14repr_bitpacked11decode_repr17hd54cdc29b908bcddE, symObjAddr: 0x1DC, symBinAddr: 0x1E478, symSize: 0x1DC }
  - { offset: 0xB1A7A, size: 0x8, addend: 0x0, symName: __ZN4core5slice6memchr6memchr17h1f7c37bc04736df2E, symObjAddr: 0x0, symBinAddr: 0x1E690, symSize: 0x114 }
  - { offset: 0xB1ACB, size: 0x8, addend: 0x0, symName: __ZN4core5slice6memchr6memchr17h1f7c37bc04736df2E, symObjAddr: 0x0, symBinAddr: 0x1E690, symSize: 0x114 }
  - { offset: 0xB1BF9, size: 0x8, addend: 0x0, symName: __ZN4core3fmt9Arguments23as_statically_known_str17hf7f31af0a9505c44E, symObjAddr: 0x0, symBinAddr: 0x1E7A4, symSize: 0x104 }
  - { offset: 0xB20EB, size: 0x8, addend: 0x0, symName: __ZN4core3fmt9Arguments23as_statically_known_str17hf7f31af0a9505c44E, symObjAddr: 0x0, symBinAddr: 0x1E7A4, symSize: 0x104 }
  - { offset: 0xB21C5, size: 0x8, addend: 0x0, symName: __ZN4core3fmt9Arguments8from_str17h5ad47c91a9ffec4aE, symObjAddr: 0x104, symBinAddr: 0x1E8A8, symSize: 0x20 }
  - { offset: 0xB21E8, size: 0x8, addend: 0x0, symName: __ZN4core3fmt9Formatter9write_fmt17h45ed8093544b4f56E, symObjAddr: 0x124, symBinAddr: 0x1E8C8, symSize: 0xA4 }
  - { offset: 0xB2256, size: 0x8, addend: 0x0, symName: __ZN11kinodb_core5index10IndexEntry10from_bytes17h82f43a02567001d9E, symObjAddr: 0x0, symBinAddr: 0x1E96C, symSize: 0xCE8 }
  - { offset: 0xB2F14, size: 0x8, addend: 0x0, symName: '__ZN67_$LT$kinodb_core..index..IndexError$u20$as$u20$core..fmt..Debug$GT$3fmt17h5acf54cf57cfe0ccE', symObjAddr: 0x17D4, symBinAddr: 0x1FA3C, symSize: 0x100 }
  - { offset: 0xB2F9D, size: 0x8, addend: 0x0, symName: '__ZN69_$LT$kinodb_core..index..IndexEntry$u20$as$u20$core..clone..Clone$GT$5clone17hdfdc3ef17b78e80fE', symObjAddr: 0x18D4, symBinAddr: 0x1FB3C, symSize: 0x80 }
  - { offset: 0xB2FCF, size: 0x8, addend: 0x0, symName: '__ZN69_$LT$kinodb_core..index..IndexError$u20$as$u20$core..fmt..Display$GT$3fmt17h8e4641acedfd59a9E', symObjAddr: 0x1954, symBinAddr: 0x1FBBC, symSize: 0x158 }
  - { offset: 0xB30F0, size: 0x8, addend: 0x0, symName: __ZN11kinodb_core5index10IndexEntry10from_bytes17h82f43a02567001d9E, symObjAddr: 0x0, symBinAddr: 0x1E96C, symSize: 0xCE8 }
  - { offset: 0xB3B43, size: 0x8, addend: 0x0, symName: __ZN11kinodb_core5index12EpisodeIndex10from_bytes17h22bb4b78508453f1E, symObjAddr: 0x112C, symBinAddr: 0x1F654, symSize: 0x390 }
  - { offset: 0xB3CBE, size: 0x8, addend: 0x0, symName: __ZN11kinodb_core5index12EpisodeIndex3get17he31fc55d87a2802cE, symObjAddr: 0x14D4, symBinAddr: 0x1F9E4, symSize: 0x34 }
  - { offset: 0xB3CEE, size: 0x8, addend: 0x0, symName: __ZN11kinodb_core5index12EpisodeIndex3len17h686c65af8554a07bE, symObjAddr: 0x1508, symBinAddr: 0x1FA18, symSize: 0x24 }
  - { offset: 0xB3E31, size: 0x8, addend: 0x0, symName: __ZN4core4iter6traits8iterator8Iterator7collect17h15d972437a72cca2E, symObjAddr: 0x0, symBinAddr: 0x1FD14, symSize: 0x2C }
  - { offset: 0xB3E57, size: 0x8, addend: 0x0, symName: __ZN4core4iter6traits8iterator8Iterator7collect17h15d972437a72cca2E, symObjAddr: 0x0, symBinAddr: 0x1FD14, symSize: 0x2C }
  - { offset: 0xB3EA3, size: 0x8, addend: 0x0, symName: '__ZN63_$LT$I$u20$as$u20$core..iter..traits..collect..IntoIterator$GT$9into_iter17hac4d0599772e2ba5E', symObjAddr: 0x2C, symBinAddr: 0x1FD40, symSize: 0x1C }
  - { offset: 0xB4102, size: 0x8, addend: 0x0, symName: '__ZN4core3ptr9const_ptr33_$LT$impl$u20$$BP$const$u20$T$GT$20offset_from_unsigned18precondition_check17h38a6d2b1e4ebdcb7E', symObjAddr: 0x0, symBinAddr: 0x1FD5C, symSize: 0x60 }
  - { offset: 0xB4128, size: 0x8, addend: 0x0, symName: '__ZN4core3ptr9const_ptr33_$LT$impl$u20$$BP$const$u20$T$GT$20offset_from_unsigned18precondition_check17h38a6d2b1e4ebdcb7E', symObjAddr: 0x0, symBinAddr: 0x1FD5C, symSize: 0x60 }
  - { offset: 0xB41E7, size: 0x8, addend: 0x0, symName: '__ZN5alloc5boxed7convert110_$LT$impl$u20$core..convert..From$LT$E$GT$$u20$for$u20$alloc..boxed..Box$LT$dyn$u20$core..error..Error$GT$$GT$4from17h1c70a71881497df7E', symObjAddr: 0x0, symBinAddr: 0x1FDBC, symSize: 0x80 }
  - { offset: 0xB4A97, size: 0x8, addend: 0x0, symName: '__ZN5alloc5boxed7convert110_$LT$impl$u20$core..convert..From$LT$E$GT$$u20$for$u20$alloc..boxed..Box$LT$dyn$u20$core..error..Error$GT$$GT$4from17h1c70a71881497df7E', symObjAddr: 0x0, symBinAddr: 0x1FDBC, symSize: 0x80 }
  - { offset: 0xB4AEE, size: 0x8, addend: 0x0, symName: '__ZN5alloc5boxed7convert110_$LT$impl$u20$core..convert..From$LT$E$GT$$u20$for$u20$alloc..boxed..Box$LT$dyn$u20$core..error..Error$GT$$GT$4from17hc2a968029c4f31aaE', symObjAddr: 0x80, symBinAddr: 0x1FE3C, symSize: 0x80 }
  - { offset: 0xB4BBC, size: 0x8, addend: 0x0, symName: '__ZN49_$LT$F$u20$as$u20$core..str..pattern..Pattern$GT$13into_searcher17h11dff062eae7d81bE', symObjAddr: 0x0, symBinAddr: 0x1FEBC, symSize: 0x48 }
  - { offset: 0xB4BDD, size: 0x8, addend: 0x0, symName: '__ZN49_$LT$F$u20$as$u20$core..str..pattern..Pattern$GT$13into_searcher17h11dff062eae7d81bE', symObjAddr: 0x0, symBinAddr: 0x1FEBC, symSize: 0x48 }
  - { offset: 0xB4C29, size: 0x8, addend: 0x0, symName: '__ZN53_$LT$F$u20$as$u20$core..str..pattern..MultiCharEq$GT$7matches17h0cbe77fcb6d760a0E', symObjAddr: 0x48, symBinAddr: 0x1FF04, symSize: 0x28 }
  - { offset: 0xB4E27, size: 0x8, addend: 0x0, symName: __ZN4core3fmt2rt8Argument11new_display17h0f5639500bcb475eE, symObjAddr: 0x0, symBinAddr: 0x1FF2C, symSize: 0x2C }
  - { offset: 0xB5624, size: 0x8, addend: 0x0, symName: __ZN4core3fmt2rt8Argument11new_display17h0f5639500bcb475eE, symObjAddr: 0x0, symBinAddr: 0x1FF2C, symSize: 0x2C }
  - { offset: 0xB565C, size: 0x8, addend: 0x0, symName: __ZN4core3fmt2rt8Argument11new_display17h28973bfbdab8bcb1E, symObjAddr: 0x2C, symBinAddr: 0x1FF58, symSize: 0x2C }
  - { offset: 0xB59F4, size: 0x8, addend: 0x0, symName: __ZN4core3fmt2rt8Argument11new_display17h6214f5af0cf5869bE, symObjAddr: 0x84, symBinAddr: 0x1FF84, symSize: 0x2C }
  - { offset: 0xB5A39, size: 0x8, addend: 0x0, symName: __ZN4core3fmt2rt8Argument11new_display17h6cb4681de9cd4f99E, symObjAddr: 0xB0, symBinAddr: 0x1FFB0, symSize: 0x2C }
  - { offset: 0xB5A7E, size: 0x8, addend: 0x0, symName: __ZN4core3fmt2rt8Argument11new_display17h80704a6b66cd895aE, symObjAddr: 0xDC, symBinAddr: 0x1FFDC, symSize: 0x2C }
  - { offset: 0xB5BA7, size: 0x8, addend: 0x0, symName: __ZN4core3fmt2rt8Argument11new_display17hbceaefb77c1030dbE, symObjAddr: 0x108, symBinAddr: 0x20008, symSize: 0x2C }
  - { offset: 0xB5BD2, size: 0x8, addend: 0x0, symName: __ZN4core3fmt2rt8Argument11new_display17hbfa4a5c1aad590e8E, symObjAddr: 0x134, symBinAddr: 0x20034, symSize: 0x2C }
  - { offset: 0xB5C17, size: 0x8, addend: 0x0, symName: __ZN4core3fmt2rt8Argument11new_display17hda4f3ab6eb198a8aE, symObjAddr: 0x160, symBinAddr: 0x20060, symSize: 0x2C }
  - { offset: 0xB5C5C, size: 0x8, addend: 0x0, symName: __ZN4core3fmt2rt8Argument11new_display17heab45db36fff3e08E, symObjAddr: 0x18C, symBinAddr: 0x2008C, symSize: 0x2C }
  - { offset: 0xB5CA1, size: 0x8, addend: 0x0, symName: __ZN4core3fmt2rt8Argument11new_display17hfea3ffbb93037075E, symObjAddr: 0x1E4, symBinAddr: 0x200B8, symSize: 0x2C }
  - { offset: 0xB5CE6, size: 0x8, addend: 0x0, symName: __ZN4core3fmt2rt8Argument9new_debug17h474ffc965695df4cE, symObjAddr: 0x210, symBinAddr: 0x200E4, symSize: 0x2C }
  - { offset: 0xB5D2B, size: 0x8, addend: 0x0, symName: __ZN4core3fmt2rt8Argument9new_debug17h55c922fbfd8d8721E, symObjAddr: 0x23C, symBinAddr: 0x20110, symSize: 0x2C }
  - { offset: 0xB5D56, size: 0x8, addend: 0x0, symName: __ZN4core3fmt2rt8Argument9new_debug17h922713c4f273ef34E, symObjAddr: 0x268, symBinAddr: 0x2013C, symSize: 0x2C }
  - { offset: 0xB5D81, size: 0x8, addend: 0x0, symName: __ZN4core3fmt2rt8Argument9new_debug17hcbb6d4b138980c72E, symObjAddr: 0x294, symBinAddr: 0x20168, symSize: 0x2C }
  - { offset: 0xB5DCA, size: 0x8, addend: 0x0, symName: '__ZN5alloc3vec16Vec$LT$T$C$A$GT$7set_len18precondition_check17h16faaa7135f75618E', symObjAddr: 0x0, symBinAddr: 0x20194, symSize: 0x60 }
  - { offset: 0xB5DEB, size: 0x8, addend: 0x0, symName: '__ZN5alloc3vec16Vec$LT$T$C$A$GT$7set_len18precondition_check17h16faaa7135f75618E', symObjAddr: 0x0, symBinAddr: 0x20194, symSize: 0x60 }
  - { offset: 0xB5E95, size: 0x8, addend: 0x0, symName: __ZN4core4hint16assert_unchecked18precondition_check17he3f3778e843334a6E, symObjAddr: 0x0, symBinAddr: 0x201F4, symSize: 0x58 }
  - { offset: 0xB5EB1, size: 0x8, addend: 0x0, symName: __ZN4core4hint16assert_unchecked18precondition_check17he3f3778e843334a6E, symObjAddr: 0x0, symBinAddr: 0x201F4, symSize: 0x58 }
  - { offset: 0xB5EFC, size: 0x8, addend: 0x0, symName: __ZN4core4hint21unreachable_unchecked18precondition_check17h8fe9595aef64086fE, symObjAddr: 0x58, symBinAddr: 0x2024C, symSize: 0x3C }
  - { offset: 0xB5F90, size: 0x8, addend: 0x0, symName: __ZN4core9ub_checks23maybe_is_nonoverlapping7runtime17hf156606a85f114c3E, symObjAddr: 0x0, symBinAddr: 0x20288, symSize: 0xD8 }
  - { offset: 0xB6115, size: 0x8, addend: 0x0, symName: __ZN4core9ub_checks23maybe_is_nonoverlapping7runtime17hf156606a85f114c3E, symObjAddr: 0x0, symBinAddr: 0x20288, symSize: 0xD8 }
  - { offset: 0xB6328, size: 0x8, addend: 0x0, symName: '__ZN5alloc5slice29_$LT$impl$u20$$u5b$T$u5d$$GT$6to_vec17hd9d55e176211d4e0E', symObjAddr: 0x0, symBinAddr: 0x20360, symSize: 0x28 }
  - { offset: 0xB6381, size: 0x8, addend: 0x0, symName: '__ZN5alloc5slice29_$LT$impl$u20$$u5b$T$u5d$$GT$6to_vec17hd9d55e176211d4e0E', symObjAddr: 0x0, symBinAddr: 0x20360, symSize: 0x28 }
  - { offset: 0xB63E8, size: 0x8, addend: 0x0, symName: '__ZN87_$LT$T$u20$as$u20$alloc..slice..$LT$impl$u20$$u5b$T$u5d$$GT$..to_vec_in..ConvertVec$GT$6to_vec17h776fa56f62694d8cE', symObjAddr: 0x28, symBinAddr: 0x20388, symSize: 0xF4 }
  - { offset: 0xB6C0B, size: 0x8, addend: 0x0, symName: '__ZN11kinodb_core6reader6Cursor11read_string28_$u7b$$u7b$closure$u7d$$u7d$17hd7e7887433e87106E', symObjAddr: 0x0, symBinAddr: 0x2047C, symSize: 0x48 }
  - { offset: 0xB6E91, size: 0x8, addend: 0x0, symName: '__ZN11kinodb_core6reader6Cursor11read_string28_$u7b$$u7b$closure$u7d$$u7d$17hd7e7887433e87106E', symObjAddr: 0x0, symBinAddr: 0x2047C, symSize: 0x48 }
  - { offset: 0xB72AA, size: 0x8, addend: 0x0, symName: __ZN4core5error5Error11description17h8801c6e911400c2cE, symObjAddr: 0x384, symBinAddr: 0x204C4, symSize: 0x20 }
  - { offset: 0xB72DF, size: 0x8, addend: 0x0, symName: __ZN4core5error5Error5cause17h1b8ed2c49c7cbb9cE, symObjAddr: 0x3A4, symBinAddr: 0x204E4, symSize: 0x24 }
  - { offset: 0xB7314, size: 0x8, addend: 0x0, symName: __ZN4core5error5Error6source17hfa6a396a38999f7aE, symObjAddr: 0x3C8, symBinAddr: 0x20508, symSize: 0x24 }
  - { offset: 0xB7349, size: 0x8, addend: 0x0, symName: __ZN4core5error5Error7provide17h5d6567f47a9516beE, symObjAddr: 0x3EC, symBinAddr: 0x2052C, symSize: 0x18 }
  - { offset: 0xB738B, size: 0x8, addend: 0x0, symName: __ZN4core5error5Error7type_id17hac33d8ee9abb0866E, symObjAddr: 0x404, symBinAddr: 0x20544, symSize: 0x20 }
  - { offset: 0xB76F8, size: 0x8, addend: 0x0, symName: '__ZN53_$LT$T$u20$as$u20$core..convert..TryInto$LT$U$GT$$GT$8try_into17h2c7df20066427b1fE', symObjAddr: 0x0, symBinAddr: 0x20564, symSize: 0x50 }
  - { offset: 0xB7714, size: 0x8, addend: 0x0, symName: '__ZN53_$LT$T$u20$as$u20$core..convert..TryInto$LT$U$GT$$GT$8try_into17h2c7df20066427b1fE', symObjAddr: 0x0, symBinAddr: 0x20564, symSize: 0x50 }
  - { offset: 0xB7754, size: 0x8, addend: 0x0, symName: '__ZN53_$LT$T$u20$as$u20$core..convert..TryInto$LT$U$GT$$GT$8try_into17h5fc6e5a2522a5dabE', symObjAddr: 0x50, symBinAddr: 0x205B4, symSize: 0x28 }
  - { offset: 0xB7794, size: 0x8, addend: 0x0, symName: '__ZN53_$LT$T$u20$as$u20$core..convert..TryInto$LT$U$GT$$GT$8try_into17h6a878ab4f9a4bc66E', symObjAddr: 0x78, symBinAddr: 0x205DC, symSize: 0x58 }
  - { offset: 0xB7A00, size: 0x8, addend: 0x0, symName: '__ZN4core5array8equality103_$LT$impl$u20$core..cmp..PartialEq$LT$$u5b$U$u3b$$u20$N$u5d$$GT$$u20$for$u20$$u5b$T$u3b$$u20$N$u5d$$GT$2ne17hf108d2d69014c6a9E', symObjAddr: 0x0, symBinAddr: 0x20634, symSize: 0x2C }
  - { offset: 0xB7A21, size: 0x8, addend: 0x0, symName: '__ZN4core5array8equality103_$LT$impl$u20$core..cmp..PartialEq$LT$$u5b$U$u3b$$u20$N$u5d$$GT$$u20$for$u20$$u5b$T$u3b$$u20$N$u5d$$GT$2ne17hf108d2d69014c6a9E', symObjAddr: 0x0, symBinAddr: 0x20634, symSize: 0x2C }
  - { offset: 0xB7AAC, size: 0x8, addend: 0x0, symName: '__ZN69_$LT$T$u20$as$u20$core..array..equality..SpecArrayEq$LT$U$C$_$GT$$GT$7spec_ne17h6f7086e5564ff228E', symObjAddr: 0x2C, symBinAddr: 0x20660, symSize: 0x3C }
  - { offset: 0xB7B6E, size: 0x8, addend: 0x0, symName: __ZN4core3str11validations15next_code_point17h44a7c96629b98f2dE, symObjAddr: 0x0, symBinAddr: 0x2069C, symSize: 0x224 }
  - { offset: 0xB7BD9, size: 0x8, addend: 0x0, symName: __ZN4core3str11validations15next_code_point17h44a7c96629b98f2dE, symObjAddr: 0x0, symBinAddr: 0x2069C, symSize: 0x224 }
  - { offset: 0xB7E8F, size: 0x8, addend: 0x0, symName: __ZN4core3str11validations23next_code_point_reverse17hee4f1cfc241f71d1E, symObjAddr: 0x224, symBinAddr: 0x208C0, symSize: 0x238 }
  - { offset: 0xB8640, size: 0x8, addend: 0x0, symName: '__ZN104_$LT$core..iter..adapters..cloned..Cloned$LT$I$GT$$u20$as$u20$core..iter..traits..iterator..Iterator$GT$4fold17he0b7560defe60b55E', symObjAddr: 0x0, symBinAddr: 0x20AF8, symSize: 0xB8 }
  - { offset: 0xB8700, size: 0x8, addend: 0x0, symName: '__ZN104_$LT$core..iter..adapters..cloned..Cloned$LT$I$GT$$u20$as$u20$core..iter..traits..iterator..Iterator$GT$4fold17he0b7560defe60b55E', symObjAddr: 0x0, symBinAddr: 0x20AF8, symSize: 0xB8 }
  - { offset: 0xB8795, size: 0x8, addend: 0x0, symName: '__ZN104_$LT$core..iter..adapters..cloned..Cloned$LT$I$GT$$u20$as$u20$core..iter..traits..iterator..Iterator$GT$9size_hint17h962c933866e6df95E', symObjAddr: 0xB8, symBinAddr: 0x20BB0, symSize: 0x24 }
  - { offset: 0xB8822, size: 0x8, addend: 0x0, symName: __ZN4core4iter6traits8iterator8Iterator8for_each17he67a4700283e6961E, symObjAddr: 0xDC, symBinAddr: 0x20BD4, symSize: 0x34 }
  - { offset: 0xB8879, size: 0x8, addend: 0x0, symName: '__ZN63_$LT$I$u20$as$u20$core..iter..traits..collect..IntoIterator$GT$9into_iter17h303e4a2f2da06781E', symObjAddr: 0x110, symBinAddr: 0x20C08, symSize: 0x1C }
  - { offset: 0xB8CFC, size: 0x8, addend: 0x0, symName: '__ZN42_$LT$$RF$T$u20$as$u20$core..fmt..Debug$GT$3fmt17hf4ed4f19c26454fdE', symObjAddr: 0x38, symBinAddr: 0x20C24, symSize: 0x30 }
  - { offset: 0xB8D48, size: 0x8, addend: 0x0, symName: '__ZN44_$LT$$RF$T$u20$as$u20$core..fmt..Display$GT$3fmt17he5a595523a8ed303E', symObjAddr: 0x68, symBinAddr: 0x20C54, symSize: 0x30 }
  - { offset: 0xB8DF0, size: 0x8, addend: 0x0, symName: '__ZN4core5slice29_$LT$impl$u20$$u5b$T$u5d$$GT$3get17hbe91f1689adb3c9dE', symObjAddr: 0x98, symBinAddr: 0x20C84, symSize: 0x44 }
  - { offset: 0xB9028, size: 0x8, addend: 0x0, symName: '__ZN42_$LT$$RF$T$u20$as$u20$core..fmt..Debug$GT$3fmt17h08bfefa47ea17741E', symObjAddr: 0x0, symBinAddr: 0x20CC8, symSize: 0x30 }
  - { offset: 0xB9044, size: 0x8, addend: 0x0, symName: '__ZN42_$LT$$RF$T$u20$as$u20$core..fmt..Debug$GT$3fmt17h08bfefa47ea17741E', symObjAddr: 0x0, symBinAddr: 0x20CC8, symSize: 0x30 }
  - { offset: 0xB908A, size: 0x8, addend: 0x0, symName: '__ZN42_$LT$$RF$T$u20$as$u20$core..fmt..Debug$GT$3fmt17h32288592931e87bbE', symObjAddr: 0x30, symBinAddr: 0x20CF8, symSize: 0x30 }
  - { offset: 0xB90D0, size: 0x8, addend: 0x0, symName: '__ZN42_$LT$$RF$T$u20$as$u20$core..fmt..Debug$GT$3fmt17h63832ae78353e553E', symObjAddr: 0x60, symBinAddr: 0x20D28, symSize: 0x30 }
  - { offset: 0xB9116, size: 0x8, addend: 0x0, symName: '__ZN42_$LT$$RF$T$u20$as$u20$core..fmt..Debug$GT$3fmt17hebe34a9c047dd1abE', symObjAddr: 0x90, symBinAddr: 0x20D58, symSize: 0x30 }
  - { offset: 0xB9162, size: 0x8, addend: 0x0, symName: '__ZN44_$LT$$RF$T$u20$as$u20$core..fmt..Display$GT$3fmt17h2e0c168df2afe67aE', symObjAddr: 0xC0, symBinAddr: 0x20D88, symSize: 0x30 }
  - { offset: 0xB91A8, size: 0x8, addend: 0x0, symName: '__ZN44_$LT$$RF$T$u20$as$u20$core..fmt..Display$GT$3fmt17h3cffce6574315f19E', symObjAddr: 0xF0, symBinAddr: 0x20DB8, symSize: 0x30 }
  - { offset: 0xB91EE, size: 0x8, addend: 0x0, symName: '__ZN44_$LT$$RF$T$u20$as$u20$core..fmt..Display$GT$3fmt17he38325092705ce2aE', symObjAddr: 0x120, symBinAddr: 0x20DE8, symSize: 0x30 }
  - { offset: 0xB9782, size: 0x8, addend: 0x0, symName: __ZN4core3fmt9Arguments3new17h0d7529aeab5e002fE, symObjAddr: 0x180, symBinAddr: 0x20E18, symSize: 0x1C }
  - { offset: 0xB97E8, size: 0x8, addend: 0x0, symName: __ZN4core3fmt9Arguments3new17h16de113bc5666545E, symObjAddr: 0x19C, symBinAddr: 0x20E34, symSize: 0x1C }
  - { offset: 0xB9834, size: 0x8, addend: 0x0, symName: __ZN4core3fmt9Arguments3new17h18acd83bcc6004d3E, symObjAddr: 0x1B8, symBinAddr: 0x20E50, symSize: 0x1C }
  - { offset: 0xB9880, size: 0x8, addend: 0x0, symName: __ZN4core3fmt9Arguments3new17h1befd88fd3ab9aa5E, symObjAddr: 0x1D4, symBinAddr: 0x20E6C, symSize: 0x1C }
  - { offset: 0xB98CC, size: 0x8, addend: 0x0, symName: __ZN4core3fmt9Arguments3new17h1c2673e23ccbf8ceE, symObjAddr: 0x1F0, symBinAddr: 0x20E88, symSize: 0x1C }
  - { offset: 0xB9918, size: 0x8, addend: 0x0, symName: __ZN4core3fmt9Arguments3new17h1eb1d6c4d9207e14E, symObjAddr: 0x20C, symBinAddr: 0x20EA4, symSize: 0x1C }
  - { offset: 0xB994A, size: 0x8, addend: 0x0, symName: __ZN4core3fmt9Arguments3new17h2f74cf9bbbdf2836E, symObjAddr: 0x228, symBinAddr: 0x20EC0, symSize: 0x1C }
  - { offset: 0xB9996, size: 0x8, addend: 0x0, symName: __ZN4core3fmt9Arguments3new17h35446c5e8bf1ddf8E, symObjAddr: 0x244, symBinAddr: 0x20EDC, symSize: 0x1C }
  - { offset: 0xB99E2, size: 0x8, addend: 0x0, symName: __ZN4core3fmt9Arguments3new17h50dab16ea8793891E, symObjAddr: 0x260, symBinAddr: 0x20EF8, symSize: 0x1C }
  - { offset: 0xB9A2E, size: 0x8, addend: 0x0, symName: __ZN4core3fmt9Arguments3new17h57bd55ea4cabebdaE, symObjAddr: 0x27C, symBinAddr: 0x20F14, symSize: 0x1C }
  - { offset: 0xB9A94, size: 0x8, addend: 0x0, symName: __ZN4core3fmt9Arguments3new17h6a5d484a4e3bf0bfE, symObjAddr: 0x298, symBinAddr: 0x20F30, symSize: 0x1C }
  - { offset: 0xB9AFA, size: 0x8, addend: 0x0, symName: __ZN4core3fmt9Arguments3new17h844c43c6231be073E, symObjAddr: 0x2D0, symBinAddr: 0x20F4C, symSize: 0x1C }
  - { offset: 0xB9B60, size: 0x8, addend: 0x0, symName: __ZN4core3fmt9Arguments3new17h8e4a73f82197bec8E, symObjAddr: 0x308, symBinAddr: 0x20F68, symSize: 0x1C }
  - { offset: 0xB9BAC, size: 0x8, addend: 0x0, symName: __ZN4core3fmt9Arguments3new17ha8ee3d7df3cc807aE, symObjAddr: 0x324, symBinAddr: 0x20F84, symSize: 0x1C }
  - { offset: 0xB9BF8, size: 0x8, addend: 0x0, symName: __ZN4core3fmt9Arguments3new17hc08b64e74901e3bdE, symObjAddr: 0x340, symBinAddr: 0x20FA0, symSize: 0x1C }
  - { offset: 0xB9C44, size: 0x8, addend: 0x0, symName: __ZN4core3fmt9Arguments3new17hcc0867b28393f46dE, symObjAddr: 0x35C, symBinAddr: 0x20FBC, symSize: 0x1C }
  - { offset: 0xB9C90, size: 0x8, addend: 0x0, symName: __ZN4core3fmt9Arguments3new17hd17458e88e09b615E, symObjAddr: 0x378, symBinAddr: 0x20FD8, symSize: 0x1C }
  - { offset: 0xB9D10, size: 0x8, addend: 0x0, symName: __ZN4core3fmt9Arguments3new17hdacab3e3e077160bE, symObjAddr: 0x3B0, symBinAddr: 0x20FF4, symSize: 0x1C }
  - { offset: 0xB9E16, size: 0x8, addend: 0x0, symName: __ZN4core3ptr19copy_nonoverlapping18precondition_check17h9c2ba5bc0a59f449E, symObjAddr: 0x0, symBinAddr: 0x21010, symSize: 0x168 }
  - { offset: 0xB9EFE, size: 0x8, addend: 0x0, symName: __ZN4core3ptr19copy_nonoverlapping18precondition_check17h9c2ba5bc0a59f449E, symObjAddr: 0x0, symBinAddr: 0x21010, symSize: 0x168 }
  - { offset: 0xBA130, size: 0x8, addend: 0x0, symName: __ZN3std2io5error14repr_bitpacked14kind_from_prim17h578797649f69f8adE, symObjAddr: 0x0, symBinAddr: 0x21178, symSize: 0x4B0 }
  - { offset: 0xBA259, size: 0x8, addend: 0x0, symName: __ZN3std2io5error14repr_bitpacked14kind_from_prim17h578797649f69f8adE, symObjAddr: 0x0, symBinAddr: 0x21178, symSize: 0x4B0 }
  - { offset: 0xBAA3F, size: 0x8, addend: 0x0, symName: '__ZN4core3f6421_$LT$impl$u20$f64$GT$3abs17he3e167bcf149e16bE', symObjAddr: 0x0, symBinAddr: 0x21628, symSize: 0x1C }
  - { offset: 0xBAA5B, size: 0x8, addend: 0x0, symName: '__ZN4core3f6421_$LT$impl$u20$f64$GT$3abs17he3e167bcf149e16bE', symObjAddr: 0x0, symBinAddr: 0x21628, symSize: 0x1C }
  - { offset: 0xBAD4E, size: 0x8, addend: 0x0, symName: '__ZN106_$LT$core..slice..iter..Iter$LT$T$GT$$u20$as$u20$core..iter..traits..double_ended..DoubleEndedIterator$GT$9next_back17hb88a4690d5d73340E', symObjAddr: 0xE8, symBinAddr: 0x21644, symSize: 0xE8 }
  - { offset: 0xBB0B8, size: 0x8, addend: 0x0, symName: '__ZN91_$LT$core..slice..iter..Iter$LT$T$GT$$u20$as$u20$core..iter..traits..iterator..Iterator$GT$3all17hc56cce5ff4eadc5cE', symObjAddr: 0x6DC, symBinAddr: 0x218AC, symSize: 0xE4 }
  - { offset: 0xBB1E2, size: 0x8, addend: 0x0, symName: '__ZN91_$LT$core..slice..iter..Iter$LT$T$GT$$u20$as$u20$core..iter..traits..iterator..Iterator$GT$3any17h5a0d4878019337caE', symObjAddr: 0x7C0, symBinAddr: 0x21990, symSize: 0xE4 }
  - { offset: 0xBB2BD, size: 0x8, addend: 0x0, symName: '__ZN91_$LT$core..slice..iter..Iter$LT$T$GT$$u20$as$u20$core..iter..traits..iterator..Iterator$GT$4fold17h170a4c31ce07022aE', symObjAddr: 0xB78, symBinAddr: 0x21A74, symSize: 0x1A0 }
  - { offset: 0xBB4BD, size: 0x8, addend: 0x0, symName: '__ZN91_$LT$core..slice..iter..Iter$LT$T$GT$$u20$as$u20$core..iter..traits..iterator..Iterator$GT$4next17h12d17b72030e12b4E', symObjAddr: 0xEF0, symBinAddr: 0x21C14, symSize: 0x84 }
  - { offset: 0xBB573, size: 0x8, addend: 0x0, symName: '__ZN91_$LT$core..slice..iter..Iter$LT$T$GT$$u20$as$u20$core..iter..traits..iterator..Iterator$GT$4next17h6facb0ee217eb016E', symObjAddr: 0xFF8, symBinAddr: 0x21C98, symSize: 0x84 }
  - { offset: 0xBB629, size: 0x8, addend: 0x0, symName: '__ZN91_$LT$core..slice..iter..Iter$LT$T$GT$$u20$as$u20$core..iter..traits..iterator..Iterator$GT$4next17h7b161123a703ae98E', symObjAddr: 0x107C, symBinAddr: 0x21D1C, symSize: 0x84 }
  - { offset: 0xBB6DF, size: 0x8, addend: 0x0, symName: '__ZN91_$LT$core..slice..iter..Iter$LT$T$GT$$u20$as$u20$core..iter..traits..iterator..Iterator$GT$4next17he23c6a4dd9b77dc8E', symObjAddr: 0x1208, symBinAddr: 0x21DA0, symSize: 0x84 }
  - { offset: 0xBB795, size: 0x8, addend: 0x0, symName: '__ZN91_$LT$core..slice..iter..Iter$LT$T$GT$$u20$as$u20$core..iter..traits..iterator..Iterator$GT$9size_hint17h4cb8c4524102548fE', symObjAddr: 0x128C, symBinAddr: 0x21E24, symSize: 0xB4 }
  - { offset: 0xBC2B3, size: 0x8, addend: 0x0, symName: __ZN4core4iter6traits8iterator8Iterator3map17hb66de0ea9b4fee24E, symObjAddr: 0x200, symBinAddr: 0x2172C, symSize: 0x1C }
  - { offset: 0xBC30B, size: 0x8, addend: 0x0, symName: __ZN4core4iter6traits8iterator8Iterator6cloned17hfd317c4d14a9796dE, symObjAddr: 0x330, symBinAddr: 0x21748, symSize: 0x1C }
  - { offset: 0xBC34B, size: 0x8, addend: 0x0, symName: __ZN4core4iter6traits8iterator8Iterator7collect17h14962750e86a6b83E, symObjAddr: 0x34C, symBinAddr: 0x21764, symSize: 0x2C }
  - { offset: 0xBC3B6, size: 0x8, addend: 0x0, symName: '__ZN63_$LT$I$u20$as$u20$core..iter..traits..collect..IntoIterator$GT$9into_iter17hfcb6421e6ade47e2E', symObjAddr: 0x678, symBinAddr: 0x21890, symSize: 0x1C }
  - { offset: 0xBCB89, size: 0x8, addend: 0x0, symName: '__ZN4core5slice4iter13Iter$LT$T$GT$3new17h22dd4a90d69b787bE', symObjAddr: 0x448, symBinAddr: 0x21790, symSize: 0x58 }
  - { offset: 0xBCD5A, size: 0x8, addend: 0x0, symName: '__ZN4core5slice4iter13Iter$LT$T$GT$3new17h891dc3de545b588cE', symObjAddr: 0x548, symBinAddr: 0x217E8, symSize: 0x58 }
  - { offset: 0xBCF2B, size: 0x8, addend: 0x0, symName: '__ZN4core5slice4iter13Iter$LT$T$GT$3new17h977ac2f0cd2dfe49E', symObjAddr: 0x5A0, symBinAddr: 0x21840, symSize: 0x50 }
  - { offset: 0xBD34B, size: 0x8, addend: 0x0, symName: '__ZN4core3str6traits108_$LT$impl$u20$core..slice..index..SliceIndex$LT$str$GT$$u20$for$u20$core..ops..range..Range$LT$usize$GT$$GT$13get_unchecked18precondition_check17h6b0f6752f348d496E', symObjAddr: 0x0, symBinAddr: 0x21ED8, symSize: 0x80 }
  - { offset: 0xBD371, size: 0x8, addend: 0x0, symName: '__ZN4core3str6traits108_$LT$impl$u20$core..slice..index..SliceIndex$LT$str$GT$$u20$for$u20$core..ops..range..Range$LT$usize$GT$$GT$13get_unchecked18precondition_check17h6b0f6752f348d496E', symObjAddr: 0x0, symBinAddr: 0x21ED8, symSize: 0x80 }
  - { offset: 0xBD3D9, size: 0x8, addend: 0x0, symName: '__ZN4core3str6traits54_$LT$impl$u20$core..cmp..PartialEq$u20$for$u20$str$GT$2eq17hf193ebeda28773ebE', symObjAddr: 0x80, symBinAddr: 0x21F58, symSize: 0x4C }
  - { offset: 0xBD5CE, size: 0x8, addend: 0x0, symName: '__ZN4core3ptr9const_ptr33_$LT$impl$u20$$BP$const$u20$T$GT$13is_aligned_to17h03d1883c1b29f6edE', symObjAddr: 0x0, symBinAddr: 0x21FA4, symSize: 0x88 }
  - { offset: 0xBD635, size: 0x8, addend: 0x0, symName: '__ZN4core3ptr9const_ptr33_$LT$impl$u20$$BP$const$u20$T$GT$13is_aligned_to17h03d1883c1b29f6edE', symObjAddr: 0x0, symBinAddr: 0x21FA4, symSize: 0x88 }
  - { offset: 0xBD702, size: 0x8, addend: 0x0, symName: '__ZN5alloc7raw_vec19RawVec$LT$T$C$A$GT$8grow_one17h0a48138ae554baacE', symObjAddr: 0x0, symBinAddr: 0x2202C, symSize: 0x84 }
  - { offset: 0xBE4EE, size: 0x8, addend: 0x0, symName: '__ZN5alloc7raw_vec19RawVec$LT$T$C$A$GT$8grow_one17h0a48138ae554baacE', symObjAddr: 0x0, symBinAddr: 0x2202C, symSize: 0x84 }
  - { offset: 0xBE5B3, size: 0x8, addend: 0x0, symName: '__ZN5alloc7raw_vec19RawVec$LT$T$C$A$GT$8grow_one17h11e90abc8cd53c8bE', symObjAddr: 0x84, symBinAddr: 0x220B0, symSize: 0x88 }
  - { offset: 0xBE671, size: 0x8, addend: 0x0, symName: '__ZN5alloc7raw_vec19RawVec$LT$T$C$A$GT$8grow_one17h264737cb673a8f14E', symObjAddr: 0x190, symBinAddr: 0x22138, symSize: 0x88 }
  - { offset: 0xBE721, size: 0x8, addend: 0x0, symName: '__ZN5alloc7raw_vec19RawVec$LT$T$C$A$GT$8grow_one17h28c53a3ce4fa1946E', symObjAddr: 0x218, symBinAddr: 0x221C0, symSize: 0x84 }
  - { offset: 0xBE7D1, size: 0x8, addend: 0x0, symName: '__ZN5alloc7raw_vec19RawVec$LT$T$C$A$GT$8grow_one17h2c4973db63bd154dE', symObjAddr: 0x29C, symBinAddr: 0x22244, symSize: 0x88 }
  - { offset: 0xBE881, size: 0x8, addend: 0x0, symName: '__ZN5alloc7raw_vec19RawVec$LT$T$C$A$GT$8grow_one17h4de142267c151a55E', symObjAddr: 0x324, symBinAddr: 0x222CC, symSize: 0x88 }
  - { offset: 0xBE965, size: 0x8, addend: 0x0, symName: '__ZN5alloc7raw_vec19RawVec$LT$T$C$A$GT$8grow_one17h7f61a2c0c3b0daa9E', symObjAddr: 0x3AC, symBinAddr: 0x22354, symSize: 0x88 }
  - { offset: 0xBEA33, size: 0x8, addend: 0x0, symName: '__ZN5alloc7raw_vec19RawVec$LT$T$C$A$GT$8grow_one17hf3299ec1f347bebcE', symObjAddr: 0x4BC, symBinAddr: 0x223DC, symSize: 0x88 }
  - { offset: 0xBEB45, size: 0x8, addend: 0x0, symName: '__ZN5alloc7raw_vec20RawVecInner$LT$A$GT$16with_capacity_in17h8b03944905fb6d49E', symObjAddr: 0x544, symBinAddr: 0x22464, symSize: 0xF0 }
  - { offset: 0xBEC9B, size: 0x8, addend: 0x0, symName: __ZN4core3cmp3Ord3max17haa660de7daa61362E, symObjAddr: 0x0, symBinAddr: 0x22554, symSize: 0x74 }
  - { offset: 0xBECED, size: 0x8, addend: 0x0, symName: __ZN4core3cmp3Ord3max17haa660de7daa61362E, symObjAddr: 0x0, symBinAddr: 0x22554, symSize: 0x74 }
  - { offset: 0xBED97, size: 0x8, addend: 0x0, symName: '__ZN42_$LT$$RF$T$u20$as$u20$core..fmt..Debug$GT$3fmt17h361e6bb1db296f5dE', symObjAddr: 0x0, symBinAddr: 0x225C8, symSize: 0x30 }
  - { offset: 0xBEDB3, size: 0x8, addend: 0x0, symName: '__ZN42_$LT$$RF$T$u20$as$u20$core..fmt..Debug$GT$3fmt17h361e6bb1db296f5dE', symObjAddr: 0x0, symBinAddr: 0x225C8, symSize: 0x30 }
  - { offset: 0xBEDFF, size: 0x8, addend: 0x0, symName: '__ZN44_$LT$$RF$T$u20$as$u20$core..fmt..Display$GT$3fmt17hae6f6e26566ecc74E', symObjAddr: 0x30, symBinAddr: 0x225F8, symSize: 0x30 }
  - { offset: 0xBF0A5, size: 0x8, addend: 0x0, symName: '__ZN4core4iter8adapters3map8map_fold28_$u7b$$u7b$closure$u7d$$u7d$17h60659f73172aee35E', symObjAddr: 0x180, symBinAddr: 0x22628, symSize: 0x7C }
  - { offset: 0xBF37E, size: 0x8, addend: 0x0, symName: '__ZN4core5array69_$LT$impl$u20$core..fmt..Debug$u20$for$u20$$u5b$T$u3b$$u20$N$u5d$$GT$3fmt17h77b778293c41f5dcE', symObjAddr: 0x0, symBinAddr: 0x226A4, symSize: 0x44 }
  - { offset: 0xBF3DD, size: 0x8, addend: 0x0, symName: '__ZN4core5array69_$LT$impl$u20$core..fmt..Debug$u20$for$u20$$u5b$T$u3b$$u20$N$u5d$$GT$3fmt17h77b778293c41f5dcE', symObjAddr: 0x0, symBinAddr: 0x226A4, symSize: 0x44 }
  - { offset: 0xBF4FD, size: 0x8, addend: 0x0, symName: '__ZN4core5array98_$LT$impl$u20$core..convert..TryFrom$LT$$RF$$u5b$T$u5d$$GT$$u20$for$u20$$u5b$T$u3b$$u20$N$u5d$$GT$8try_from17h545f3999ec87c0d2E', symObjAddr: 0xA0, symBinAddr: 0x226E8, symSize: 0x84 }
  - { offset: 0xBF677, size: 0x8, addend: 0x0, symName: '__ZN4core5array98_$LT$impl$u20$core..convert..TryFrom$LT$$RF$$u5b$T$u5d$$GT$$u20$for$u20$$u5b$T$u3b$$u20$N$u5d$$GT$8try_from17hc81f257caa19d7a4E', symObjAddr: 0x124, symBinAddr: 0x2276C, symSize: 0x8C }
  - { offset: 0xBF7F1, size: 0x8, addend: 0x0, symName: '__ZN4core5array98_$LT$impl$u20$core..convert..TryFrom$LT$$RF$$u5b$T$u5d$$GT$$u20$for$u20$$u5b$T$u3b$$u20$N$u5d$$GT$8try_from17hd1fb5fd0a629203bE', symObjAddr: 0x1B0, symBinAddr: 0x227F8, symSize: 0x8C }
  - { offset: 0xC050F, size: 0x8, addend: 0x0, symName: '__ZN4core3str21_$LT$impl$u20$str$GT$12trim_matches17h9b60981abd2cde75E', symObjAddr: 0x0, symBinAddr: 0x22884, symSize: 0x108 }
  - { offset: 0xC0648, size: 0x8, addend: 0x0, symName: '__ZN4core3str21_$LT$impl$u20$str$GT$12trim_matches17h9b60981abd2cde75E', symObjAddr: 0x0, symBinAddr: 0x22884, symSize: 0x108 }
  - { offset: 0xC07EF, size: 0x8, addend: 0x0, symName: '__ZN4core3str21_$LT$impl$u20$str$GT$5parse17h58824cff1d03bf64E', symObjAddr: 0x108, symBinAddr: 0x2298C, symSize: 0x28 }
  - { offset: 0xC0826, size: 0x8, addend: 0x0, symName: '__ZN4core3str21_$LT$impl$u20$str$GT$5parse17ha69431856e7d5834E', symObjAddr: 0x130, symBinAddr: 0x229B4, symSize: 0x28 }
  - { offset: 0xC085D, size: 0x8, addend: 0x0, symName: '__ZN4core3str21_$LT$impl$u20$str$GT$8contains17h1421a285cc265b88E', symObjAddr: 0x158, symBinAddr: 0x229DC, symSize: 0x48 }
  - { offset: 0xC08A3, size: 0x8, addend: 0x0, symName: '__ZN4core3str21_$LT$impl$u20$str$GT$8contains17h8c6fb0864fcf6bb7E', symObjAddr: 0x1A0, symBinAddr: 0x22A24, symSize: 0x44 }
  - { offset: 0xC0DB1, size: 0x8, addend: 0x0, symName: '__ZN4core3ptr8non_null16NonNull$LT$T$GT$13new_unchecked18precondition_check17ha311dd493a865f78E', symObjAddr: 0x0, symBinAddr: 0x22A68, symSize: 0x58 }
  - { offset: 0xC0DD7, size: 0x8, addend: 0x0, symName: '__ZN4core3ptr8non_null16NonNull$LT$T$GT$13new_unchecked18precondition_check17ha311dd493a865f78E', symObjAddr: 0x0, symBinAddr: 0x22A68, symSize: 0x58 }
  - { offset: 0xC0E88, size: 0x8, addend: 0x0, symName: '__ZN11kinodb_core3kql5parse28_$u7b$$u7b$closure$u7d$$u7d$17h07c9e633b5ceae7bE', symObjAddr: 0x0, symBinAddr: 0x22AC0, symSize: 0x4C }
  - { offset: 0xC0F3D, size: 0x8, addend: 0x0, symName: '__ZN42_$LT$$RF$T$u20$as$u20$core..fmt..Debug$GT$3fmt17h92ee89953c41d6c3E', symObjAddr: 0xD0, symBinAddr: 0x22B90, symSize: 0x30 }
  - { offset: 0xC0FE5, size: 0x8, addend: 0x0, symName: __ZN4core5error5Error11description17h204023d39ada3d0aE, symObjAddr: 0x100, symBinAddr: 0x22BC0, symSize: 0x20 }
  - { offset: 0xC101A, size: 0x8, addend: 0x0, symName: __ZN4core5error5Error5cause17hcefac0bf0b42cf95E, symObjAddr: 0x120, symBinAddr: 0x22BE0, symSize: 0x24 }
  - { offset: 0xC104F, size: 0x8, addend: 0x0, symName: __ZN4core5error5Error6source17h59be30e0abb4ef45E, symObjAddr: 0x144, symBinAddr: 0x22C04, symSize: 0x24 }
  - { offset: 0xC1084, size: 0x8, addend: 0x0, symName: __ZN4core5error5Error7provide17he69966ab9d8900e1E, symObjAddr: 0x168, symBinAddr: 0x22C28, symSize: 0x18 }
  - { offset: 0xC10C6, size: 0x8, addend: 0x0, symName: __ZN4core5error5Error7type_id17h9189ff8dccb83967E, symObjAddr: 0x180, symBinAddr: 0x22C40, symSize: 0x20 }
  - { offset: 0xC1249, size: 0x8, addend: 0x0, symName: '__ZN4core5slice29_$LT$impl$u20$$u5b$T$u5d$$GT$4iter17hfc0a468007d1f87bE', symObjAddr: 0x1A0, symBinAddr: 0x22C60, symSize: 0x28 }
  - { offset: 0xC14BB, size: 0x8, addend: 0x0, symName: '__ZN11kinodb_core3kql5parse28_$u7b$$u7b$closure$u7d$$u7d$17h07c9e633b5ceae7bE', symObjAddr: 0x0, symBinAddr: 0x22AC0, symSize: 0x4C }
  - { offset: 0xC14F6, size: 0x8, addend: 0x0, symName: '__ZN11kinodb_core3kql5parse28_$u7b$$u7b$closure$u7d$$u7d$17h434ec1461cc6e7e6E', symObjAddr: 0x4C, symBinAddr: 0x22B0C, symSize: 0x4C }
  - { offset: 0xC1537, size: 0x8, addend: 0x0, symName: '__ZN11kinodb_core3kql8evaluate28_$u7b$$u7b$closure$u7d$$u7d$17hefd0b84dfa6ee721E', symObjAddr: 0x98, symBinAddr: 0x22B58, symSize: 0x38 }
  - { offset: 0xC1C20, size: 0x8, addend: 0x0, symName: '__ZN49_$LT$usize$u20$as$u20$core..iter..range..Step$GT$17forward_unchecked17hd325a81eefc408cdE', symObjAddr: 0x0, symBinAddr: 0x22C88, symSize: 0x50 }
  - { offset: 0xC1C77, size: 0x8, addend: 0x0, symName: '__ZN49_$LT$usize$u20$as$u20$core..iter..range..Step$GT$17forward_unchecked17hd325a81eefc408cdE', symObjAddr: 0x0, symBinAddr: 0x22C88, symSize: 0x50 }
  - { offset: 0xC1CFF, size: 0x8, addend: 0x0, symName: '__ZN67_$LT$core..array..TryFromSliceError$u20$as$u20$core..fmt..Debug$GT$3fmt17h044f14c81198fd44E', symObjAddr: 0x0, symBinAddr: 0x22CD8, symSize: 0x54 }
  - { offset: 0xC1D29, size: 0x8, addend: 0x0, symName: '__ZN67_$LT$core..array..TryFromSliceError$u20$as$u20$core..fmt..Debug$GT$3fmt17h044f14c81198fd44E', symObjAddr: 0x0, symBinAddr: 0x22CD8, symSize: 0x54 }
  - { offset: 0xC1EF9, size: 0x8, addend: 0x0, symName: '__ZN42_$LT$$RF$T$u20$as$u20$core..fmt..Debug$GT$3fmt17ha99fa1be99a94e47E', symObjAddr: 0x0, symBinAddr: 0x22D2C, symSize: 0x30 }
  - { offset: 0xC1F8D, size: 0x8, addend: 0x0, symName: '__ZN42_$LT$$RF$T$u20$as$u20$core..fmt..Debug$GT$3fmt17ha99fa1be99a94e47E', symObjAddr: 0x0, symBinAddr: 0x22D2C, symSize: 0x30 }
  - { offset: 0xC1FD9, size: 0x8, addend: 0x0, symName: '__ZN44_$LT$$RF$T$u20$as$u20$core..fmt..Display$GT$3fmt17he200c8e24841f25bE', symObjAddr: 0x30, symBinAddr: 0x22D5C, symSize: 0x30 }
  - { offset: 0xC21D1, size: 0x8, addend: 0x0, symName: '__ZN45_$LT$T$u20$as$u20$alloc..string..ToString$GT$9to_string17h468ae9e958439aebE', symObjAddr: 0x60, symBinAddr: 0x22D8C, symSize: 0x28 }
  - { offset: 0xC224A, size: 0x8, addend: 0x0, symName: '__ZN89_$LT$alloc..string..String$u20$as$u20$core..iter..traits..collect..Extend$LT$char$GT$$GT$6extend17h2126ba66f6b15674E', symObjAddr: 0xB0, symBinAddr: 0x22DB4, symSize: 0xB8 }
  - { offset: 0xC22EB, size: 0x8, addend: 0x0, symName: '__ZN89_$LT$alloc..string..String$u20$as$u20$core..iter..traits..collect..Extend$LT$char$GT$$GT$6extend28_$u7b$$u7b$closure$u7d$$u7d$17h8d3dd18d226b9c4cE', symObjAddr: 0x168, symBinAddr: 0x22E6C, symSize: 0x2C }
  - { offset: 0xC2336, size: 0x8, addend: 0x0, symName: '__ZN93_$LT$alloc..string..String$u20$as$u20$core..iter..traits..collect..Extend$LT$$RF$char$GT$$GT$6extend17h5c6b87ac3ea7b586E', symObjAddr: 0x194, symBinAddr: 0x22E98, symSize: 0x5C }
  - { offset: 0xC237E, size: 0x8, addend: 0x0, symName: '__ZN99_$LT$alloc..string..String$u20$as$u20$core..iter..traits..collect..FromIterator$LT$$RF$char$GT$$GT$9from_iter17hf7de64edeab12252E', symObjAddr: 0x1F0, symBinAddr: 0x22EF4, symSize: 0xA0 }
  - { offset: 0xC2617, size: 0x8, addend: 0x0, symName: '__ZN5alloc3fmt6format28_$u7b$$u7b$closure$u7d$$u7d$17h3cbb54feefe76785E', symObjAddr: 0x0, symBinAddr: 0x22F94, symSize: 0x30 }
  - { offset: 0xC2633, size: 0x8, addend: 0x0, symName: '__ZN5alloc3fmt6format28_$u7b$$u7b$closure$u7d$$u7d$17h3cbb54feefe76785E', symObjAddr: 0x0, symBinAddr: 0x22F94, symSize: 0x30 }
  - { offset: 0xC2AA4, size: 0x8, addend: 0x0, symName: '__ZN104_$LT$core..str..pattern..MultiCharEqSearcher$LT$C$GT$$u20$as$u20$core..str..pattern..ReverseSearcher$GT$9next_back17hd907b203cc45edccE', symObjAddr: 0x0, symBinAddr: 0x22FC4, symSize: 0x1B4 }
  - { offset: 0xC2D6B, size: 0x8, addend: 0x0, symName: '__ZN104_$LT$core..str..pattern..MultiCharEqSearcher$LT$C$GT$$u20$as$u20$core..str..pattern..ReverseSearcher$GT$9next_back17hd907b203cc45edccE', symObjAddr: 0x0, symBinAddr: 0x22FC4, symSize: 0x1B4 }
  - { offset: 0xC3024, size: 0x8, addend: 0x0, symName: '__ZN106_$LT$core..str..pattern..CharPredicateSearcher$LT$F$GT$$u20$as$u20$core..str..pattern..ReverseSearcher$GT$16next_reject_back17hf7cf70bb3b2084dfE', symObjAddr: 0x1B4, symBinAddr: 0x23178, symSize: 0x24 }
  - { offset: 0xC31DF, size: 0x8, addend: 0x0, symName: __ZN4core3str7pattern15ReverseSearcher16next_reject_back17h287c38860f8196fcE, symObjAddr: 0xBB8, symBinAddr: 0x23B7C, symSize: 0x90 }
  - { offset: 0xC324A, size: 0x8, addend: 0x0, symName: __ZN4core3str7pattern8Searcher11next_reject17hedc63a1e44b35f3eE, symObjAddr: 0xC48, symBinAddr: 0x23C0C, symSize: 0x90 }
  - { offset: 0xC32B5, size: 0x8, addend: 0x0, symName: '__ZN95_$LT$core..str..pattern..MultiCharEqPattern$LT$C$GT$$u20$as$u20$core..str..pattern..Pattern$GT$13into_searcher17he99668e85d7fea31E', symObjAddr: 0xCD8, symBinAddr: 0x23C9C, symSize: 0x90 }
  - { offset: 0xC3317, size: 0x8, addend: 0x0, symName: '__ZN97_$LT$core..str..pattern..MultiCharEqSearcher$LT$C$GT$$u20$as$u20$core..str..pattern..Searcher$GT$4next17h8386f6943c066355E', symObjAddr: 0xD68, symBinAddr: 0x23D2C, symSize: 0x1B4 }
  - { offset: 0xC35D0, size: 0x8, addend: 0x0, symName: '__ZN99_$LT$core..str..pattern..CharPredicateSearcher$LT$F$GT$$u20$as$u20$core..str..pattern..Searcher$GT$11next_reject17ha892e7084652bb13E', symObjAddr: 0xF1C, symBinAddr: 0x23EE0, symSize: 0x24 }
  - { offset: 0xC3DFF, size: 0x8, addend: 0x0, symName: __ZN4core3str7pattern14TwoWaySearcher4next17h00039cd3e9aa08b9E, symObjAddr: 0x1D8, symBinAddr: 0x2319C, symSize: 0x4F0 }
  - { offset: 0xC414D, size: 0x8, addend: 0x0, symName: __ZN4core3str7pattern14TwoWaySearcher4next17h707de9e3a7b7bd43E, symObjAddr: 0x6C8, symBinAddr: 0x2368C, symSize: 0x4F0 }
  - { offset: 0xC44D0, size: 0x8, addend: 0x0, symName: __ZN5alloc3fmt6format17h24b18d9b0cba5fb5E, symObjAddr: 0x0, symBinAddr: 0x23F04, symSize: 0xD8 }
  - { offset: 0xC49E8, size: 0x8, addend: 0x0, symName: __ZN5alloc3fmt6format17h24b18d9b0cba5fb5E, symObjAddr: 0x0, symBinAddr: 0x23F04, symSize: 0xD8 }
  - { offset: 0xC7039, size: 0x8, addend: 0x0, symName: '__ZN111_$LT$alloc..vec..Vec$LT$T$GT$$u20$as$u20$alloc..vec..spec_from_iter_nested..SpecFromIterNested$LT$T$C$I$GT$$GT$9from_iter17h9773eeab284e246fE', symObjAddr: 0x140, symBinAddr: 0x23FDC, symSize: 0x210 }
  - { offset: 0xC7488, size: 0x8, addend: 0x0, symName: '__ZN97_$LT$alloc..vec..Vec$LT$T$C$A$GT$$u20$as$u20$alloc..vec..spec_extend..SpecExtend$LT$T$C$I$GT$$GT$11spec_extend17hf5fc9fd82536ee87E', symObjAddr: 0x23F0, symBinAddr: 0x2538C, symSize: 0x34 }
  - { offset: 0xC81A7, size: 0x8, addend: 0x0, symName: '__ZN72_$LT$alloc..vec..Vec$LT$T$C$A$GT$$u20$as$u20$core..ops..deref..Deref$GT$5deref17h1588f1ed0c17a9f8E', symObjAddr: 0x1CFC, symBinAddr: 0x24F10, symSize: 0x20 }
  - { offset: 0xC8264, size: 0x8, addend: 0x0, symName: '__ZN72_$LT$alloc..vec..Vec$LT$T$C$A$GT$$u20$as$u20$core..ops..deref..Deref$GT$5deref17h3e1044e57f3032d6E', symObjAddr: 0x1D5C, symBinAddr: 0x24F30, symSize: 0x20 }
  - { offset: 0xC8321, size: 0x8, addend: 0x0, symName: '__ZN72_$LT$alloc..vec..Vec$LT$T$C$A$GT$$u20$as$u20$core..ops..deref..Deref$GT$5deref17hf2c9c5102341f0f7E', symObjAddr: 0x1DBC, symBinAddr: 0x24F50, symSize: 0x20 }
  - { offset: 0xC8534, size: 0x8, addend: 0x0, symName: '__ZN81_$LT$alloc..vec..Vec$LT$T$C$A$GT$$u20$as$u20$core..ops..index..Index$LT$I$GT$$GT$5index17h61631be07624527eE', symObjAddr: 0x1E20, symBinAddr: 0x24F70, symSize: 0x44 }
  - { offset: 0xC864D, size: 0x8, addend: 0x0, symName: '__ZN81_$LT$alloc..vec..Vec$LT$T$C$A$GT$$u20$as$u20$core..ops..index..Index$LT$I$GT$$GT$5index17h82a70e84b5ab4470E', symObjAddr: 0x1E64, symBinAddr: 0x24FB4, symSize: 0x44 }
  - { offset: 0xC8766, size: 0x8, addend: 0x0, symName: '__ZN81_$LT$alloc..vec..Vec$LT$T$C$A$GT$$u20$as$u20$core..ops..index..Index$LT$I$GT$$GT$5index17ha91b2e2886321955E', symObjAddr: 0x1EA8, symBinAddr: 0x24FF8, symSize: 0xD0 }
  - { offset: 0xC8901, size: 0x8, addend: 0x0, symName: '__ZN81_$LT$alloc..vec..Vec$LT$T$C$A$GT$$u20$as$u20$core..ops..index..Index$LT$I$GT$$GT$5index17hb4bbb52b50b119e7E', symObjAddr: 0x1FBC, symBinAddr: 0x250C8, symSize: 0xD0 }
  - { offset: 0xC8A9C, size: 0x8, addend: 0x0, symName: '__ZN81_$LT$alloc..vec..Vec$LT$T$C$A$GT$$u20$as$u20$core..ops..index..Index$LT$I$GT$$GT$5index17hf4cc20fc051819b1E', symObjAddr: 0x208C, symBinAddr: 0x25198, symSize: 0x44 }
  - { offset: 0xC8BBB, size: 0x8, addend: 0x0, symName: '__ZN90_$LT$alloc..vec..Vec$LT$T$C$A$GT$$u20$as$u20$core..iter..traits..collect..IntoIterator$GT$9into_iter17h6689d17b30138fc2E', symObjAddr: 0x20D0, symBinAddr: 0x251DC, symSize: 0xB0 }
  - { offset: 0xC8DB8, size: 0x8, addend: 0x0, symName: '__ZN94_$LT$$RF$alloc..vec..Vec$LT$T$C$A$GT$$u20$as$u20$core..iter..traits..collect..IntoIterator$GT$9into_iter17h4b7ee6d01776f478E', symObjAddr: 0x21E0, symBinAddr: 0x2528C, symSize: 0x68 }
  - { offset: 0xC8F9D, size: 0x8, addend: 0x0, symName: '__ZN94_$LT$$RF$alloc..vec..Vec$LT$T$C$A$GT$$u20$as$u20$core..iter..traits..collect..IntoIterator$GT$9into_iter17hb673169ab6118de8E', symObjAddr: 0x22A8, symBinAddr: 0x252F4, symSize: 0x60 }
  - { offset: 0xC9188, size: 0x8, addend: 0x0, symName: '__ZN95_$LT$alloc..vec..Vec$LT$T$GT$$u20$as$u20$core..iter..traits..collect..FromIterator$LT$T$GT$$GT$9from_iter17h7da3b5ff98c99d24E', symObjAddr: 0x233C, symBinAddr: 0x25354, symSize: 0x38 }
  - { offset: 0xC91D3, size: 0x8, addend: 0x0, symName: '__ZN98_$LT$alloc..vec..Vec$LT$T$GT$$u20$as$u20$alloc..vec..spec_from_iter..SpecFromIter$LT$T$C$I$GT$$GT$9from_iter17h11c2b94fd6b11d9fE', symObjAddr: 0x2424, symBinAddr: 0x253C0, symSize: 0x2C }
  - { offset: 0xC9625, size: 0x8, addend: 0x0, symName: '__ZN5alloc3vec12Vec$LT$T$GT$13with_capacity17h0cbef70f02116fa6E', symObjAddr: 0x530, symBinAddr: 0x241EC, symSize: 0x44 }
  - { offset: 0xC9706, size: 0x8, addend: 0x0, symName: '__ZN5alloc3vec12Vec$LT$T$GT$13with_capacity17h58631c67a9812668E', symObjAddr: 0x634, symBinAddr: 0x24230, symSize: 0x44 }
  - { offset: 0xC97E7, size: 0x8, addend: 0x0, symName: '__ZN5alloc3vec12Vec$LT$T$GT$13with_capacity17h655966d356290e96E', symObjAddr: 0x678, symBinAddr: 0x24274, symSize: 0x44 }
  - { offset: 0xC98C1, size: 0x8, addend: 0x0, symName: '__ZN5alloc3vec12Vec$LT$T$GT$13with_capacity17hcc8ac9cf645271eeE', symObjAddr: 0x6BC, symBinAddr: 0x242B8, symSize: 0x40 }
  - { offset: 0xC999B, size: 0x8, addend: 0x0, symName: '__ZN5alloc3vec12Vec$LT$T$GT$13with_capacity17hd5be29afd608e4beE', symObjAddr: 0x6FC, symBinAddr: 0x242F8, symSize: 0x44 }
  - { offset: 0xC9A1A, size: 0x8, addend: 0x0, symName: '__ZN5alloc3vec12Vec$LT$T$GT$3new17h4098ac036410d714E', symObjAddr: 0x784, symBinAddr: 0x2433C, symSize: 0x14 }
  - { offset: 0xC9A55, size: 0x8, addend: 0x0, symName: '__ZN5alloc3vec12Vec$LT$T$GT$3new17he00309461ae521c2E', symObjAddr: 0x7C0, symBinAddr: 0x24350, symSize: 0x14 }
  - { offset: 0xC9A90, size: 0x8, addend: 0x0, symName: '__ZN5alloc3vec12Vec$LT$T$GT$3new17heaa19b3581a06b6bE', symObjAddr: 0x7D4, symBinAddr: 0x24364, symSize: 0x14 }
  - { offset: 0xC9C7D, size: 0x8, addend: 0x0, symName: '__ZN5alloc3vec16Vec$LT$T$C$A$GT$16extend_desugared17h497a2ab10d7caa3dE', symObjAddr: 0xBA8, symBinAddr: 0x24378, symSize: 0x1A8 }
  - { offset: 0xC9EFE, size: 0x8, addend: 0x0, symName: '__ZN5alloc3vec16Vec$LT$T$C$A$GT$3len17h08c6cbd4619113cdE', symObjAddr: 0xDD4, symBinAddr: 0x24520, symSize: 0x18 }
  - { offset: 0xC9F40, size: 0x8, addend: 0x0, symName: '__ZN5alloc3vec16Vec$LT$T$C$A$GT$3len17h610db0e0a665748eE', symObjAddr: 0xE34, symBinAddr: 0x24538, symSize: 0x18 }
  - { offset: 0xC9F82, size: 0x8, addend: 0x0, symName: '__ZN5alloc3vec16Vec$LT$T$C$A$GT$3len17ha287e05923ef4edfE', symObjAddr: 0xE4C, symBinAddr: 0x24550, symSize: 0x18 }
  - { offset: 0xC9FD1, size: 0x8, addend: 0x0, symName: '__ZN5alloc3vec16Vec$LT$T$C$A$GT$3len17hfecf5646983b2deaE', symObjAddr: 0xE94, symBinAddr: 0x24568, symSize: 0x18 }
  - { offset: 0xCA013, size: 0x8, addend: 0x0, symName: '__ZN5alloc3vec16Vec$LT$T$C$A$GT$4push17h26b3f7b2076ef6b6E', symObjAddr: 0xEF8, symBinAddr: 0x24580, symSize: 0x28 }
  - { offset: 0xCA064, size: 0x8, addend: 0x0, symName: '__ZN5alloc3vec16Vec$LT$T$C$A$GT$4push17h30782d0ed2036f1fE', symObjAddr: 0xF20, symBinAddr: 0x245A8, symSize: 0x28 }
  - { offset: 0xCA0B5, size: 0x8, addend: 0x0, symName: '__ZN5alloc3vec16Vec$LT$T$C$A$GT$4push17h4774b6a9b13ff099E', symObjAddr: 0xF48, symBinAddr: 0x245D0, symSize: 0x24 }
  - { offset: 0xCA107, size: 0x8, addend: 0x0, symName: '__ZN5alloc3vec16Vec$LT$T$C$A$GT$4push17h8ddc2ef75281936fE', symObjAddr: 0xF6C, symBinAddr: 0x245F4, symSize: 0x24 }
  - { offset: 0xCA159, size: 0x8, addend: 0x0, symName: '__ZN5alloc3vec16Vec$LT$T$C$A$GT$4push17hb7a19ebd9f849660E', symObjAddr: 0xF90, symBinAddr: 0x24618, symSize: 0x24 }
  - { offset: 0xCA1AB, size: 0x8, addend: 0x0, symName: '__ZN5alloc3vec16Vec$LT$T$C$A$GT$4push17hcd6613f33868ad9bE', symObjAddr: 0xFB4, symBinAddr: 0x2463C, symSize: 0x24 }
  - { offset: 0xCA1FD, size: 0x8, addend: 0x0, symName: '__ZN5alloc3vec16Vec$LT$T$C$A$GT$4push17hec4b9880b4028273E', symObjAddr: 0xFD8, symBinAddr: 0x24660, symSize: 0x24 }
  - { offset: 0xCA24F, size: 0x8, addend: 0x0, symName: '__ZN5alloc3vec16Vec$LT$T$C$A$GT$4push17hf230cf373a354b31E', symObjAddr: 0xFFC, symBinAddr: 0x24684, symSize: 0x24 }
  - { offset: 0xCA3C4, size: 0x8, addend: 0x0, symName: '__ZN5alloc3vec16Vec$LT$T$C$A$GT$7reserve17h0173e9f5c99382e4E', symObjAddr: 0x1048, symBinAddr: 0x246A8, symSize: 0xA0 }
  - { offset: 0xCA537, size: 0x8, addend: 0x0, symName: '__ZN5alloc3vec16Vec$LT$T$C$A$GT$8is_empty17h2bd5c213982b3c2eE', symObjAddr: 0x1230, symBinAddr: 0x24748, symSize: 0x20 }
  - { offset: 0xCA69E, size: 0x8, addend: 0x0, symName: '__ZN5alloc3vec16Vec$LT$T$C$A$GT$8push_mut17h05f9e52faf136995E', symObjAddr: 0x12B0, symBinAddr: 0x24768, symSize: 0x100 }
  - { offset: 0xCA943, size: 0x8, addend: 0x0, symName: '__ZN5alloc3vec16Vec$LT$T$C$A$GT$8push_mut17h28cf74f85ca336b7E', symObjAddr: 0x14C0, symBinAddr: 0x24868, symSize: 0xCC }
  - { offset: 0xCABD9, size: 0x8, addend: 0x0, symName: '__ZN5alloc3vec16Vec$LT$T$C$A$GT$8push_mut17h2dd6e1623725f732E', symObjAddr: 0x158C, symBinAddr: 0x24934, symSize: 0x108 }
  - { offset: 0xCAE70, size: 0x8, addend: 0x0, symName: '__ZN5alloc3vec16Vec$LT$T$C$A$GT$8push_mut17h39c8de4cad8d44b9E', symObjAddr: 0x1694, symBinAddr: 0x24A3C, symSize: 0x108 }
  - { offset: 0xCB107, size: 0x8, addend: 0x0, symName: '__ZN5alloc3vec16Vec$LT$T$C$A$GT$8push_mut17h7095b158807b7d9fE', symObjAddr: 0x179C, symBinAddr: 0x24B44, symSize: 0xF0 }
  - { offset: 0xCB39F, size: 0x8, addend: 0x0, symName: '__ZN5alloc3vec16Vec$LT$T$C$A$GT$8push_mut17h8593d82d3fe03724E', symObjAddr: 0x188C, symBinAddr: 0x24C34, symSize: 0x108 }
  - { offset: 0xCB629, size: 0x8, addend: 0x0, symName: '__ZN5alloc3vec16Vec$LT$T$C$A$GT$8push_mut17h8860841248fda992E', symObjAddr: 0x1994, symBinAddr: 0x24D3C, symSize: 0xCC }
  - { offset: 0xCB8CC, size: 0x8, addend: 0x0, symName: '__ZN5alloc3vec16Vec$LT$T$C$A$GT$8push_mut17heba3451f1950cb1fE', symObjAddr: 0x1BF4, symBinAddr: 0x24E08, symSize: 0x108 }
  - { offset: 0xCC4B2, size: 0x8, addend: 0x0, symName: '__ZN66_$LT$kinodb_core..types..EpisodeId$u20$as$u20$core..fmt..Debug$GT$3fmt17hc2fc33b1dfcb3f6bE', symObjAddr: 0x0, symBinAddr: 0x253EC, symSize: 0x54 }
  - { offset: 0xCC4E3, size: 0x8, addend: 0x0, symName: '__ZN66_$LT$kinodb_core..types..EpisodeId$u20$as$u20$core..fmt..Debug$GT$3fmt17hc2fc33b1dfcb3f6bE', symObjAddr: 0x0, symBinAddr: 0x253EC, symSize: 0x54 }
  - { offset: 0xCC523, size: 0x8, addend: 0x0, symName: '__ZN68_$LT$kinodb_core..types..EpisodeId$u20$as$u20$core..clone..Clone$GT$5clone17hbf43df6dd011df7eE', symObjAddr: 0x54, symBinAddr: 0x25440, symSize: 0x18 }
  - { offset: 0xCC6F2, size: 0x8, addend: 0x0, symName: '__ZN42_$LT$$RF$T$u20$as$u20$core..fmt..Debug$GT$3fmt17hd05c416702616b6bE', symObjAddr: 0x0, symBinAddr: 0x25458, symSize: 0x30 }
  - { offset: 0xCC70E, size: 0x8, addend: 0x0, symName: '__ZN42_$LT$$RF$T$u20$as$u20$core..fmt..Debug$GT$3fmt17hd05c416702616b6bE', symObjAddr: 0x0, symBinAddr: 0x25458, symSize: 0x30 }
  - { offset: 0xCC7B6, size: 0x8, addend: 0x0, symName: '__ZN4core5slice29_$LT$impl$u20$$u5b$T$u5d$$GT$4iter17h2faf233658c68964E', symObjAddr: 0x30, symBinAddr: 0x25488, symSize: 0x28 }
  - { offset: 0xCCFC5, size: 0x8, addend: 0x0, symName: '__ZN110_$LT$core..iter..adapters..enumerate..Enumerate$LT$I$GT$$u20$as$u20$core..iter..traits..iterator..Iterator$GT$4next17h94a73341ca4e3c1cE', symObjAddr: 0xE0, symBinAddr: 0x254B0, symSize: 0x178 }
  - { offset: 0xCD0EA, size: 0x8, addend: 0x0, symName: '__ZN63_$LT$I$u20$as$u20$core..iter..traits..collect..IntoIterator$GT$9into_iter17h2b573e8cdbc9d5a3E', symObjAddr: 0x258, symBinAddr: 0x25628, symSize: 0x30 }
  - { offset: 0xCD430, size: 0x8, addend: 0x0, symName: __ZN4core4char7convert18from_u32_unchecked18precondition_check17he71e6c8e26ef0934E, symObjAddr: 0x0, symBinAddr: 0x25658, symSize: 0x7C }
  - { offset: 0xCD4BB, size: 0x8, addend: 0x0, symName: __ZN4core4char7convert18from_u32_unchecked18precondition_check17he71e6c8e26ef0934E, symObjAddr: 0x0, symBinAddr: 0x25658, symSize: 0x7C }
  - { offset: 0xCD62F, size: 0x8, addend: 0x0, symName: __ZN11kinodb_core3kql11eval_number17ha72a092ce619401aE, symObjAddr: 0x0, symBinAddr: 0x256D4, symSize: 0x1EC }
  - { offset: 0xCDFE5, size: 0x8, addend: 0x0, symName: __ZN11kinodb_core3kql11eval_number17ha72a092ce619401aE, symObjAddr: 0x0, symBinAddr: 0x256D4, symSize: 0x1EC }
  - { offset: 0xCE08B, size: 0x8, addend: 0x0, symName: __ZN11kinodb_core3kql11eval_string17h79b4ef81b0f3deadE, symObjAddr: 0x1EC, symBinAddr: 0x258C0, symSize: 0x1F4 }
  - { offset: 0xCE12C, size: 0x8, addend: 0x0, symName: __ZN11kinodb_core3kql13filter_reader17ha6dd6368923ebef6E, symObjAddr: 0x3E0, symBinAddr: 0x25AB4, symSize: 0x318 }
  - { offset: 0xCE25A, size: 0x8, addend: 0x0, symName: __ZN11kinodb_core3kql14eval_condition17hfd302ca36765424bE, symObjAddr: 0x6F8, symBinAddr: 0x25DCC, symSize: 0x2A0 }
  - { offset: 0xCE2B5, size: 0x8, addend: 0x0, symName: __ZN11kinodb_core3kql14is_known_field17hb4095f183c20542dE, symObjAddr: 0x998, symBinAddr: 0x2606C, symSize: 0x38 }
  - { offset: 0xCE2E1, size: 0x8, addend: 0x0, symName: __ZN11kinodb_core3kql16eval_option_bool17h980442a4cbe2a718E, symObjAddr: 0x9D0, symBinAddr: 0x260A4, symSize: 0x154 }
  - { offset: 0xCE369, size: 0x8, addend: 0x0, symName: __ZN11kinodb_core3kql5parse17h0aadd7078cc7a5daE, symObjAddr: 0xB24, symBinAddr: 0x261F8, symSize: 0xFCC }
  - { offset: 0xCE640, size: 0x8, addend: 0x0, symName: __ZN11kinodb_core3kql8evaluate17h484e1a6fd0e3e562E, symObjAddr: 0x1AF0, symBinAddr: 0x271C4, symSize: 0x4C }
  - { offset: 0xCE67D, size: 0x8, addend: 0x0, symName: __ZN11kinodb_core3kql8tokenize17h182476918b695e0fE, symObjAddr: 0x1B3C, symBinAddr: 0x27210, symSize: 0xF98 }
  - { offset: 0xCE7AD, size: 0x8, addend: 0x0, symName: '__ZN60_$LT$kinodb_core..kql..Token$u20$as$u20$core..fmt..Debug$GT$3fmt17h78c0d2480cfab783E', symObjAddr: 0x2AD4, symBinAddr: 0x281A8, symSize: 0x220 }
  - { offset: 0xCE844, size: 0x8, addend: 0x0, symName: '__ZN61_$LT$kinodb_core..kql..Op$u20$as$u20$core..cmp..PartialEq$GT$2eq17hd977cacd8717dc3cE', symObjAddr: 0x2CF4, symBinAddr: 0x283C8, symSize: 0x34 }
  - { offset: 0xCE8BE, size: 0x8, addend: 0x0, symName: '__ZN65_$LT$kinodb_core..kql..ParseError$u20$as$u20$core..fmt..Debug$GT$3fmt17h15932633f942a76dE', symObjAddr: 0x2D28, symBinAddr: 0x283FC, symSize: 0x320 }
  - { offset: 0xCE9E9, size: 0x8, addend: 0x0, symName: '__ZN67_$LT$kinodb_core..kql..ParseError$u20$as$u20$core..fmt..Display$GT$3fmt17h6b3a794718168e72E', symObjAddr: 0x3048, symBinAddr: 0x2871C, symSize: 0x3D4 }
  - { offset: 0xCF921, size: 0x8, addend: 0x0, symName: '__ZN42_$LT$$RF$T$u20$as$u20$core..fmt..Debug$GT$3fmt17h8ab523f26eaf0e99E', symObjAddr: 0x0, symBinAddr: 0x28AF0, symSize: 0x30 }
  - { offset: 0xCFBA2, size: 0x8, addend: 0x0, symName: '__ZN42_$LT$$RF$T$u20$as$u20$core..fmt..Debug$GT$3fmt17h8ab523f26eaf0e99E', symObjAddr: 0x0, symBinAddr: 0x28AF0, symSize: 0x30 }
  - { offset: 0xCFBEE, size: 0x8, addend: 0x0, symName: '__ZN44_$LT$$RF$T$u20$as$u20$core..fmt..Display$GT$3fmt17h469ec9d22c92a166E', symObjAddr: 0x30, symBinAddr: 0x28B20, symSize: 0x30 }
  - { offset: 0xCFEA2, size: 0x8, addend: 0x0, symName: '__ZN4core3fmt3num50_$LT$impl$u20$core..fmt..Debug$u20$for$u20$u16$GT$3fmt17h3f6c0073873eec46E', symObjAddr: 0x0, symBinAddr: 0x28B50, symSize: 0x90 }
  - { offset: 0xCFF3D, size: 0x8, addend: 0x0, symName: '__ZN4core3fmt3num50_$LT$impl$u20$core..fmt..Debug$u20$for$u20$u16$GT$3fmt17h3f6c0073873eec46E', symObjAddr: 0x0, symBinAddr: 0x28B50, symSize: 0x90 }
  - { offset: 0xCFFB7, size: 0x8, addend: 0x0, symName: '__ZN4core3fmt3num50_$LT$impl$u20$core..fmt..Debug$u20$for$u20$u64$GT$3fmt17h323aa39a2feeb0b9E', symObjAddr: 0x90, symBinAddr: 0x28BE0, symSize: 0x90 }
  - { offset: 0xD0031, size: 0x8, addend: 0x0, symName: '__ZN4core3fmt3num52_$LT$impl$u20$core..fmt..Debug$u20$for$u20$usize$GT$3fmt17h303edfde09cd2375E', symObjAddr: 0x120, symBinAddr: 0x28C70, symSize: 0x90 }
  - { offset: 0xD0288, size: 0x8, addend: 0x0, symName: __ZN4core3cmp9PartialEq2ne17h9c15d2c8884fed6dE, symObjAddr: 0x0, symBinAddr: 0x28D00, symSize: 0x30 }
  - { offset: 0xD0509, size: 0x8, addend: 0x0, symName: __ZN4core3cmp9PartialEq2ne17h9c15d2c8884fed6dE, symObjAddr: 0x0, symBinAddr: 0x28D00, symSize: 0x30 }
  - { offset: 0xD07BC, size: 0x8, addend: 0x0, symName: '__ZN70_$LT$core..option..Option$LT$T$GT$$u20$as$u20$core..cmp..PartialEq$GT$2eq17h686329edda3dd729E', symObjAddr: 0x214, symBinAddr: 0x28F14, symSize: 0xAC }
  - { offset: 0xD0D48, size: 0x8, addend: 0x0, symName: '__ZN4core6option15Option$LT$T$GT$11map_or_else17hdf2f89929b76dfacE', symObjAddr: 0x30, symBinAddr: 0x28D30, symSize: 0xC0 }
  - { offset: 0xD10FF, size: 0x8, addend: 0x0, symName: '__ZN4core6option15Option$LT$T$GT$5ok_or17hc56c0a7e088135cbE', symObjAddr: 0xF0, symBinAddr: 0x28DF0, symSize: 0x88 }
  - { offset: 0xD1192, size: 0x8, addend: 0x0, symName: '__ZN4core6option15Option$LT$T$GT$7is_none17h8eb021e096cdef46E', symObjAddr: 0x178, symBinAddr: 0x28E78, symSize: 0x28 }
  - { offset: 0xD11DC, size: 0x8, addend: 0x0, symName: '__ZN4core6option15Option$LT$T$GT$7is_some17h0167ff2e46e0c747E', symObjAddr: 0x1A0, symBinAddr: 0x28EA0, symSize: 0x28 }
  - { offset: 0xD120F, size: 0x8, addend: 0x0, symName: '__ZN4core6option15Option$LT$T$GT$9unwrap_or17h8a5ebcda7a4440c9E', symObjAddr: 0x1C8, symBinAddr: 0x28EC8, symSize: 0x4C }
  - { offset: 0xD1275, size: 0x8, addend: 0x0, symName: __ZN4core3ptr9alignment9Alignment13new_unchecked18precondition_check17h3a309319b2c76656E, symObjAddr: 0x0, symBinAddr: 0x28FC0, symSize: 0x70 }
  - { offset: 0xD12E1, size: 0x8, addend: 0x0, symName: __ZN4core3ptr9alignment9Alignment13new_unchecked18precondition_check17h3a309319b2c76656E, symObjAddr: 0x0, symBinAddr: 0x28FC0, symSize: 0x70 }
  - { offset: 0xD13C7, size: 0x8, addend: 0x0, symName: '__ZN4core3str6traits112_$LT$impl$u20$core..slice..index..SliceIndex$LT$str$GT$$u20$for$u20$core..ops..range..RangeFrom$LT$usize$GT$$GT$3get17h93ca9b053846a608E', symObjAddr: 0x0, symBinAddr: 0x29030, symSize: 0x150 }
  - { offset: 0xD1452, size: 0x8, addend: 0x0, symName: '__ZN4core3str6traits112_$LT$impl$u20$core..slice..index..SliceIndex$LT$str$GT$$u20$for$u20$core..ops..range..RangeFrom$LT$usize$GT$$GT$3get17h93ca9b053846a608E', symObjAddr: 0x0, symBinAddr: 0x29030, symSize: 0x150 }
  - { offset: 0xD186E, size: 0x8, addend: 0x0, symName: '__ZN4core5slice29_$LT$impl$u20$$u5b$T$u5d$$GT$15copy_from_slice17h00e740983b78f62bE', symObjAddr: 0x0, symBinAddr: 0x29180, symSize: 0x34 }
  - { offset: 0xD188A, size: 0x8, addend: 0x0, symName: '__ZN4core5slice29_$LT$impl$u20$$u5b$T$u5d$$GT$15copy_from_slice17h00e740983b78f62bE', symObjAddr: 0x0, symBinAddr: 0x29180, symSize: 0x34 }
  - { offset: 0xD18CC, size: 0x8, addend: 0x0, symName: '__ZN4core5slice29_$LT$impl$u20$$u5b$T$u5d$$GT$4iter17h8d1fdb0d6447acccE', symObjAddr: 0x5C, symBinAddr: 0x291B4, symSize: 0x28 }
  - { offset: 0xD1903, size: 0x8, addend: 0x0, symName: '__ZN4core5slice29_$LT$impl$u20$$u5b$T$u5d$$GT$8contains17ha7a44e8d76e1adefE', symObjAddr: 0x84, symBinAddr: 0x291DC, symSize: 0x48 }
  - { offset: 0xD1AE3, size: 0x8, addend: 0x0, symName: '__ZN4core3cmp5impls69_$LT$impl$u20$core..cmp..PartialEq$LT$$RF$B$GT$$u20$for$u20$$RF$A$GT$2eq17h9af748b54a261e45E', symObjAddr: 0x0, symBinAddr: 0x29224, symSize: 0x40 }
  - { offset: 0xD1B04, size: 0x8, addend: 0x0, symName: '__ZN4core3cmp5impls69_$LT$impl$u20$core..cmp..PartialEq$LT$$RF$B$GT$$u20$for$u20$$RF$A$GT$2eq17h9af748b54a261e45E', symObjAddr: 0x0, symBinAddr: 0x29224, symSize: 0x40 }
  - { offset: 0xD1B53, size: 0x8, addend: 0x0, symName: '__ZN4core3cmp5impls69_$LT$impl$u20$core..cmp..PartialEq$LT$$RF$B$GT$$u20$for$u20$$RF$A$GT$2eq17hc96435385001a8f2E', symObjAddr: 0x40, symBinAddr: 0x29264, symSize: 0x44 }
  - { offset: 0xD1BA2, size: 0x8, addend: 0x0, symName: '__ZN4core3cmp5impls69_$LT$impl$u20$core..cmp..PartialEq$LT$$RF$B$GT$$u20$for$u20$$RF$A$GT$2ne17h469f3f3ef8251749E', symObjAddr: 0x84, symBinAddr: 0x292A8, symSize: 0x40 }
  - { offset: 0xD1E49, size: 0x8, addend: 0x0, symName: '__ZN45_$LT$T$u20$as$u20$alloc..string..ToString$GT$9to_string17he3a431f38149bd26E', symObjAddr: 0x6800, symBinAddr: 0x2AA7C, symSize: 0x24 }
  - { offset: 0xD1E86, size: 0x8, addend: 0x0, symName: '__ZN49_$LT$T$u20$as$u20$alloc..string..SpecToString$GT$14spec_to_string17h0eebb346e16b07eaE', symObjAddr: 0x6824, symBinAddr: 0x2AAA0, symSize: 0xF4 }
  - { offset: 0xD23AD, size: 0x8, addend: 0x0, symName: '__ZN42_$LT$$RF$T$u20$as$u20$core..fmt..Debug$GT$3fmt17h536ed8dd9c28e092E', symObjAddr: 0x66E0, symBinAddr: 0x2A9EC, symSize: 0x30 }
  - { offset: 0xD23F9, size: 0x8, addend: 0x0, symName: '__ZN44_$LT$$RF$T$u20$as$u20$core..fmt..Display$GT$3fmt17h518daf8ed3f67721E', symObjAddr: 0x6710, symBinAddr: 0x2AA1C, symSize: 0x30 }
  - { offset: 0xD243F, size: 0x8, addend: 0x0, symName: '__ZN44_$LT$$RF$T$u20$as$u20$core..fmt..Display$GT$3fmt17he4209ec7fa3bde14E', symObjAddr: 0x6740, symBinAddr: 0x2AA4C, symSize: 0x30 }
  - { offset: 0xD25F8, size: 0x8, addend: 0x0, symName: '__ZN4core5array4iter94_$LT$impl$u20$core..iter..traits..collect..IntoIterator$u20$for$u20$$u5b$T$u3b$$u20$N$u5d$$GT$9into_iter17hc75d81de73244fa1E', symObjAddr: 0x6970, symBinAddr: 0x2AB94, symSize: 0x68 }
  - { offset: 0xD4200, size: 0x8, addend: 0x0, symName: '__ZN50_$LT$T$u20$as$u20$core..convert..Into$LT$U$GT$$GT$4into17h378ef4a65db1069fE', symObjAddr: 0xCF44, symBinAddr: 0x2D72C, symSize: 0x24 }
  - { offset: 0xD4240, size: 0x8, addend: 0x0, symName: '__ZN50_$LT$T$u20$as$u20$core..convert..Into$LT$U$GT$$GT$4into17h54c6800f78e09799E', symObjAddr: 0xCFB0, symBinAddr: 0x2D750, symSize: 0x24 }
  - { offset: 0xD4280, size: 0x8, addend: 0x0, symName: '__ZN50_$LT$T$u20$as$u20$core..convert..Into$LT$U$GT$$GT$4into17h64d54008a33948c0E', symObjAddr: 0xCFD4, symBinAddr: 0x2D774, symSize: 0x24 }
  - { offset: 0xD42C0, size: 0x8, addend: 0x0, symName: '__ZN50_$LT$T$u20$as$u20$core..convert..Into$LT$U$GT$$GT$4into17h6e8aaea7a4b8fbc3E', symObjAddr: 0xCFF8, symBinAddr: 0x2D798, symSize: 0x24 }
  - { offset: 0xD4300, size: 0x8, addend: 0x0, symName: '__ZN50_$LT$T$u20$as$u20$core..convert..Into$LT$U$GT$$GT$4into17h7a140587068a2655E', symObjAddr: 0xD01C, symBinAddr: 0x2D7BC, symSize: 0x24 }
  - { offset: 0xD4340, size: 0x8, addend: 0x0, symName: '__ZN50_$LT$T$u20$as$u20$core..convert..Into$LT$U$GT$$GT$4into17h7a5e9eeac047d1a9E', symObjAddr: 0xD040, symBinAddr: 0x2D7E0, symSize: 0x24 }
  - { offset: 0xD4380, size: 0x8, addend: 0x0, symName: '__ZN50_$LT$T$u20$as$u20$core..convert..Into$LT$U$GT$$GT$4into17ha8642a6c3fe9d550E', symObjAddr: 0xD064, symBinAddr: 0x2D804, symSize: 0x24 }
  - { offset: 0xD4B77, size: 0x8, addend: 0x0, symName: '__ZN103_$LT$pyo3..instance..Bound$LT$pyo3..types..any..PyAny$GT$$u20$as$u20$pyo3..types..any..PyAnyMethods$GT$13downcast_into17h556c8d8bdaf3722eE', symObjAddr: 0x480, symBinAddr: 0x292E8, symSize: 0xE8 }
  - { offset: 0xD4BAE, size: 0x8, addend: 0x0, symName: '__ZN103_$LT$pyo3..instance..Bound$LT$pyo3..types..any..PyAny$GT$$u20$as$u20$pyo3..types..any..PyAnyMethods$GT$13downcast_into17h81714f1d97df2858E', symObjAddr: 0x738, symBinAddr: 0x293D0, symSize: 0xE8 }
  - { offset: 0xD4BE5, size: 0x8, addend: 0x0, symName: '__ZN103_$LT$pyo3..instance..Bound$LT$pyo3..types..any..PyAny$GT$$u20$as$u20$pyo3..types..any..PyAnyMethods$GT$13downcast_into17hc4b131da7f55326fE', symObjAddr: 0x908, symBinAddr: 0x294B8, symSize: 0xE8 }
  - { offset: 0xD4C1C, size: 0x8, addend: 0x0, symName: '__ZN103_$LT$pyo3..instance..Bound$LT$pyo3..types..any..PyAny$GT$$u20$as$u20$pyo3..types..any..PyAnyMethods$GT$18downcast_unchecked17h122b71e8c4e16d78E', symObjAddr: 0xC44, symBinAddr: 0x295A0, symSize: 0x74 }
  - { offset: 0xD4C53, size: 0x8, addend: 0x0, symName: '__ZN103_$LT$pyo3..instance..Bound$LT$pyo3..types..any..PyAny$GT$$u20$as$u20$pyo3..types..any..PyAnyMethods$GT$23downcast_into_unchecked17h16c1735ddbb0b095E', symObjAddr: 0xFBC, symBinAddr: 0x29614, symSize: 0x14 }
  - { offset: 0xD4C8A, size: 0x8, addend: 0x0, symName: '__ZN103_$LT$pyo3..instance..Bound$LT$pyo3..types..any..PyAny$GT$$u20$as$u20$pyo3..types..any..PyAnyMethods$GT$23downcast_into_unchecked17h23d74403d7b81241E', symObjAddr: 0xFF8, symBinAddr: 0x29628, symSize: 0x14 }
  - { offset: 0xD4CC1, size: 0x8, addend: 0x0, symName: '__ZN103_$LT$pyo3..instance..Bound$LT$pyo3..types..any..PyAny$GT$$u20$as$u20$pyo3..types..any..PyAnyMethods$GT$23downcast_into_unchecked17h3e94974a304690d8E', symObjAddr: 0x1034, symBinAddr: 0x2963C, symSize: 0x14 }
  - { offset: 0xD4CF8, size: 0x8, addend: 0x0, symName: '__ZN103_$LT$pyo3..instance..Bound$LT$pyo3..types..any..PyAny$GT$$u20$as$u20$pyo3..types..any..PyAnyMethods$GT$23downcast_into_unchecked17h563b7cb91f561c2dE', symObjAddr: 0x105C, symBinAddr: 0x29650, symSize: 0x14 }
  - { offset: 0xD4D2F, size: 0x8, addend: 0x0, symName: '__ZN103_$LT$pyo3..instance..Bound$LT$pyo3..types..any..PyAny$GT$$u20$as$u20$pyo3..types..any..PyAnyMethods$GT$23downcast_into_unchecked17h574784af092c71d9E', symObjAddr: 0x1070, symBinAddr: 0x29664, symSize: 0x14 }
  - { offset: 0xD4D66, size: 0x8, addend: 0x0, symName: '__ZN103_$LT$pyo3..instance..Bound$LT$pyo3..types..any..PyAny$GT$$u20$as$u20$pyo3..types..any..PyAnyMethods$GT$23downcast_into_unchecked17h7b60de434a7c6fc4E', symObjAddr: 0x10C0, symBinAddr: 0x29678, symSize: 0x14 }
  - { offset: 0xD4D9D, size: 0x8, addend: 0x0, symName: '__ZN103_$LT$pyo3..instance..Bound$LT$pyo3..types..any..PyAny$GT$$u20$as$u20$pyo3..types..any..PyAnyMethods$GT$23downcast_into_unchecked17h7bdf49e73068f2a9E', symObjAddr: 0x10D4, symBinAddr: 0x2968C, symSize: 0x14 }
  - { offset: 0xD4DD4, size: 0x8, addend: 0x0, symName: '__ZN103_$LT$pyo3..instance..Bound$LT$pyo3..types..any..PyAny$GT$$u20$as$u20$pyo3..types..any..PyAnyMethods$GT$23downcast_into_unchecked17ha6a9bdfc342335f9E', symObjAddr: 0x114C, symBinAddr: 0x296A0, symSize: 0x14 }
  - { offset: 0xD4E0B, size: 0x8, addend: 0x0, symName: '__ZN103_$LT$pyo3..instance..Bound$LT$pyo3..types..any..PyAny$GT$$u20$as$u20$pyo3..types..any..PyAnyMethods$GT$2is17haf74168c14166669E', symObjAddr: 0x11D8, symBinAddr: 0x296B4, symSize: 0x4C }
  - { offset: 0xD4E51, size: 0x8, addend: 0x0, symName: '__ZN103_$LT$pyo3..instance..Bound$LT$pyo3..types..any..PyAny$GT$$u20$as$u20$pyo3..types..any..PyAnyMethods$GT$3str17hfb3d9dea4eadaec9E', symObjAddr: 0x1668, symBinAddr: 0x29700, symSize: 0x5C }
  - { offset: 0xD4E7F, size: 0x8, addend: 0x0, symName: '__ZN103_$LT$pyo3..instance..Bound$LT$pyo3..types..any..PyAny$GT$$u20$as$u20$pyo3..types..any..PyAnyMethods$GT$4repr17h5aaac23625f99d9fE', symObjAddr: 0x1824, symBinAddr: 0x2975C, symSize: 0x5C }
  - { offset: 0xD4EAD, size: 0x8, addend: 0x0, symName: '__ZN103_$LT$pyo3..instance..Bound$LT$pyo3..types..any..PyAny$GT$$u20$as$u20$pyo3..types..any..PyAnyMethods$GT$7extract17hc11f33b35da2c928E', symObjAddr: 0x1D44, symBinAddr: 0x297B8, symSize: 0x30 }
  - { offset: 0xD4EE4, size: 0x8, addend: 0x0, symName: '__ZN103_$LT$pyo3..instance..Bound$LT$pyo3..types..any..PyAny$GT$$u20$as$u20$pyo3..types..any..PyAnyMethods$GT$7extract17hdc229bb3d3168a3eE', symObjAddr: 0x1DA4, symBinAddr: 0x297E8, symSize: 0x30 }
  - { offset: 0xD4F1B, size: 0x8, addend: 0x0, symName: '__ZN103_$LT$pyo3..instance..Bound$LT$pyo3..types..any..PyAny$GT$$u20$as$u20$pyo3..types..any..PyAnyMethods$GT$7getattr17hcefb06279a9af912E', symObjAddr: 0x1F24, symBinAddr: 0x29818, symSize: 0xE4 }
  - { offset: 0xD4F77, size: 0x8, addend: 0x0, symName: '__ZN103_$LT$pyo3..instance..Bound$LT$pyo3..types..any..PyAny$GT$$u20$as$u20$pyo3..types..any..PyAnyMethods$GT$7setattr17h69edae2bb67a820bE', symObjAddr: 0x204C, symBinAddr: 0x298FC, symSize: 0x11C }
  - { offset: 0xD4FEC, size: 0x8, addend: 0x0, symName: '__ZN103_$LT$pyo3..instance..Bound$LT$pyo3..types..any..PyAny$GT$$u20$as$u20$pyo3..types..any..PyAnyMethods$GT$7setattr17h8f6aa1d6c89f1645E', symObjAddr: 0x2168, symBinAddr: 0x29A18, symSize: 0x140 }
  - { offset: 0xD5060, size: 0x8, addend: 0x0, symName: '__ZN103_$LT$pyo3..instance..Bound$LT$pyo3..types..any..PyAny$GT$$u20$as$u20$pyo3..types..any..PyAnyMethods$GT$8downcast17h4a31a6a935f64a89E', symObjAddr: 0x232C, symBinAddr: 0x29B58, symSize: 0x84 }
  - { offset: 0xD5097, size: 0x8, addend: 0x0, symName: '__ZN103_$LT$pyo3..instance..Bound$LT$pyo3..types..any..PyAny$GT$$u20$as$u20$pyo3..types..any..PyAnyMethods$GT$8get_type17h42f9e7da62de11c8E', symObjAddr: 0x2640, symBinAddr: 0x29BDC, symSize: 0x38 }
  - { offset: 0xD5101, size: 0x8, addend: 0x0, symName: '__ZN107_$LT$pyo3..instance..Bound$LT$pyo3..types..list..PyList$GT$$u20$as$u20$pyo3..types..list..PyListMethods$GT$6append17h6ec48c2099fed08fE', symObjAddr: 0x2D84, symBinAddr: 0x29C80, symSize: 0x80 }
  - { offset: 0xD5186, size: 0x8, addend: 0x0, symName: '__ZN111_$LT$pyo3..instance..Bound$LT$pyo3..types..bytes..PyBytes$GT$$u20$as$u20$pyo3..types..bytes..PyBytesMethods$GT$8as_bytes17h95e80885f0e2ea83E', symObjAddr: 0x2FA4, symBinAddr: 0x29D00, symSize: 0x28 }
  - { offset: 0xD51EE, size: 0x8, addend: 0x0, symName: '__ZN111_$LT$pyo3..instance..Bound$LT$pyo3..types..tuple..PyTuple$GT$$u20$as$u20$pyo3..types..tuple..PyTupleMethods$GT$3len17h2b9b51a4bba36dc6E', symObjAddr: 0x320C, symBinAddr: 0x29D28, symSize: 0x2C }
  - { offset: 0xD526A, size: 0x8, addend: 0x0, symName: '__ZN115_$LT$pyo3..instance..Bound$LT$pyo3..types..module..PyModule$GT$$u20$as$u20$pyo3..types..module..PyModuleMethods$GT$12add_function17h20c4501280a27ea7E', symObjAddr: 0x35D4, symBinAddr: 0x29D54, symSize: 0x200 }
  - { offset: 0xD531B, size: 0x8, addend: 0x0, symName: '__ZN115_$LT$pyo3..instance..Bound$LT$pyo3..types..module..PyModule$GT$$u20$as$u20$pyo3..types..module..PyModuleMethods$GT$3add17h7e8ee2db2b79e679E', symObjAddr: 0x3B68, symBinAddr: 0x29F54, symSize: 0x13C }
  - { offset: 0xD538F, size: 0x8, addend: 0x0, symName: '__ZN115_$LT$pyo3..instance..Bound$LT$pyo3..types..module..PyModule$GT$$u20$as$u20$pyo3..types..module..PyModuleMethods$GT$4name17hf13b22a33c00b2adE', symObjAddr: 0x3CF8, symBinAddr: 0x2A090, symSize: 0x5C }
  - { offset: 0xD53BD, size: 0x8, addend: 0x0, symName: '__ZN115_$LT$pyo3..instance..Bound$LT$pyo3..types..module..PyModule$GT$$u20$as$u20$pyo3..types..module..PyModuleMethods$GT$5index17hc1e869ad4d6e1c2cE', symObjAddr: 0x3D54, symBinAddr: 0x2A0EC, symSize: 0x258 }
  - { offset: 0xD5490, size: 0x8, addend: 0x0, symName: '__ZN115_$LT$pyo3..instance..Bound$LT$pyo3..types..string..PyString$GT$$u20$as$u20$pyo3..types..string..PyStringMethods$GT$15to_string_lossy17hd62543a77bfa6e9bE', symObjAddr: 0x4064, symBinAddr: 0x2A344, symSize: 0x30 }
  - { offset: 0xD54BE, size: 0x8, addend: 0x0, symName: '__ZN115_$LT$pyo3..instance..Bound$LT$pyo3..types..string..PyString$GT$$u20$as$u20$pyo3..types..string..PyStringMethods$GT$6to_cow17h877c2c23f3036d72E', symObjAddr: 0x40C4, symBinAddr: 0x2A374, symSize: 0x30 }
  - { offset: 0xD54F2, size: 0x8, addend: 0x0, symName: '__ZN4pyo35types6string176_$LT$impl$u20$pyo3..conversion..IntoPy$LT$pyo3..instance..Py$LT$pyo3..types..string..PyString$GT$$GT$$u20$for$u20$pyo3..instance..Bound$LT$pyo3..types..string..PyString$GT$$GT$7into_py17h4ff97fd638cb877cE', symObjAddr: 0x7684, symBinAddr: 0x2AD20, symSize: 0x24 }
  - { offset: 0xD5541, size: 0x8, addend: 0x0, symName: '__ZN4pyo35types6string180_$LT$impl$u20$pyo3..conversion..IntoPy$LT$pyo3..instance..Py$LT$pyo3..types..string..PyString$GT$$GT$$u20$for$u20$$RF$pyo3..instance..Bound$LT$pyo3..types..string..PyString$GT$$GT$7into_py17hf4a7107d831d79fdE', symObjAddr: 0x76CC, symBinAddr: 0x2AD44, symSize: 0x28 }
  - { offset: 0xD562A, size: 0x8, addend: 0x0, symName: '__ZN119_$LT$pyo3..instance..Bound$LT$pyo3..types..typeobject..PyType$GT$$u20$as$u20$pyo3..types..typeobject..PyTypeMethods$GT$11as_type_ptr17h88de9605730149d0E', symObjAddr: 0x487C, symBinAddr: 0x2A3A4, symSize: 0x24 }
  - { offset: 0xD5656, size: 0x8, addend: 0x0, symName: '__ZN119_$LT$pyo3..instance..Bound$LT$pyo3..types..typeobject..PyType$GT$$u20$as$u20$pyo3..types..typeobject..PyTypeMethods$GT$4name17h965e7a3a4699cfd0E', symObjAddr: 0x4EE0, symBinAddr: 0x2A3C8, symSize: 0x140 }
  - { offset: 0xD56DD, size: 0x8, addend: 0x0, symName: '__ZN119_$LT$pyo3..instance..Bound$LT$pyo3..types..typeobject..PyType$GT$$u20$as$u20$pyo3..types..typeobject..PyTypeMethods$GT$8qualname17h779ec89d8ab20d2eE', symObjAddr: 0x5208, symBinAddr: 0x2A508, symSize: 0x140 }
  - { offset: 0xD580D, size: 0x8, addend: 0x0, symName: '__ZN105_$LT$pyo3..instance..Py$LT$T$GT$$u20$as$u20$core..convert..From$LT$pyo3..instance..Bound$LT$T$GT$$GT$$GT$4from17h02060a28d73734bcE', symObjAddr: 0x28C8, symBinAddr: 0x29C14, symSize: 0x24 }
  - { offset: 0xD5844, size: 0x8, addend: 0x0, symName: '__ZN105_$LT$pyo3..instance..Py$LT$T$GT$$u20$as$u20$core..convert..From$LT$pyo3..instance..Bound$LT$T$GT$$GT$$GT$4from17h0e8a6038c3fe234dE', symObjAddr: 0x28EC, symBinAddr: 0x29C38, symSize: 0x24 }
  - { offset: 0xD587B, size: 0x8, addend: 0x0, symName: '__ZN105_$LT$pyo3..instance..Py$LT$T$GT$$u20$as$u20$core..convert..From$LT$pyo3..instance..Bound$LT$T$GT$$GT$$GT$4from17hdf5147a4980667b1E', symObjAddr: 0x2910, symBinAddr: 0x29C5C, symSize: 0x24 }
  - { offset: 0xD58B8, size: 0x8, addend: 0x0, symName: '__ZN124_$LT$pyo3..instance..Py$LT$pyo3..types..any..PyAny$GT$$u20$as$u20$core..convert..From$LT$pyo3..instance..Py$LT$T$GT$$GT$$GT$4from17h2448afe3bab33b17E', symObjAddr: 0x54BC, symBinAddr: 0x2A648, symSize: 0x24 }
  - { offset: 0xD58F5, size: 0x8, addend: 0x0, symName: '__ZN127_$LT$pyo3..instance..Py$LT$pyo3..types..any..PyAny$GT$$u20$as$u20$core..convert..From$LT$pyo3..instance..Bound$LT$T$GT$$GT$$GT$4from17h86f54ce6be80ec31E', symObjAddr: 0x5E50, symBinAddr: 0x2A66C, symSize: 0x84 }
  - { offset: 0xD594A, size: 0x8, addend: 0x0, symName: '__ZN127_$LT$pyo3..instance..Py$LT$pyo3..types..any..PyAny$GT$$u20$as$u20$core..convert..From$LT$pyo3..instance..Bound$LT$T$GT$$GT$$GT$4from17h8e25617dc47ae5deE', symObjAddr: 0x5ED4, symBinAddr: 0x2A6F0, symSize: 0x84 }
  - { offset: 0xD599F, size: 0x8, addend: 0x0, symName: '__ZN127_$LT$pyo3..instance..Py$LT$pyo3..types..any..PyAny$GT$$u20$as$u20$core..convert..From$LT$pyo3..instance..Bound$LT$T$GT$$GT$$GT$4from17hd5ceee22a878e241E', symObjAddr: 0x5FDC, symBinAddr: 0x2A774, symSize: 0x84 }
  - { offset: 0xD59FA, size: 0x8, addend: 0x0, symName: '__ZN129_$LT$pyo3..instance..Py$LT$T$GT$$u20$as$u20$pyo3..conversion..IntoPy$LT$pyo3..instance..Py$LT$pyo3..types..any..PyAny$GT$$GT$$GT$7into_py17h37fffa7866a67bb6E', symObjAddr: 0x60E4, symBinAddr: 0x2A7F8, symSize: 0x24 }
  - { offset: 0xD5A52, size: 0x8, addend: 0x0, symName: '__ZN132_$LT$pyo3..instance..Bound$LT$T$GT$$u20$as$u20$pyo3..conversion..IntoPy$LT$pyo3..instance..Py$LT$pyo3..types..any..PyAny$GT$$GT$$GT$7into_py17h065365bfa0aed428E', symObjAddr: 0x6108, symBinAddr: 0x2A81C, symSize: 0x28 }
  - { offset: 0xD5AA4, size: 0x8, addend: 0x0, symName: '__ZN132_$LT$pyo3..instance..Bound$LT$T$GT$$u20$as$u20$pyo3..conversion..IntoPy$LT$pyo3..instance..Py$LT$pyo3..types..any..PyAny$GT$$GT$$GT$7into_py17h078ec98432153829E', symObjAddr: 0x6130, symBinAddr: 0x2A844, symSize: 0x28 }
  - { offset: 0xD5AF6, size: 0x8, addend: 0x0, symName: '__ZN132_$LT$pyo3..instance..Bound$LT$T$GT$$u20$as$u20$pyo3..conversion..IntoPy$LT$pyo3..instance..Py$LT$pyo3..types..any..PyAny$GT$$GT$$GT$7into_py17h1f7a05bf1f0d3f51E', symObjAddr: 0x6158, symBinAddr: 0x2A86C, symSize: 0x28 }
  - { offset: 0xD5B48, size: 0x8, addend: 0x0, symName: '__ZN132_$LT$pyo3..instance..Bound$LT$T$GT$$u20$as$u20$pyo3..conversion..IntoPy$LT$pyo3..instance..Py$LT$pyo3..types..any..PyAny$GT$$GT$$GT$7into_py17h872e55b90f5f101dE', symObjAddr: 0x61A8, symBinAddr: 0x2A894, symSize: 0x28 }
  - { offset: 0xD5B9A, size: 0x8, addend: 0x0, symName: '__ZN132_$LT$pyo3..instance..Bound$LT$T$GT$$u20$as$u20$pyo3..conversion..IntoPy$LT$pyo3..instance..Py$LT$pyo3..types..any..PyAny$GT$$GT$$GT$7into_py17h8860c44331e51f71E', symObjAddr: 0x61F8, symBinAddr: 0x2A8BC, symSize: 0x28 }
  - { offset: 0xD5BEC, size: 0x8, addend: 0x0, symName: '__ZN132_$LT$pyo3..instance..Bound$LT$T$GT$$u20$as$u20$pyo3..conversion..IntoPy$LT$pyo3..instance..Py$LT$pyo3..types..any..PyAny$GT$$GT$$GT$7into_py17habd58c61306a7223E', symObjAddr: 0x6270, symBinAddr: 0x2A8E4, symSize: 0x28 }
  - { offset: 0xD5C3E, size: 0x8, addend: 0x0, symName: '__ZN132_$LT$pyo3..instance..Bound$LT$T$GT$$u20$as$u20$pyo3..conversion..IntoPy$LT$pyo3..instance..Py$LT$pyo3..types..any..PyAny$GT$$GT$$GT$7into_py17hb9a906631f48d434E', symObjAddr: 0x62C0, symBinAddr: 0x2A90C, symSize: 0x28 }
  - { offset: 0xD5C90, size: 0x8, addend: 0x0, symName: '__ZN132_$LT$pyo3..instance..Bound$LT$T$GT$$u20$as$u20$pyo3..conversion..IntoPy$LT$pyo3..instance..Py$LT$pyo3..types..any..PyAny$GT$$GT$$GT$7into_py17he3a0dc61c2c6dddaE', symObjAddr: 0x62E8, symBinAddr: 0x2A934, symSize: 0x28 }
  - { offset: 0xD5CE8, size: 0x8, addend: 0x0, symName: '__ZN135_$LT$pyo3..instance..Borrowed$LT$T$GT$$u20$as$u20$pyo3..conversion..IntoPy$LT$pyo3..instance..Py$LT$pyo3..types..any..PyAny$GT$$GT$$GT$7into_py17h2fe3361978456008E', symObjAddr: 0x635C, symBinAddr: 0x2A95C, symSize: 0x28 }
  - { offset: 0xD5D40, size: 0x8, addend: 0x0, symName: '__ZN136_$LT$$RF$pyo3..instance..Bound$LT$T$GT$$u20$as$u20$pyo3..conversion..IntoPy$LT$pyo3..instance..Py$LT$pyo3..types..any..PyAny$GT$$GT$$GT$7into_py17hc333587c99df69aeE', symObjAddr: 0x6558, symBinAddr: 0x2A984, symSize: 0x24 }
  - { offset: 0xD7157, size: 0x8, addend: 0x0, symName: '__ZN4pyo38instance11Py$LT$T$GT$21from_owned_ptr_or_opt28_$u7b$$u7b$closure$u7d$$u7d$17h7ac2dab306adcb09E', symObjAddr: 0x924C, symBinAddr: 0x2B3EC, symSize: 0x14 }
  - { offset: 0xD7199, size: 0x8, addend: 0x0, symName: '__ZN4pyo38instance11Py$LT$T$GT$21from_owned_ptr_or_opt28_$u7b$$u7b$closure$u7d$$u7d$17h8c82aed608b01ad1E', symObjAddr: 0x9260, symBinAddr: 0x2B400, symSize: 0x14 }
  - { offset: 0xD71DB, size: 0x8, addend: 0x0, symName: '__ZN4pyo38instance11Py$LT$T$GT$21from_owned_ptr_or_opt28_$u7b$$u7b$closure$u7d$$u7d$17h974e502ae9e5be2bE', symObjAddr: 0x9274, symBinAddr: 0x2B414, symSize: 0x14 }
  - { offset: 0xD721D, size: 0x8, addend: 0x0, symName: '__ZN4pyo38instance11Py$LT$T$GT$21from_owned_ptr_or_opt28_$u7b$$u7b$closure$u7d$$u7d$17hcb680ec8e54e1cc4E', symObjAddr: 0x9288, symBinAddr: 0x2B428, symSize: 0x14 }
  - { offset: 0xD75A1, size: 0x8, addend: 0x0, symName: __ZN4pyo38instance13python_format17hdd1be74f6ee83befE, symObjAddr: 0xAE44, symBinAddr: 0x2C544, symSize: 0x2E8 }
  - { offset: 0xD7B89, size: 0x8, addend: 0x0, symName: '__ZN4pyo38instance36Bound$LT$pyo3..types..any..PyAny$GT$21from_owned_ptr_or_err28_$u7b$$u7b$closure$u7d$$u7d$17h17271417765f9402E', symObjAddr: 0xCAE4, symBinAddr: 0x2D4F0, symSize: 0x28 }
  - { offset: 0xD7BE7, size: 0x8, addend: 0x0, symName: '__ZN4pyo38instance36Bound$LT$pyo3..types..any..PyAny$GT$21from_owned_ptr_or_opt28_$u7b$$u7b$closure$u7d$$u7d$17h16ce342a55934119E', symObjAddr: 0xCB38, symBinAddr: 0x2D544, symSize: 0x28 }
  - { offset: 0xD7C4B, size: 0x8, addend: 0x0, symName: '__ZN4pyo38instance39Borrowed$LT$pyo3..types..any..PyAny$GT$8from_ptr28_$u7b$$u7b$closure$u7d$$u7d$17h63bed6c58cfc4ea1E', symObjAddr: 0xCE60, symBinAddr: 0x2D690, symSize: 0x1C }
  - { offset: 0xD7C9F, size: 0x8, addend: 0x0, symName: '__ZN67_$LT$pyo3..instance..Bound$LT$T$GT$$u20$as$u20$core..fmt..Debug$GT$3fmt17h0f857d674757e719E', symObjAddr: 0xD190, symBinAddr: 0x2D89C, symSize: 0x54 }
  - { offset: 0xD7D03, size: 0x8, addend: 0x0, symName: '__ZN67_$LT$pyo3..instance..Bound$LT$T$GT$$u20$as$u20$core..fmt..Debug$GT$3fmt17h2dab6103d3f5a6c3E', symObjAddr: 0xD1E4, symBinAddr: 0x2D8F0, symSize: 0x54 }
  - { offset: 0xD7D67, size: 0x8, addend: 0x0, symName: '__ZN67_$LT$pyo3..instance..Bound$LT$T$GT$$u20$as$u20$core..fmt..Debug$GT$3fmt17hfa387e125abb860dE', symObjAddr: 0xD238, symBinAddr: 0x2D944, symSize: 0x54 }
  - { offset: 0xD7DD1, size: 0x8, addend: 0x0, symName: '__ZN69_$LT$pyo3..instance..Bound$LT$T$GT$$u20$as$u20$core..clone..Clone$GT$5clone17h14640d2e12fb994aE', symObjAddr: 0xD28C, symBinAddr: 0x2D998, symSize: 0x34 }
  - { offset: 0xD7E08, size: 0x8, addend: 0x0, symName: '__ZN69_$LT$pyo3..instance..Bound$LT$T$GT$$u20$as$u20$core..clone..Clone$GT$5clone17h15c11a1e5e5fb606E', symObjAddr: 0xD2C0, symBinAddr: 0x2D9CC, symSize: 0x34 }
  - { offset: 0xD7E3F, size: 0x8, addend: 0x0, symName: '__ZN69_$LT$pyo3..instance..Bound$LT$T$GT$$u20$as$u20$core..clone..Clone$GT$5clone17h295b672b99e81458E', symObjAddr: 0xD328, symBinAddr: 0x2DA00, symSize: 0x34 }
  - { offset: 0xD7E76, size: 0x8, addend: 0x0, symName: '__ZN69_$LT$pyo3..instance..Bound$LT$T$GT$$u20$as$u20$core..clone..Clone$GT$5clone17h7ffe6273317e96f2E', symObjAddr: 0xD3F8, symBinAddr: 0x2DA34, symSize: 0x34 }
  - { offset: 0xD7EAD, size: 0x8, addend: 0x0, symName: '__ZN69_$LT$pyo3..instance..Bound$LT$T$GT$$u20$as$u20$core..clone..Clone$GT$5clone17hb93c8837cbb91f28E', symObjAddr: 0xD460, symBinAddr: 0x2DA68, symSize: 0x34 }
  - { offset: 0xD7EE4, size: 0x8, addend: 0x0, symName: '__ZN69_$LT$pyo3..instance..Bound$LT$T$GT$$u20$as$u20$core..clone..Clone$GT$5clone17hca6ff0bcabf72e93E', symObjAddr: 0xD494, symBinAddr: 0x2DA9C, symSize: 0x34 }
  - { offset: 0xD7F1B, size: 0x8, addend: 0x0, symName: '__ZN69_$LT$pyo3..instance..Bound$LT$T$GT$$u20$as$u20$core..clone..Clone$GT$5clone17hf236903485dac8c2E', symObjAddr: 0xD564, symBinAddr: 0x2DAD0, symSize: 0x34 }
  - { offset: 0xD7F52, size: 0x8, addend: 0x0, symName: '__ZN69_$LT$pyo3..instance..Bound$LT$T$GT$$u20$as$u20$core..clone..Clone$GT$5clone17hfd40836dc230f4a3E', symObjAddr: 0xD598, symBinAddr: 0x2DB04, symSize: 0x34 }
  - { offset: 0xD7F8F, size: 0x8, addend: 0x0, symName: '__ZN69_$LT$pyo3..instance..Bound$LT$T$GT$$u20$as$u20$core..fmt..Display$GT$3fmt17h348e38bd0f045e51E', symObjAddr: 0xD5CC, symBinAddr: 0x2DB38, symSize: 0x54 }
  - { offset: 0xD7FF3, size: 0x8, addend: 0x0, symName: '__ZN69_$LT$pyo3..instance..Bound$LT$T$GT$$u20$as$u20$core..fmt..Display$GT$3fmt17h369501a36e7118a8E', symObjAddr: 0xD620, symBinAddr: 0x2DB8C, symSize: 0x54 }
  - { offset: 0xD8057, size: 0x8, addend: 0x0, symName: '__ZN69_$LT$pyo3..instance..Bound$LT$T$GT$$u20$as$u20$core..fmt..Display$GT$3fmt17hb00ce6190043788dE', symObjAddr: 0xD674, symBinAddr: 0x2DBE0, symSize: 0x54 }
  - { offset: 0xD80C1, size: 0x8, addend: 0x0, symName: '__ZN69_$LT$pyo3..instance..Py$LT$T$GT$$u20$as$u20$core..ops..drop..Drop$GT$4drop17h04446207acc8532dE', symObjAddr: 0xD71C, symBinAddr: 0x2DC34, symSize: 0x28 }
  - { offset: 0xD80F4, size: 0x8, addend: 0x0, symName: '__ZN69_$LT$pyo3..instance..Py$LT$T$GT$$u20$as$u20$core..ops..drop..Drop$GT$4drop17h10380f9d62d67368E', symObjAddr: 0xD744, symBinAddr: 0x2DC5C, symSize: 0x28 }
  - { offset: 0xD8127, size: 0x8, addend: 0x0, symName: '__ZN69_$LT$pyo3..instance..Py$LT$T$GT$$u20$as$u20$core..ops..drop..Drop$GT$4drop17h1bdca1294790704bE', symObjAddr: 0xD76C, symBinAddr: 0x2DC84, symSize: 0x28 }
  - { offset: 0xD815A, size: 0x8, addend: 0x0, symName: '__ZN69_$LT$pyo3..instance..Py$LT$T$GT$$u20$as$u20$core..ops..drop..Drop$GT$4drop17hac008bd8318c3663E', symObjAddr: 0xD7BC, symBinAddr: 0x2DCAC, symSize: 0x28 }
  - { offset: 0xD818D, size: 0x8, addend: 0x0, symName: '__ZN69_$LT$pyo3..instance..Py$LT$T$GT$$u20$as$u20$core..ops..drop..Drop$GT$4drop17hd59c03e0ec5bd113E', symObjAddr: 0xD7E4, symBinAddr: 0x2DCD4, symSize: 0x28 }
  - { offset: 0xD81C0, size: 0x8, addend: 0x0, symName: '__ZN69_$LT$pyo3..instance..Py$LT$T$GT$$u20$as$u20$core..ops..drop..Drop$GT$4drop17hd9f043a27cfb7edfE', symObjAddr: 0xD80C, symBinAddr: 0x2DCFC, symSize: 0x28 }
  - { offset: 0xD81F3, size: 0x8, addend: 0x0, symName: '__ZN69_$LT$pyo3..instance..Py$LT$T$GT$$u20$as$u20$core..ops..drop..Drop$GT$4drop17hfe7890d6f2640a32E', symObjAddr: 0xD834, symBinAddr: 0x2DD24, symSize: 0x28 }
  - { offset: 0xD822C, size: 0x8, addend: 0x0, symName: '__ZN72_$LT$pyo3..instance..Bound$LT$T$GT$$u20$as$u20$core..ops..drop..Drop$GT$4drop17h2b8fdb4fd45c5f6cE', symObjAddr: 0xDAE4, symBinAddr: 0x2DD4C, symSize: 0x144 }
  - { offset: 0xD827D, size: 0x8, addend: 0x0, symName: '__ZN72_$LT$pyo3..instance..Bound$LT$T$GT$$u20$as$u20$core..ops..drop..Drop$GT$4drop17h37dd033952139949E', symObjAddr: 0xDD6C, symBinAddr: 0x2DE90, symSize: 0x144 }
  - { offset: 0xD82CE, size: 0x8, addend: 0x0, symName: '__ZN72_$LT$pyo3..instance..Bound$LT$T$GT$$u20$as$u20$core..ops..drop..Drop$GT$4drop17h48641cb227491486E', symObjAddr: 0xDEB0, symBinAddr: 0x2DFD4, symSize: 0x144 }
  - { offset: 0xD831F, size: 0x8, addend: 0x0, symName: '__ZN72_$LT$pyo3..instance..Bound$LT$T$GT$$u20$as$u20$core..ops..drop..Drop$GT$4drop17h9cf97eb411bea181E', symObjAddr: 0xE648, symBinAddr: 0x2E118, symSize: 0x144 }
  - { offset: 0xD8370, size: 0x8, addend: 0x0, symName: '__ZN72_$LT$pyo3..instance..Bound$LT$T$GT$$u20$as$u20$core..ops..drop..Drop$GT$4drop17hb38c847954770780E', symObjAddr: 0xE8D0, symBinAddr: 0x2E25C, symSize: 0x144 }
  - { offset: 0xD83C1, size: 0x8, addend: 0x0, symName: '__ZN72_$LT$pyo3..instance..Bound$LT$T$GT$$u20$as$u20$core..ops..drop..Drop$GT$4drop17hb8e4e412bd58b87aE', symObjAddr: 0xEA14, symBinAddr: 0x2E3A0, symSize: 0x144 }
  - { offset: 0xD8412, size: 0x8, addend: 0x0, symName: '__ZN72_$LT$pyo3..instance..Bound$LT$T$GT$$u20$as$u20$core..ops..drop..Drop$GT$4drop17hc7fe3c8e5c08b634E', symObjAddr: 0xEB58, symBinAddr: 0x2E4E4, symSize: 0x144 }
  - { offset: 0xD8463, size: 0x8, addend: 0x0, symName: '__ZN72_$LT$pyo3..instance..Bound$LT$T$GT$$u20$as$u20$core..ops..drop..Drop$GT$4drop17hd155bc7fe365034bE', symObjAddr: 0xEC9C, symBinAddr: 0x2E628, symSize: 0x144 }
  - { offset: 0xD84B4, size: 0x8, addend: 0x0, symName: '__ZN72_$LT$pyo3..instance..Bound$LT$T$GT$$u20$as$u20$core..ops..drop..Drop$GT$4drop17he964e1b9aeea6fafE', symObjAddr: 0xEF24, symBinAddr: 0x2E76C, symSize: 0x144 }
  - { offset: 0xD8505, size: 0x8, addend: 0x0, symName: '__ZN72_$LT$pyo3..instance..Bound$LT$T$GT$$u20$as$u20$core..ops..drop..Drop$GT$4drop17hfb90a5b32854a924E', symObjAddr: 0xF1AC, symBinAddr: 0x2E8B0, symSize: 0x144 }
  - { offset: 0xD855C, size: 0x8, addend: 0x0, symName: '__ZN74_$LT$pyo3..instance..Bound$LT$T$GT$$u20$as$u20$core..ops..deref..Deref$GT$5deref17h7a473035bd79cce3E', symObjAddr: 0xF380, symBinAddr: 0x2E9F4, symSize: 0x24 }
  - { offset: 0xD8593, size: 0x8, addend: 0x0, symName: '__ZN74_$LT$pyo3..instance..Bound$LT$T$GT$$u20$as$u20$core..ops..deref..Deref$GT$5deref17h8666e05750b44012E', symObjAddr: 0xF3C8, symBinAddr: 0x2EA18, symSize: 0x24 }
  - { offset: 0xD85CA, size: 0x8, addend: 0x0, symName: '__ZN74_$LT$pyo3..instance..Bound$LT$T$GT$$u20$as$u20$core..ops..deref..Deref$GT$5deref17h985e79de17e69a64E', symObjAddr: 0xF3EC, symBinAddr: 0x2EA3C, symSize: 0x24 }
  - { offset: 0xD8601, size: 0x8, addend: 0x0, symName: '__ZN74_$LT$pyo3..instance..Bound$LT$T$GT$$u20$as$u20$core..ops..deref..Deref$GT$5deref17hff5bfcb5c9aad998E', symObjAddr: 0xF434, symBinAddr: 0x2EA60, symSize: 0x24 }
  - { offset: 0xD863E, size: 0x8, addend: 0x0, symName: '__ZN76_$LT$pyo3..instance..Py$LT$T$GT$$u20$as$u20$pyo3..conversion..ToPyObject$GT$9to_object17hfe312f8fab3e3bbfE', symObjAddr: 0xF480, symBinAddr: 0x2EA84, symSize: 0x28 }
  - { offset: 0xD8696, size: 0x8, addend: 0x0, symName: '__ZN77_$LT$pyo3..instance..Borrowed$LT$T$GT$$u20$as$u20$core..ops..deref..Deref$GT$5deref17h27f32e39e5f5cf8eE', symObjAddr: 0xF51C, symBinAddr: 0x2EAAC, symSize: 0x74 }
  - { offset: 0xD86CD, size: 0x8, addend: 0x0, symName: '__ZN77_$LT$pyo3..instance..Borrowed$LT$T$GT$$u20$as$u20$core..ops..deref..Deref$GT$5deref17h66335208b8d6649aE', symObjAddr: 0xF590, symBinAddr: 0x2EB20, symSize: 0x74 }
  - { offset: 0xD8704, size: 0x8, addend: 0x0, symName: '__ZN77_$LT$pyo3..instance..Borrowed$LT$T$GT$$u20$as$u20$core..ops..deref..Deref$GT$5deref17h742bb55ef8864566E', symObjAddr: 0xF604, symBinAddr: 0x2EB94, symSize: 0x74 }
  - { offset: 0xD873B, size: 0x8, addend: 0x0, symName: '__ZN77_$LT$pyo3..instance..Borrowed$LT$T$GT$$u20$as$u20$core..ops..deref..Deref$GT$5deref17h96365f4a2523f04aE', symObjAddr: 0xF6EC, symBinAddr: 0x2EC08, symSize: 0x74 }
  - { offset: 0xD8772, size: 0x8, addend: 0x0, symName: '__ZN77_$LT$pyo3..instance..Borrowed$LT$T$GT$$u20$as$u20$core..ops..deref..Deref$GT$5deref17hd46e701540f12016E', symObjAddr: 0xF848, symBinAddr: 0x2EC7C, symSize: 0x74 }
  - { offset: 0xD87A9, size: 0x8, addend: 0x0, symName: '__ZN77_$LT$pyo3..instance..Borrowed$LT$T$GT$$u20$as$u20$core..ops..deref..Deref$GT$5deref17hf6e36fe6fbb2c4a8E', symObjAddr: 0xF930, symBinAddr: 0x2ECF0, symSize: 0x74 }
  - { offset: 0xD87E6, size: 0x8, addend: 0x0, symName: '__ZN79_$LT$pyo3..instance..Bound$LT$T$GT$$u20$as$u20$pyo3..conversion..ToPyObject$GT$9to_object17h3fed6802e65d9250E', symObjAddr: 0xF9A4, symBinAddr: 0x2ED64, symSize: 0x28 }
  - { offset: 0xD8838, size: 0x8, addend: 0x0, symName: '__ZN79_$LT$pyo3..instance..Bound$LT$T$GT$$u20$as$u20$pyo3..conversion..ToPyObject$GT$9to_object17ha19f0fc69478ecfdE', symObjAddr: 0xFA44, symBinAddr: 0x2ED8C, symSize: 0x28 }
  - { offset: 0xD888A, size: 0x8, addend: 0x0, symName: '__ZN79_$LT$pyo3..instance..Bound$LT$T$GT$$u20$as$u20$pyo3..conversion..ToPyObject$GT$9to_object17hdc4dca5f7789498aE', symObjAddr: 0xFA94, symBinAddr: 0x2EDB4, symSize: 0x28 }
  - { offset: 0xD88E2, size: 0x8, addend: 0x0, symName: '__ZN80_$LT$pyo3..instance..Bound$LT$T$GT$$u20$as$u20$pyo3..conversion..AsPyPointer$GT$6as_ptr17h7510be0a3ab33e59E', symObjAddr: 0xFABC, symBinAddr: 0x2EDDC, symSize: 0x2C }
  - { offset: 0xD892A, size: 0x8, addend: 0x0, symName: '__ZN196_$LT$$RF$pyo3..instance..Bound$LT$pyo3..types..module..PyModule$GT$$u20$as$u20$pyo3..impl_..pyfunction..WrapPyFunctionArg$LT$pyo3..instance..Bound$LT$pyo3..types..function..PyCFunction$GT$$GT$$GT$15wrap_pyfunction17h9f8f3256bee7489cE', symObjAddr: 0x664C, symBinAddr: 0x2A9A8, symSize: 0x44 }
  - { offset: 0xD8B97, size: 0x8, addend: 0x0, symName: '__ZN58_$LT$T$u20$as$u20$pyo3..err..err_state..PyErrArguments$GT$9arguments17h4d05cd339e522e0aE', symObjAddr: 0xD16C, symBinAddr: 0x2D878, symSize: 0x24 }
  - { offset: 0xD8C73, size: 0x8, addend: 0x0, symName: '__ZN54_$LT$$RF$T$u20$as$u20$pyo3..conversion..ToPyObject$GT$9to_object17h2d5f0244b3e172a2E', symObjAddr: 0xD0F4, symBinAddr: 0x2D828, symSize: 0x28 }
  - { offset: 0xD8CC5, size: 0x8, addend: 0x0, symName: '__ZN54_$LT$$RF$T$u20$as$u20$pyo3..conversion..ToPyObject$GT$9to_object17h3a7b290cc63b2de9E', symObjAddr: 0xD11C, symBinAddr: 0x2D850, symSize: 0x28 }
  - { offset: 0xD9282, size: 0x8, addend: 0x0, symName: '__ZN4pyo35types5bytes77_$LT$impl$u20$pyo3..instance..Borrowed$LT$pyo3..types..bytes..PyBytes$GT$$GT$8as_bytes17h6a2671e39076b69aE', symObjAddr: 0x6B20, symBinAddr: 0x2ABFC, symSize: 0x9C }
  - { offset: 0xD92DB, size: 0x8, addend: 0x0, symName: '__ZN4pyo35types5tuple77_$LT$impl$u20$pyo3..instance..Borrowed$LT$pyo3..types..tuple..PyTuple$GT$$GT$13iter_borrowed17h2010c81861b2c19cE', symObjAddr: 0x74FC, symBinAddr: 0x2AC98, symSize: 0x24 }
  - { offset: 0xD9353, size: 0x8, addend: 0x0, symName: '__ZN4pyo35types5tuple77_$LT$impl$u20$pyo3..instance..Borrowed$LT$pyo3..types..tuple..PyTuple$GT$$GT$27get_borrowed_item_unchecked17h82ac70472b5d008cE', symObjAddr: 0x7584, symBinAddr: 0x2ACBC, symSize: 0x64 }
  - { offset: 0xD93B0, size: 0x8, addend: 0x0, symName: '__ZN4pyo35types6string79_$LT$impl$u20$pyo3..instance..Borrowed$LT$pyo3..types..string..PyString$GT$$GT$15to_string_lossy17h1957e0b0ec1e6bfcE', symObjAddr: 0x7784, symBinAddr: 0x2AD6C, symSize: 0x178 }
  - { offset: 0xD947A, size: 0x8, addend: 0x0, symName: '__ZN4pyo35types6string79_$LT$impl$u20$pyo3..instance..Borrowed$LT$pyo3..types..string..PyString$GT$$GT$6to_cow17h393782261ba03ba3E', symObjAddr: 0x7AC0, symBinAddr: 0x2AEE4, symSize: 0x3C }
  - { offset: 0xD949D, size: 0x8, addend: 0x0, symName: '__ZN4pyo35types6string79_$LT$impl$u20$pyo3..instance..Borrowed$LT$pyo3..types..string..PyString$GT$$GT$6to_str17h9e43ab229c6f9de7E', symObjAddr: 0x7AFC, symBinAddr: 0x2AF20, symSize: 0xCC }
  - { offset: 0xD9541, size: 0x8, addend: 0x0, symName: '__ZN4pyo38instance11Py$LT$T$GT$10into_bound17h0b1aff8db116a40bE', symObjAddr: 0x8C00, symBinAddr: 0x2AFEC, symSize: 0x1C }
  - { offset: 0xD9588, size: 0x8, addend: 0x0, symName: '__ZN4pyo38instance11Py$LT$T$GT$10into_bound17h90f6ac639953a268E', symObjAddr: 0x8C1C, symBinAddr: 0x2B008, symSize: 0x1C }
  - { offset: 0xD95EF, size: 0x8, addend: 0x0, symName: '__ZN4pyo38instance11Py$LT$T$GT$13from_non_null17h5f99c3e38c45a922E', symObjAddr: 0x8DBC, symBinAddr: 0x2B024, symSize: 0x14 }
  - { offset: 0xD961B, size: 0x8, addend: 0x0, symName: '__ZN4pyo38instance11Py$LT$T$GT$13from_non_null17h61eabb68b4037857E', symObjAddr: 0x8DD0, symBinAddr: 0x2B038, symSize: 0x14 }
  - { offset: 0xD9647, size: 0x8, addend: 0x0, symName: '__ZN4pyo38instance11Py$LT$T$GT$13from_non_null17h62b78c3aa8d56707E', symObjAddr: 0x8DE4, symBinAddr: 0x2B04C, symSize: 0x14 }
  - { offset: 0xD9673, size: 0x8, addend: 0x0, symName: '__ZN4pyo38instance11Py$LT$T$GT$13from_non_null17h72774d6c77671939E', symObjAddr: 0x8DF8, symBinAddr: 0x2B060, symSize: 0x14 }
  - { offset: 0xD969F, size: 0x8, addend: 0x0, symName: '__ZN4pyo38instance11Py$LT$T$GT$13from_non_null17h7f6e1abe3ead7a98E', symObjAddr: 0x8E0C, symBinAddr: 0x2B074, symSize: 0x14 }
  - { offset: 0xD96CB, size: 0x8, addend: 0x0, symName: '__ZN4pyo38instance11Py$LT$T$GT$13from_non_null17h80336af7d581f3bcE', symObjAddr: 0x8E20, symBinAddr: 0x2B088, symSize: 0x14 }
  - { offset: 0xD96F7, size: 0x8, addend: 0x0, symName: '__ZN4pyo38instance11Py$LT$T$GT$13from_non_null17h9aad2d4fb26bb783E', symObjAddr: 0x8E48, symBinAddr: 0x2B09C, symSize: 0x14 }
  - { offset: 0xD9723, size: 0x8, addend: 0x0, symName: '__ZN4pyo38instance11Py$LT$T$GT$13from_non_null17ha22f5d465c8d0a86E', symObjAddr: 0x8E70, symBinAddr: 0x2B0B0, symSize: 0x14 }
  - { offset: 0xD974F, size: 0x8, addend: 0x0, symName: '__ZN4pyo38instance11Py$LT$T$GT$13from_non_null17ha807ff7a2ba8cf09E', symObjAddr: 0x8E84, symBinAddr: 0x2B0C4, symSize: 0x14 }
  - { offset: 0xD977B, size: 0x8, addend: 0x0, symName: '__ZN4pyo38instance11Py$LT$T$GT$13from_non_null17hb095e63186cd4a30E', symObjAddr: 0x8EC0, symBinAddr: 0x2B0D8, symSize: 0x14 }
  - { offset: 0xD97A7, size: 0x8, addend: 0x0, symName: '__ZN4pyo38instance11Py$LT$T$GT$13from_non_null17hbde87963cfe778a7E', symObjAddr: 0x8ED4, symBinAddr: 0x2B0EC, symSize: 0x14 }
  - { offset: 0xD97D3, size: 0x8, addend: 0x0, symName: '__ZN4pyo38instance11Py$LT$T$GT$13from_non_null17hbfcc9f958159c4b9E', symObjAddr: 0x8EE8, symBinAddr: 0x2B100, symSize: 0x14 }
  - { offset: 0xD982A, size: 0x8, addend: 0x0, symName: '__ZN4pyo38instance11Py$LT$T$GT$14from_owned_ptr17h11c61629afc63ab5E', symObjAddr: 0x8F24, symBinAddr: 0x2B114, symSize: 0x50 }
  - { offset: 0xD9871, size: 0x8, addend: 0x0, symName: '__ZN4pyo38instance11Py$LT$T$GT$14from_owned_ptr17h52080fe54ceea324E', symObjAddr: 0x8F74, symBinAddr: 0x2B164, symSize: 0x50 }
  - { offset: 0xD98B8, size: 0x8, addend: 0x0, symName: '__ZN4pyo38instance11Py$LT$T$GT$21from_owned_ptr_or_err17h12ba5e96c44a9781E', symObjAddr: 0x9014, symBinAddr: 0x2B1B4, symSize: 0x88 }
  - { offset: 0xD991D, size: 0x8, addend: 0x0, symName: '__ZN4pyo38instance11Py$LT$T$GT$21from_owned_ptr_or_err17h698f242192befad8E', symObjAddr: 0x909C, symBinAddr: 0x2B23C, symSize: 0x88 }
  - { offset: 0xD9982, size: 0x8, addend: 0x0, symName: '__ZN4pyo38instance11Py$LT$T$GT$21from_owned_ptr_or_err17h7812f6356f460cf8E', symObjAddr: 0x9124, symBinAddr: 0x2B2C4, symSize: 0x88 }
  - { offset: 0xD99E7, size: 0x8, addend: 0x0, symName: '__ZN4pyo38instance11Py$LT$T$GT$21from_owned_ptr_or_opt17h8dc19a68d4d70a0cE', symObjAddr: 0x91AC, symBinAddr: 0x2B34C, symSize: 0x28 }
  - { offset: 0xD9A2E, size: 0x8, addend: 0x0, symName: '__ZN4pyo38instance11Py$LT$T$GT$21from_owned_ptr_or_opt17ha1273981c5378ff0E', symObjAddr: 0x91D4, symBinAddr: 0x2B374, symSize: 0x28 }
  - { offset: 0xD9A75, size: 0x8, addend: 0x0, symName: '__ZN4pyo38instance11Py$LT$T$GT$21from_owned_ptr_or_opt17hbdc22330062c5355E', symObjAddr: 0x91FC, symBinAddr: 0x2B39C, symSize: 0x28 }
  - { offset: 0xD9ABC, size: 0x8, addend: 0x0, symName: '__ZN4pyo38instance11Py$LT$T$GT$21from_owned_ptr_or_opt17he89adb452048e30aE', symObjAddr: 0x9224, symBinAddr: 0x2B3C4, symSize: 0x28 }
  - { offset: 0xD9B10, size: 0x8, addend: 0x0, symName: '__ZN4pyo38instance11Py$LT$T$GT$4bind17h1bd5a7507895b3deE', symObjAddr: 0x929C, symBinAddr: 0x2B43C, symSize: 0x74 }
  - { offset: 0xD9B71, size: 0x8, addend: 0x0, symName: '__ZN4pyo38instance11Py$LT$T$GT$4bind17h26d3384fc6cdf69fE', symObjAddr: 0x9310, symBinAddr: 0x2B4B0, symSize: 0x74 }
  - { offset: 0xD9BD2, size: 0x8, addend: 0x0, symName: '__ZN4pyo38instance11Py$LT$T$GT$4bind17h3054d16b533d0755E', symObjAddr: 0x9384, symBinAddr: 0x2B524, symSize: 0x74 }
  - { offset: 0xD9C33, size: 0x8, addend: 0x0, symName: '__ZN4pyo38instance11Py$LT$T$GT$4bind17h8b55ac54b116e215E', symObjAddr: 0x93F8, symBinAddr: 0x2B598, symSize: 0x74 }
  - { offset: 0xD9C7A, size: 0x8, addend: 0x0, symName: '__ZN4pyo38instance11Py$LT$T$GT$4bind17ha80b3d404a4e9cdfE', symObjAddr: 0x946C, symBinAddr: 0x2B60C, symSize: 0x74 }
  - { offset: 0xD9CDB, size: 0x8, addend: 0x0, symName: '__ZN4pyo38instance11Py$LT$T$GT$4bind17hd16ef9fe03d04b41E', symObjAddr: 0x94E0, symBinAddr: 0x2B680, symSize: 0x74 }
  - { offset: 0xD9D22, size: 0x8, addend: 0x0, symName: '__ZN4pyo38instance11Py$LT$T$GT$6as_ptr17h1858379171ef1775E', symObjAddr: 0x95A8, symBinAddr: 0x2B6F4, symSize: 0x1C }
  - { offset: 0xD9D4E, size: 0x8, addend: 0x0, symName: '__ZN4pyo38instance11Py$LT$T$GT$6as_ptr17h28de68a67d0e7704E', symObjAddr: 0x95C4, symBinAddr: 0x2B710, symSize: 0x1C }
  - { offset: 0xD9D87, size: 0x8, addend: 0x0, symName: '__ZN4pyo38instance11Py$LT$T$GT$6as_ptr17h4598105a2881cdf9E', symObjAddr: 0x9634, symBinAddr: 0x2B72C, symSize: 0x1C }
  - { offset: 0xD9DB3, size: 0x8, addend: 0x0, symName: '__ZN4pyo38instance11Py$LT$T$GT$6as_ptr17h4f6b352a44e4a770E', symObjAddr: 0x966C, symBinAddr: 0x2B748, symSize: 0x1C }
  - { offset: 0xD9DDF, size: 0x8, addend: 0x0, symName: '__ZN4pyo38instance11Py$LT$T$GT$6as_ptr17h50f84485980641aaE', symObjAddr: 0x9688, symBinAddr: 0x2B764, symSize: 0x1C }
  - { offset: 0xD9E0B, size: 0x8, addend: 0x0, symName: '__ZN4pyo38instance11Py$LT$T$GT$6as_ptr17h7d6b4438caa7e581E', symObjAddr: 0x9714, symBinAddr: 0x2B780, symSize: 0x1C }
  - { offset: 0xD9E37, size: 0x8, addend: 0x0, symName: '__ZN4pyo38instance11Py$LT$T$GT$6as_ptr17h8f00ac54b4fd4501E', symObjAddr: 0x9730, symBinAddr: 0x2B79C, symSize: 0x1C }
  - { offset: 0xD9E63, size: 0x8, addend: 0x0, symName: '__ZN4pyo38instance11Py$LT$T$GT$6as_ptr17hac513c2703f1b7edE', symObjAddr: 0x97D8, symBinAddr: 0x2B7B8, symSize: 0x1C }
  - { offset: 0xD9E8F, size: 0x8, addend: 0x0, symName: '__ZN4pyo38instance11Py$LT$T$GT$6as_ptr17hb8caa983cce93ee5E', symObjAddr: 0x97F4, symBinAddr: 0x2B7D4, symSize: 0x1C }
  - { offset: 0xD9EBB, size: 0x8, addend: 0x0, symName: '__ZN4pyo38instance11Py$LT$T$GT$6as_ptr17hc4e2494ab3890ee9E', symObjAddr: 0x9848, symBinAddr: 0x2B7F0, symSize: 0x1C }
  - { offset: 0xD9EF4, size: 0x8, addend: 0x0, symName: '__ZN4pyo38instance11Py$LT$T$GT$6as_ptr17hc7e435dc26946919E', symObjAddr: 0x9864, symBinAddr: 0x2B80C, symSize: 0x1C }
  - { offset: 0xD9F2D, size: 0x8, addend: 0x0, symName: '__ZN4pyo38instance11Py$LT$T$GT$6as_ptr17hcf9cdec6942a56eaE', symObjAddr: 0x9880, symBinAddr: 0x2B828, symSize: 0x1C }
  - { offset: 0xD9F66, size: 0x8, addend: 0x0, symName: '__ZN4pyo38instance11Py$LT$T$GT$6as_ptr17hef8fd049a52fbb07E', symObjAddr: 0x989C, symBinAddr: 0x2B844, symSize: 0x1C }
  - { offset: 0xD9F9F, size: 0x8, addend: 0x0, symName: '__ZN4pyo38instance11Py$LT$T$GT$6as_ptr17hf92fbe2c77e736d2E', symObjAddr: 0x98B8, symBinAddr: 0x2B860, symSize: 0x1C }
  - { offset: 0xD9FCB, size: 0x8, addend: 0x0, symName: '__ZN4pyo38instance11Py$LT$T$GT$8into_any17h227f03403e74ccfeE', symObjAddr: 0x9910, symBinAddr: 0x2B87C, symSize: 0x3C }
  - { offset: 0xD9FF7, size: 0x8, addend: 0x0, symName: '__ZN4pyo38instance11Py$LT$T$GT$8into_any17h427a2b7729a86596E', symObjAddr: 0x9988, symBinAddr: 0x2B8B8, symSize: 0x3C }
  - { offset: 0xDA023, size: 0x8, addend: 0x0, symName: '__ZN4pyo38instance11Py$LT$T$GT$8into_any17h4863bd91e73f251cE', symObjAddr: 0x99C4, symBinAddr: 0x2B8F4, symSize: 0x3C }
  - { offset: 0xDA04F, size: 0x8, addend: 0x0, symName: '__ZN4pyo38instance11Py$LT$T$GT$8into_any17h5ad1ba5e79bdc8b3E', symObjAddr: 0x9A3C, symBinAddr: 0x2B930, symSize: 0x3C }
  - { offset: 0xDA07B, size: 0x8, addend: 0x0, symName: '__ZN4pyo38instance11Py$LT$T$GT$8into_any17h68008eae3baba953E', symObjAddr: 0x9AB4, symBinAddr: 0x2B96C, symSize: 0x3C }
  - { offset: 0xDA0A7, size: 0x8, addend: 0x0, symName: '__ZN4pyo38instance11Py$LT$T$GT$8into_any17h8f88df372035282cE', symObjAddr: 0x9B2C, symBinAddr: 0x2B9A8, symSize: 0x3C }
  - { offset: 0xDA0D3, size: 0x8, addend: 0x0, symName: '__ZN4pyo38instance11Py$LT$T$GT$8into_any17ha1eedf1cb0d19357E', symObjAddr: 0x9B68, symBinAddr: 0x2B9E4, symSize: 0x3C }
  - { offset: 0xDA0FF, size: 0x8, addend: 0x0, symName: '__ZN4pyo38instance11Py$LT$T$GT$8into_any17hcc883d2c8c96df82E', symObjAddr: 0x9BE0, symBinAddr: 0x2BA20, symSize: 0x3C }
  - { offset: 0xDA12B, size: 0x8, addend: 0x0, symName: '__ZN4pyo38instance11Py$LT$T$GT$8into_any17hcf857d797684be25E', symObjAddr: 0x9C1C, symBinAddr: 0x2BA5C, symSize: 0x3C }
  - { offset: 0xDA157, size: 0x8, addend: 0x0, symName: '__ZN4pyo38instance11Py$LT$T$GT$8into_any17hf3c1f76817cb71f3E', symObjAddr: 0x9C94, symBinAddr: 0x2BA98, symSize: 0x3C }
  - { offset: 0xDA183, size: 0x8, addend: 0x0, symName: '__ZN4pyo38instance11Py$LT$T$GT$8into_ptr17h33b864cad4cac748E', symObjAddr: 0x9D0C, symBinAddr: 0x2BAD4, symSize: 0x30 }
  - { offset: 0xDA1AF, size: 0x8, addend: 0x0, symName: '__ZN4pyo38instance11Py$LT$T$GT$8into_ptr17h58391eb92c9dc405E', symObjAddr: 0x9D3C, symBinAddr: 0x2BB04, symSize: 0x30 }
  - { offset: 0xDA1DB, size: 0x8, addend: 0x0, symName: '__ZN4pyo38instance11Py$LT$T$GT$8into_ptr17h7fbe815998939931E', symObjAddr: 0x9D6C, symBinAddr: 0x2BB34, symSize: 0x30 }
  - { offset: 0xDA207, size: 0x8, addend: 0x0, symName: '__ZN4pyo38instance11Py$LT$T$GT$8into_ptr17he7353185ab65643bE', symObjAddr: 0x9D9C, symBinAddr: 0x2BB64, symSize: 0x30 }
  - { offset: 0xDA233, size: 0x8, addend: 0x0, symName: '__ZN4pyo38instance11Py$LT$T$GT$9clone_ref17h1db8fe936e2a6a79E', symObjAddr: 0x9DCC, symBinAddr: 0x2BB94, symSize: 0xF8 }
  - { offset: 0xDA298, size: 0x8, addend: 0x0, symName: '__ZN4pyo38instance11Py$LT$T$GT$9clone_ref17h34b3544881a14f84E', symObjAddr: 0x9FBC, symBinAddr: 0x2BC8C, symSize: 0xF8 }
  - { offset: 0xDA2FD, size: 0x8, addend: 0x0, symName: '__ZN4pyo38instance11Py$LT$T$GT$9clone_ref17h3c66eb593b279eb9E', symObjAddr: 0xA1AC, symBinAddr: 0x2BD84, symSize: 0xF8 }
  - { offset: 0xDA362, size: 0x8, addend: 0x0, symName: '__ZN4pyo38instance11Py$LT$T$GT$9clone_ref17h560645bd2e02ffbeE', symObjAddr: 0xA39C, symBinAddr: 0x2BE7C, symSize: 0xF8 }
  - { offset: 0xDA3C7, size: 0x8, addend: 0x0, symName: '__ZN4pyo38instance11Py$LT$T$GT$9clone_ref17h62c5787e77ca629cE', symObjAddr: 0xA58C, symBinAddr: 0x2BF74, symSize: 0xF8 }
  - { offset: 0xDA42C, size: 0x8, addend: 0x0, symName: '__ZN4pyo38instance11Py$LT$T$GT$9clone_ref17h67bc5ed9d1a98b5fE', symObjAddr: 0xA684, symBinAddr: 0x2C06C, symSize: 0xF8 }
  - { offset: 0xDA491, size: 0x8, addend: 0x0, symName: '__ZN4pyo38instance11Py$LT$T$GT$9clone_ref17h8a09a226602dd8cfE', symObjAddr: 0xA874, symBinAddr: 0x2C164, symSize: 0xF8 }
  - { offset: 0xDA4F6, size: 0x8, addend: 0x0, symName: '__ZN4pyo38instance11Py$LT$T$GT$9clone_ref17hcd1ba0485bbbc234E', symObjAddr: 0xAB5C, symBinAddr: 0x2C25C, symSize: 0xF8 }
  - { offset: 0xDA55B, size: 0x8, addend: 0x0, symName: '__ZN4pyo38instance11Py$LT$T$GT$9clone_ref17hebd985cd5c2cee98E', symObjAddr: 0xAC54, symBinAddr: 0x2C354, symSize: 0xF8 }
  - { offset: 0xDA5C0, size: 0x8, addend: 0x0, symName: '__ZN4pyo38instance11Py$LT$T$GT$9clone_ref17hfaa6d9b036ee1eedE', symObjAddr: 0xAD4C, symBinAddr: 0x2C44C, symSize: 0xF8 }
  - { offset: 0xDA632, size: 0x8, addend: 0x0, symName: '__ZN4pyo38instance14Bound$LT$T$GT$11as_borrowed17h666bdee93a186295E', symObjAddr: 0xB174, symBinAddr: 0x2C82C, symSize: 0x48 }
  - { offset: 0xDA66B, size: 0x8, addend: 0x0, symName: '__ZN4pyo38instance14Bound$LT$T$GT$11as_borrowed17ha130710f17f08368E', symObjAddr: 0xB204, symBinAddr: 0x2C874, symSize: 0x48 }
  - { offset: 0xDA697, size: 0x8, addend: 0x0, symName: '__ZN4pyo38instance14Bound$LT$T$GT$11as_borrowed17ha792db1d948e0883E', symObjAddr: 0xB24C, symBinAddr: 0x2C8BC, symSize: 0x48 }
  - { offset: 0xDA6C3, size: 0x8, addend: 0x0, symName: '__ZN4pyo38instance14Bound$LT$T$GT$2py17h034259a8b3d5a958E', symObjAddr: 0xB324, symBinAddr: 0x2C904, symSize: 0x10 }
  - { offset: 0xDA6FC, size: 0x8, addend: 0x0, symName: '__ZN4pyo38instance14Bound$LT$T$GT$2py17h78ec13efa279a2a6E', symObjAddr: 0xB3A4, symBinAddr: 0x2C914, symSize: 0x10 }
  - { offset: 0xDA735, size: 0x8, addend: 0x0, symName: '__ZN4pyo38instance14Bound$LT$T$GT$2py17h801da986a657ef9cE', symObjAddr: 0xB3C4, symBinAddr: 0x2C924, symSize: 0x10 }
  - { offset: 0xDA761, size: 0x8, addend: 0x0, symName: '__ZN4pyo38instance14Bound$LT$T$GT$2py17h9c7a32dd82c092f9E', symObjAddr: 0xB3E4, symBinAddr: 0x2C934, symSize: 0x10 }
  - { offset: 0xDA78D, size: 0x8, addend: 0x0, symName: '__ZN4pyo38instance14Bound$LT$T$GT$2py17hca0e165a1d954794E', symObjAddr: 0xB424, symBinAddr: 0x2C944, symSize: 0x10 }
  - { offset: 0xDA7B9, size: 0x8, addend: 0x0, symName: '__ZN4pyo38instance14Bound$LT$T$GT$2py17hd3cdb873fa286377E', symObjAddr: 0xB444, symBinAddr: 0x2C954, symSize: 0x10 }
  - { offset: 0xDA7E5, size: 0x8, addend: 0x0, symName: '__ZN4pyo38instance14Bound$LT$T$GT$2py17hd81c726d41e44ca3E', symObjAddr: 0xB454, symBinAddr: 0x2C964, symSize: 0x10 }
  - { offset: 0xDA811, size: 0x8, addend: 0x0, symName: '__ZN4pyo38instance14Bound$LT$T$GT$2py17hda48e830db8318e0E', symObjAddr: 0xB474, symBinAddr: 0x2C974, symSize: 0x10 }
  - { offset: 0xDA84A, size: 0x8, addend: 0x0, symName: '__ZN4pyo38instance14Bound$LT$T$GT$2py17hf48c0805377e3f21E', symObjAddr: 0xB484, symBinAddr: 0x2C984, symSize: 0x10 }
  - { offset: 0xDA876, size: 0x8, addend: 0x0, symName: '__ZN4pyo38instance14Bound$LT$T$GT$2py17hfbee39fa069babc8E', symObjAddr: 0xB494, symBinAddr: 0x2C994, symSize: 0x10 }
  - { offset: 0xDA8A2, size: 0x8, addend: 0x0, symName: '__ZN4pyo38instance14Bound$LT$T$GT$6as_any17h01f8430d95b4f5b7E', symObjAddr: 0xB4B4, symBinAddr: 0x2C9A4, symSize: 0x74 }
  - { offset: 0xDA8DB, size: 0x8, addend: 0x0, symName: '__ZN4pyo38instance14Bound$LT$T$GT$6as_any17h22d0b6d406d81e17E', symObjAddr: 0xB528, symBinAddr: 0x2CA18, symSize: 0x74 }
  - { offset: 0xDA907, size: 0x8, addend: 0x0, symName: '__ZN4pyo38instance14Bound$LT$T$GT$6as_any17h4bd75f976275a231E', symObjAddr: 0xB610, symBinAddr: 0x2CA8C, symSize: 0x74 }
  - { offset: 0xDA933, size: 0x8, addend: 0x0, symName: '__ZN4pyo38instance14Bound$LT$T$GT$6as_any17h5bce316491a02797E', symObjAddr: 0xB6F8, symBinAddr: 0x2CB00, symSize: 0x74 }
  - { offset: 0xDA95F, size: 0x8, addend: 0x0, symName: '__ZN4pyo38instance14Bound$LT$T$GT$6as_any17h683651147dad9a5dE', symObjAddr: 0xB76C, symBinAddr: 0x2CB74, symSize: 0x74 }
  - { offset: 0xDA98B, size: 0x8, addend: 0x0, symName: '__ZN4pyo38instance14Bound$LT$T$GT$6as_any17hb9a7547d85d6bfc5E', symObjAddr: 0xB93C, symBinAddr: 0x2CBE8, symSize: 0x74 }
  - { offset: 0xDA9B7, size: 0x8, addend: 0x0, symName: '__ZN4pyo38instance14Bound$LT$T$GT$6as_any17hdffbbce9b5575c7bE', symObjAddr: 0xBA98, symBinAddr: 0x2CC5C, symSize: 0x74 }
  - { offset: 0xDA9E3, size: 0x8, addend: 0x0, symName: '__ZN4pyo38instance14Bound$LT$T$GT$6as_ptr17h17a72a49dfb07de9E', symObjAddr: 0xBB64, symBinAddr: 0x2CCD0, symSize: 0x2C }
  - { offset: 0xDAA0F, size: 0x8, addend: 0x0, symName: '__ZN4pyo38instance14Bound$LT$T$GT$6as_ptr17h3d4dc2f416d2427aE', symObjAddr: 0xBC14, symBinAddr: 0x2CCFC, symSize: 0x2C }
  - { offset: 0xDAA3B, size: 0x8, addend: 0x0, symName: '__ZN4pyo38instance14Bound$LT$T$GT$6as_ptr17h4671ac31d3b6a2b6E', symObjAddr: 0xBC6C, symBinAddr: 0x2CD28, symSize: 0x2C }
  - { offset: 0xDAA67, size: 0x8, addend: 0x0, symName: '__ZN4pyo38instance14Bound$LT$T$GT$6as_ptr17h48d366526bcc5c8cE', symObjAddr: 0xBC98, symBinAddr: 0x2CD54, symSize: 0x2C }
  - { offset: 0xDAA93, size: 0x8, addend: 0x0, symName: '__ZN4pyo38instance14Bound$LT$T$GT$6as_ptr17h5b7c17bd4878d9d2E', symObjAddr: 0xBD1C, symBinAddr: 0x2CD80, symSize: 0x2C }
  - { offset: 0xDAABF, size: 0x8, addend: 0x0, symName: '__ZN4pyo38instance14Bound$LT$T$GT$6as_ptr17h74ae91678be0111fE', symObjAddr: 0xBD74, symBinAddr: 0x2CDAC, symSize: 0x2C }
  - { offset: 0xDAAEB, size: 0x8, addend: 0x0, symName: '__ZN4pyo38instance14Bound$LT$T$GT$6as_ptr17h81db867eafdc42b5E', symObjAddr: 0xBDCC, symBinAddr: 0x2CDD8, symSize: 0x2C }
  - { offset: 0xDAB17, size: 0x8, addend: 0x0, symName: '__ZN4pyo38instance14Bound$LT$T$GT$6as_ptr17h834ee3d6b514ea96E', symObjAddr: 0xBDF8, symBinAddr: 0x2CE04, symSize: 0x2C }
  - { offset: 0xDAB50, size: 0x8, addend: 0x0, symName: '__ZN4pyo38instance14Bound$LT$T$GT$6as_ptr17h84e5e0af4844d714E', symObjAddr: 0xBE24, symBinAddr: 0x2CE30, symSize: 0x2C }
  - { offset: 0xDAB7C, size: 0x8, addend: 0x0, symName: '__ZN4pyo38instance14Bound$LT$T$GT$6as_ptr17h84f51031b9de23b0E', symObjAddr: 0xBE50, symBinAddr: 0x2CE5C, symSize: 0x2C }
  - { offset: 0xDABA8, size: 0x8, addend: 0x0, symName: '__ZN4pyo38instance14Bound$LT$T$GT$6as_ptr17ha071a86217ff5618E', symObjAddr: 0xBE7C, symBinAddr: 0x2CE88, symSize: 0x2C }
  - { offset: 0xDABD4, size: 0x8, addend: 0x0, symName: '__ZN4pyo38instance14Bound$LT$T$GT$6as_ptr17hcbb683f15183a60dE', symObjAddr: 0xBF00, symBinAddr: 0x2CEB4, symSize: 0x2C }
  - { offset: 0xDAC00, size: 0x8, addend: 0x0, symName: '__ZN4pyo38instance14Bound$LT$T$GT$6as_ptr17hd7f134b7b825980aE', symObjAddr: 0xBF58, symBinAddr: 0x2CEE0, symSize: 0x2C }
  - { offset: 0xDAC2C, size: 0x8, addend: 0x0, symName: '__ZN4pyo38instance14Bound$LT$T$GT$6unbind17h112f10b1096cf376E', symObjAddr: 0xC0A8, symBinAddr: 0x2CF0C, symSize: 0x48 }
  - { offset: 0xDAC76, size: 0x8, addend: 0x0, symName: '__ZN4pyo38instance14Bound$LT$T$GT$6unbind17h1b9a409d3478ce44E', symObjAddr: 0xC0F0, symBinAddr: 0x2CF54, symSize: 0x48 }
  - { offset: 0xDACC0, size: 0x8, addend: 0x0, symName: '__ZN4pyo38instance14Bound$LT$T$GT$6unbind17h1d2df79154e338d9E', symObjAddr: 0xC138, symBinAddr: 0x2CF9C, symSize: 0x48 }
  - { offset: 0xDAD0A, size: 0x8, addend: 0x0, symName: '__ZN4pyo38instance14Bound$LT$T$GT$6unbind17h58e2aae1d9f2abeaE', symObjAddr: 0xC2A0, symBinAddr: 0x2CFE4, symSize: 0x48 }
  - { offset: 0xDAD54, size: 0x8, addend: 0x0, symName: '__ZN4pyo38instance14Bound$LT$T$GT$6unbind17h69fbd4f41ca8746dE', symObjAddr: 0xC2E8, symBinAddr: 0x2D02C, symSize: 0x48 }
  - { offset: 0xDAD9E, size: 0x8, addend: 0x0, symName: '__ZN4pyo38instance14Bound$LT$T$GT$6unbind17h729a00353ee39637E', symObjAddr: 0xC330, symBinAddr: 0x2D074, symSize: 0x48 }
  - { offset: 0xDADE8, size: 0x8, addend: 0x0, symName: '__ZN4pyo38instance14Bound$LT$T$GT$6unbind17h97ca26735da9ed61E', symObjAddr: 0xC3C0, symBinAddr: 0x2D0BC, symSize: 0x48 }
  - { offset: 0xDAE32, size: 0x8, addend: 0x0, symName: '__ZN4pyo38instance14Bound$LT$T$GT$6unbind17hac8afa8646950e78E', symObjAddr: 0xC408, symBinAddr: 0x2D104, symSize: 0x48 }
  - { offset: 0xDAE7C, size: 0x8, addend: 0x0, symName: '__ZN4pyo38instance14Bound$LT$T$GT$6unbind17hcb76f54e6ed6e66eE', symObjAddr: 0xC498, symBinAddr: 0x2D14C, symSize: 0x48 }
  - { offset: 0xDAEC6, size: 0x8, addend: 0x0, symName: '__ZN4pyo38instance14Bound$LT$T$GT$6unbind17hffe4f6e78bf09960E', symObjAddr: 0xC528, symBinAddr: 0x2D194, symSize: 0x48 }
  - { offset: 0xDAF10, size: 0x8, addend: 0x0, symName: '__ZN4pyo38instance14Bound$LT$T$GT$8into_any17h15a94064685d227bE', symObjAddr: 0xC570, symBinAddr: 0x2D1DC, symSize: 0x30 }
  - { offset: 0xDAF3C, size: 0x8, addend: 0x0, symName: '__ZN4pyo38instance14Bound$LT$T$GT$8into_any17h2e961e484fd26fdcE', symObjAddr: 0xC5D0, symBinAddr: 0x2D20C, symSize: 0x30 }
  - { offset: 0xDAF68, size: 0x8, addend: 0x0, symName: '__ZN4pyo38instance14Bound$LT$T$GT$8into_any17h3b12bdc0a601019dE', symObjAddr: 0xC600, symBinAddr: 0x2D23C, symSize: 0x30 }
  - { offset: 0xDAF94, size: 0x8, addend: 0x0, symName: '__ZN4pyo38instance14Bound$LT$T$GT$8into_any17h609853a87e838a93E', symObjAddr: 0xC660, symBinAddr: 0x2D26C, symSize: 0x30 }
  - { offset: 0xDAFC0, size: 0x8, addend: 0x0, symName: '__ZN4pyo38instance14Bound$LT$T$GT$8into_any17h8b1440323a53e400E', symObjAddr: 0xC6C0, symBinAddr: 0x2D29C, symSize: 0x30 }
  - { offset: 0xDAFEC, size: 0x8, addend: 0x0, symName: '__ZN4pyo38instance14Bound$LT$T$GT$8into_any17h8b87ceaf01e8a41bE', symObjAddr: 0xC6F0, symBinAddr: 0x2D2CC, symSize: 0x30 }
  - { offset: 0xDB018, size: 0x8, addend: 0x0, symName: '__ZN4pyo38instance14Bound$LT$T$GT$8into_any17h92f1918d5eb0392eE', symObjAddr: 0xC720, symBinAddr: 0x2D2FC, symSize: 0x30 }
  - { offset: 0xDB044, size: 0x8, addend: 0x0, symName: '__ZN4pyo38instance14Bound$LT$T$GT$8into_any17hec208af6905e2f69E', symObjAddr: 0xC840, symBinAddr: 0x2D32C, symSize: 0x30 }
  - { offset: 0xDB070, size: 0x8, addend: 0x0, symName: '__ZN4pyo38instance14Bound$LT$T$GT$8into_any17hed22a51d22555dfaE', symObjAddr: 0xC870, symBinAddr: 0x2D35C, symSize: 0x30 }
  - { offset: 0xDB09C, size: 0x8, addend: 0x0, symName: '__ZN4pyo38instance17Borrowed$LT$T$GT$8to_owned17h2e375ce3ac0ea7b7E', symObjAddr: 0xC8E0, symBinAddr: 0x2D38C, symSize: 0x2C }
  - { offset: 0xDB0C8, size: 0x8, addend: 0x0, symName: '__ZN4pyo38instance17Borrowed$LT$T$GT$8to_owned17h67ebfc570fab6934E', symObjAddr: 0xC90C, symBinAddr: 0x2D3B8, symSize: 0x2C }
  - { offset: 0xDB0F4, size: 0x8, addend: 0x0, symName: '__ZN4pyo38instance17Borrowed$LT$T$GT$8to_owned17hee18164e2f275239E', symObjAddr: 0xC964, symBinAddr: 0x2D3E4, symSize: 0x2C }
  - { offset: 0xDB12D, size: 0x8, addend: 0x0, symName: '__ZN4pyo38instance36Bound$LT$pyo3..types..any..PyAny$GT$12ref_from_ptr17hfd0d271911b0e026E', symObjAddr: 0xC990, symBinAddr: 0x2D410, symSize: 0x74 }
  - { offset: 0xDB168, size: 0x8, addend: 0x0, symName: '__ZN4pyo38instance36Bound$LT$pyo3..types..any..PyAny$GT$14from_owned_ptr17h9aff3b888a3b7d4fE', symObjAddr: 0xCA04, symBinAddr: 0x2D484, symSize: 0x2C }
  - { offset: 0xDB1B0, size: 0x8, addend: 0x0, symName: '__ZN4pyo38instance36Bound$LT$pyo3..types..any..PyAny$GT$21from_owned_ptr_or_err17h1b6a0bb43086995bE', symObjAddr: 0xCAA4, symBinAddr: 0x2D4B0, symSize: 0x40 }
  - { offset: 0xDB1EB, size: 0x8, addend: 0x0, symName: '__ZN4pyo38instance36Bound$LT$pyo3..types..any..PyAny$GT$21from_owned_ptr_or_opt17h3be7ad8284418072E', symObjAddr: 0xCB0C, symBinAddr: 0x2D518, symSize: 0x2C }
  - { offset: 0xDB226, size: 0x8, addend: 0x0, symName: '__ZN4pyo38instance39Borrowed$LT$pyo3..types..any..PyAny$GT$18downcast_unchecked17h3c6c74ccd3c62ee7E', symObjAddr: 0xCC04, symBinAddr: 0x2D56C, symSize: 0x14 }
  - { offset: 0xDB252, size: 0x8, addend: 0x0, symName: '__ZN4pyo38instance39Borrowed$LT$pyo3..types..any..PyAny$GT$18downcast_unchecked17hb88e4638bb40d2c4E', symObjAddr: 0xCC2C, symBinAddr: 0x2D580, symSize: 0x14 }
  - { offset: 0xDB27E, size: 0x8, addend: 0x0, symName: '__ZN4pyo38instance39Borrowed$LT$pyo3..types..any..PyAny$GT$18downcast_unchecked17hbc202568d88cc35cE', symObjAddr: 0xCC40, symBinAddr: 0x2D594, symSize: 0x14 }
  - { offset: 0xDB2AA, size: 0x8, addend: 0x0, symName: '__ZN4pyo38instance39Borrowed$LT$pyo3..types..any..PyAny$GT$18from_ptr_unchecked17h57dda625212546f8E', symObjAddr: 0xCC68, symBinAddr: 0x2D5A8, symSize: 0x2C }
  - { offset: 0xDB2E8, size: 0x8, addend: 0x0, symName: '__ZN4pyo38instance39Borrowed$LT$pyo3..types..any..PyAny$GT$8downcast17h359331634967115cE', symObjAddr: 0xCC94, symBinAddr: 0x2D5D4, symSize: 0x88 }
  - { offset: 0xDB314, size: 0x8, addend: 0x0, symName: '__ZN4pyo38instance39Borrowed$LT$pyo3..types..any..PyAny$GT$8from_ptr17hb4ebec0dee00918eE', symObjAddr: 0xCE2C, symBinAddr: 0x2D65C, symSize: 0x34 }
  - { offset: 0xDB352, size: 0x8, addend: 0x0, symName: '__ZN4pyo38internal8get_slot78_$LT$impl$u20$pyo3..instance..Bound$LT$pyo3..types..typeobject..PyType$GT$$GT$8get_slot17h98bde618dc168327E', symObjAddr: 0xCE7C, symBinAddr: 0x2D6AC, symSize: 0x28 }
  - { offset: 0xDB38D, size: 0x8, addend: 0x0, symName: '__ZN4pyo38internal8get_slot78_$LT$impl$u20$pyo3..instance..Bound$LT$pyo3..types..typeobject..PyType$GT$$GT$8get_slot17haea3eaadd687c6e7E', symObjAddr: 0xCEA4, symBinAddr: 0x2D6D4, symSize: 0x28 }
  - { offset: 0xDB3C8, size: 0x8, addend: 0x0, symName: '__ZN4pyo38internal8get_slot81_$LT$impl$u20$pyo3..instance..Borrowed$LT$pyo3..types..typeobject..PyType$GT$$GT$8get_slot17hc13014a1c182ec8eE', symObjAddr: 0xCECC, symBinAddr: 0x2D6FC, symSize: 0x30 }
  - { offset: 0xDC72C, size: 0x8, addend: 0x0, symName: '__ZN153_$LT$core..result..Result$LT$T$C$F$GT$$u20$as$u20$core..ops..try_trait..FromResidual$LT$core..result..Result$LT$core..convert..Infallible$C$E$GT$$GT$$GT$13from_residual17h2f360f79dc5815f8E', symObjAddr: 0x990, symBinAddr: 0x2EE88, symSize: 0x48 }
  - { offset: 0xDC7B1, size: 0x8, addend: 0x0, symName: '__ZN153_$LT$core..result..Result$LT$T$C$F$GT$$u20$as$u20$core..ops..try_trait..FromResidual$LT$core..result..Result$LT$core..convert..Infallible$C$E$GT$$GT$$GT$13from_residual17h30886316097db230E', symObjAddr: 0x9D8, symBinAddr: 0x2EED0, symSize: 0x48 }
  - { offset: 0xDC836, size: 0x8, addend: 0x0, symName: '__ZN153_$LT$core..result..Result$LT$T$C$F$GT$$u20$as$u20$core..ops..try_trait..FromResidual$LT$core..result..Result$LT$core..convert..Infallible$C$E$GT$$GT$$GT$13from_residual17h329c6740467580e4E', symObjAddr: 0xA20, symBinAddr: 0x2EF18, symSize: 0x48 }
  - { offset: 0xDC8BB, size: 0x8, addend: 0x0, symName: '__ZN153_$LT$core..result..Result$LT$T$C$F$GT$$u20$as$u20$core..ops..try_trait..FromResidual$LT$core..result..Result$LT$core..convert..Infallible$C$E$GT$$GT$$GT$13from_residual17h376e7b8ef14ce3b3E', symObjAddr: 0xB00, symBinAddr: 0x2EF60, symSize: 0x48 }
  - { offset: 0xDC940, size: 0x8, addend: 0x0, symName: '__ZN153_$LT$core..result..Result$LT$T$C$F$GT$$u20$as$u20$core..ops..try_trait..FromResidual$LT$core..result..Result$LT$core..convert..Infallible$C$E$GT$$GT$$GT$13from_residual17h40d654d3b3405392E', symObjAddr: 0xBF0, symBinAddr: 0x2EFA8, symSize: 0x48 }
  - { offset: 0xDC9C5, size: 0x8, addend: 0x0, symName: '__ZN153_$LT$core..result..Result$LT$T$C$F$GT$$u20$as$u20$core..ops..try_trait..FromResidual$LT$core..result..Result$LT$core..convert..Infallible$C$E$GT$$GT$$GT$13from_residual17h478ab86bffb7b48fE', symObjAddr: 0xC90, symBinAddr: 0x2EFF0, symSize: 0x48 }
  - { offset: 0xDCA4A, size: 0x8, addend: 0x0, symName: '__ZN153_$LT$core..result..Result$LT$T$C$F$GT$$u20$as$u20$core..ops..try_trait..FromResidual$LT$core..result..Result$LT$core..convert..Infallible$C$E$GT$$GT$$GT$13from_residual17h4ebc5511d8a085efE', symObjAddr: 0xCD8, symBinAddr: 0x2F038, symSize: 0x48 }
  - { offset: 0xDCACF, size: 0x8, addend: 0x0, symName: '__ZN153_$LT$core..result..Result$LT$T$C$F$GT$$u20$as$u20$core..ops..try_trait..FromResidual$LT$core..result..Result$LT$core..convert..Infallible$C$E$GT$$GT$$GT$13from_residual17h4f962f09962d832aE', symObjAddr: 0xD68, symBinAddr: 0x2F080, symSize: 0x58 }
  - { offset: 0xDCB37, size: 0x8, addend: 0x0, symName: '__ZN153_$LT$core..result..Result$LT$T$C$F$GT$$u20$as$u20$core..ops..try_trait..FromResidual$LT$core..result..Result$LT$core..convert..Infallible$C$E$GT$$GT$$GT$13from_residual17h56d5cd602a52f6a1E', symObjAddr: 0xEE0, symBinAddr: 0x2F0D8, symSize: 0x48 }
  - { offset: 0xDCBBC, size: 0x8, addend: 0x0, symName: '__ZN153_$LT$core..result..Result$LT$T$C$F$GT$$u20$as$u20$core..ops..try_trait..FromResidual$LT$core..result..Result$LT$core..convert..Infallible$C$E$GT$$GT$$GT$13from_residual17h57d1531c60c060b9E', symObjAddr: 0xF28, symBinAddr: 0x2F120, symSize: 0x48 }
  - { offset: 0xDCC41, size: 0x8, addend: 0x0, symName: '__ZN153_$LT$core..result..Result$LT$T$C$F$GT$$u20$as$u20$core..ops..try_trait..FromResidual$LT$core..result..Result$LT$core..convert..Infallible$C$E$GT$$GT$$GT$13from_residual17h59c6fd429ffe90b6E', symObjAddr: 0xFB8, symBinAddr: 0x2F168, symSize: 0x48 }
  - { offset: 0xDCCC6, size: 0x8, addend: 0x0, symName: '__ZN153_$LT$core..result..Result$LT$T$C$F$GT$$u20$as$u20$core..ops..try_trait..FromResidual$LT$core..result..Result$LT$core..convert..Infallible$C$E$GT$$GT$$GT$13from_residual17h5a0a7bc99f23a2c3E', symObjAddr: 0x1000, symBinAddr: 0x2F1B0, symSize: 0x48 }
  - { offset: 0xDCD4B, size: 0x8, addend: 0x0, symName: '__ZN153_$LT$core..result..Result$LT$T$C$F$GT$$u20$as$u20$core..ops..try_trait..FromResidual$LT$core..result..Result$LT$core..convert..Infallible$C$E$GT$$GT$$GT$13from_residual17h635e40b18939c20fE', symObjAddr: 0x1188, symBinAddr: 0x2F1F8, symSize: 0x48 }
  - { offset: 0xDCDD0, size: 0x8, addend: 0x0, symName: '__ZN153_$LT$core..result..Result$LT$T$C$F$GT$$u20$as$u20$core..ops..try_trait..FromResidual$LT$core..result..Result$LT$core..convert..Infallible$C$E$GT$$GT$$GT$13from_residual17h6a485150006fef77E', symObjAddr: 0x1260, symBinAddr: 0x2F240, symSize: 0x58 }
  - { offset: 0xDCE38, size: 0x8, addend: 0x0, symName: '__ZN153_$LT$core..result..Result$LT$T$C$F$GT$$u20$as$u20$core..ops..try_trait..FromResidual$LT$core..result..Result$LT$core..convert..Infallible$C$E$GT$$GT$$GT$13from_residual17h7ae353c84945128eE', symObjAddr: 0x13A8, symBinAddr: 0x2F298, symSize: 0x48 }
  - { offset: 0xDCEBD, size: 0x8, addend: 0x0, symName: '__ZN153_$LT$core..result..Result$LT$T$C$F$GT$$u20$as$u20$core..ops..try_trait..FromResidual$LT$core..result..Result$LT$core..convert..Infallible$C$E$GT$$GT$$GT$13from_residual17h8180e53b21e04539E', symObjAddr: 0x1480, symBinAddr: 0x2F2E0, symSize: 0x58 }
  - { offset: 0xDCF25, size: 0x8, addend: 0x0, symName: '__ZN153_$LT$core..result..Result$LT$T$C$F$GT$$u20$as$u20$core..ops..try_trait..FromResidual$LT$core..result..Result$LT$core..convert..Infallible$C$E$GT$$GT$$GT$13from_residual17h96a27ae0e4a62365E', symObjAddr: 0x1660, symBinAddr: 0x2F338, symSize: 0x58 }
  - { offset: 0xDCF8D, size: 0x8, addend: 0x0, symName: '__ZN153_$LT$core..result..Result$LT$T$C$F$GT$$u20$as$u20$core..ops..try_trait..FromResidual$LT$core..result..Result$LT$core..convert..Infallible$C$E$GT$$GT$$GT$13from_residual17hbb0775c36e532f2cE', symObjAddr: 0x1878, symBinAddr: 0x2F390, symSize: 0x48 }
  - { offset: 0xDD012, size: 0x8, addend: 0x0, symName: '__ZN153_$LT$core..result..Result$LT$T$C$F$GT$$u20$as$u20$core..ops..try_trait..FromResidual$LT$core..result..Result$LT$core..convert..Infallible$C$E$GT$$GT$$GT$13from_residual17hc88d13beb5710297E', symObjAddr: 0x19EC, symBinAddr: 0x2F3D8, symSize: 0x48 }
  - { offset: 0xDD097, size: 0x8, addend: 0x0, symName: '__ZN153_$LT$core..result..Result$LT$T$C$F$GT$$u20$as$u20$core..ops..try_trait..FromResidual$LT$core..result..Result$LT$core..convert..Infallible$C$E$GT$$GT$$GT$13from_residual17hf73556bf0db02833E', symObjAddr: 0x1C98, symBinAddr: 0x2F420, symSize: 0x48 }
  - { offset: 0xDF5CA, size: 0x8, addend: 0x0, symName: '__ZN79_$LT$core..result..Result$LT$T$C$E$GT$$u20$as$u20$core..ops..try_trait..Try$GT$6branch17h043504b04b61df9cE', symObjAddr: 0x4F90, symBinAddr: 0x2FF74, symSize: 0x8C }
  - { offset: 0xDF648, size: 0x8, addend: 0x0, symName: '__ZN79_$LT$core..result..Result$LT$T$C$E$GT$$u20$as$u20$core..ops..try_trait..Try$GT$6branch17h0b134e483fb4f047E', symObjAddr: 0x509C, symBinAddr: 0x30000, symSize: 0x28 }
  - { offset: 0xDF6A6, size: 0x8, addend: 0x0, symName: '__ZN79_$LT$core..result..Result$LT$T$C$E$GT$$u20$as$u20$core..ops..try_trait..Try$GT$6branch17h2f48cbb4ff9d9618E', symObjAddr: 0x5354, symBinAddr: 0x30028, symSize: 0x80 }
  - { offset: 0xDF724, size: 0x8, addend: 0x0, symName: '__ZN79_$LT$core..result..Result$LT$T$C$E$GT$$u20$as$u20$core..ops..try_trait..Try$GT$6branch17h2ff3312893bb0018E', symObjAddr: 0x53D4, symBinAddr: 0x300A8, symSize: 0x88 }
  - { offset: 0xDF7A2, size: 0x8, addend: 0x0, symName: '__ZN79_$LT$core..result..Result$LT$T$C$E$GT$$u20$as$u20$core..ops..try_trait..Try$GT$6branch17h356d8a2f25bda87fE', symObjAddr: 0x5544, symBinAddr: 0x30130, symSize: 0x80 }
  - { offset: 0xDF820, size: 0x8, addend: 0x0, symName: '__ZN79_$LT$core..result..Result$LT$T$C$E$GT$$u20$as$u20$core..ops..try_trait..Try$GT$6branch17h413e952dbbdaf566E', symObjAddr: 0x574C, symBinAddr: 0x301B0, symSize: 0x80 }
  - { offset: 0xDF89E, size: 0x8, addend: 0x0, symName: '__ZN79_$LT$core..result..Result$LT$T$C$E$GT$$u20$as$u20$core..ops..try_trait..Try$GT$6branch17h46e320f1ad155b94E', symObjAddr: 0x57CC, symBinAddr: 0x30230, symSize: 0x8C }
  - { offset: 0xDF91C, size: 0x8, addend: 0x0, symName: '__ZN79_$LT$core..result..Result$LT$T$C$E$GT$$u20$as$u20$core..ops..try_trait..Try$GT$6branch17h48e04fc43a989388E', symObjAddr: 0x58EC, symBinAddr: 0x302BC, symSize: 0x80 }
  - { offset: 0xDF99A, size: 0x8, addend: 0x0, symName: '__ZN79_$LT$core..result..Result$LT$T$C$E$GT$$u20$as$u20$core..ops..try_trait..Try$GT$6branch17h7b2c26911ec34332E', symObjAddr: 0x5B94, symBinAddr: 0x3033C, symSize: 0x80 }
  - { offset: 0xDFA18, size: 0x8, addend: 0x0, symName: '__ZN79_$LT$core..result..Result$LT$T$C$E$GT$$u20$as$u20$core..ops..try_trait..Try$GT$6branch17h9159a17ea18841ccE', symObjAddr: 0x5DE8, symBinAddr: 0x303BC, symSize: 0x94 }
  - { offset: 0xDFA96, size: 0x8, addend: 0x0, symName: '__ZN79_$LT$core..result..Result$LT$T$C$E$GT$$u20$as$u20$core..ops..try_trait..Try$GT$6branch17h92608d314746b7b2E', symObjAddr: 0x5E7C, symBinAddr: 0x30450, symSize: 0x80 }
  - { offset: 0xDFB14, size: 0x8, addend: 0x0, symName: '__ZN79_$LT$core..result..Result$LT$T$C$E$GT$$u20$as$u20$core..ops..try_trait..Try$GT$6branch17h978427cb0dd61f92E', symObjAddr: 0x5EFC, symBinAddr: 0x304D0, symSize: 0x80 }
  - { offset: 0xDFB92, size: 0x8, addend: 0x0, symName: '__ZN79_$LT$core..result..Result$LT$T$C$E$GT$$u20$as$u20$core..ops..try_trait..Try$GT$6branch17h99f082d8910192daE', symObjAddr: 0x6004, symBinAddr: 0x30550, symSize: 0x80 }
  - { offset: 0xDFC10, size: 0x8, addend: 0x0, symName: '__ZN79_$LT$core..result..Result$LT$T$C$E$GT$$u20$as$u20$core..ops..try_trait..Try$GT$6branch17ha64a6b1e75435623E', symObjAddr: 0x6194, symBinAddr: 0x305D0, symSize: 0x88 }
  - { offset: 0xDFC8E, size: 0x8, addend: 0x0, symName: '__ZN79_$LT$core..result..Result$LT$T$C$E$GT$$u20$as$u20$core..ops..try_trait..Try$GT$6branch17hae664811a791bf3fE', symObjAddr: 0x621C, symBinAddr: 0x30658, symSize: 0x70 }
  - { offset: 0xDFD0C, size: 0x8, addend: 0x0, symName: '__ZN79_$LT$core..result..Result$LT$T$C$E$GT$$u20$as$u20$core..ops..try_trait..Try$GT$6branch17hc35f4fe453984a8eE', symObjAddr: 0x628C, symBinAddr: 0x306C8, symSize: 0x28 }
  - { offset: 0xDFD6A, size: 0x8, addend: 0x0, symName: '__ZN79_$LT$core..result..Result$LT$T$C$E$GT$$u20$as$u20$core..ops..try_trait..Try$GT$6branch17hdfd9cf36a3a55027E', symObjAddr: 0x658C, symBinAddr: 0x306F0, symSize: 0x94 }
  - { offset: 0xDFDE7, size: 0x8, addend: 0x0, symName: '__ZN79_$LT$core..result..Result$LT$T$C$E$GT$$u20$as$u20$core..ops..try_trait..Try$GT$6branch17he2f2c36840c6ebdfE', symObjAddr: 0x66A0, symBinAddr: 0x30784, symSize: 0x80 }
  - { offset: 0xDFE65, size: 0x8, addend: 0x0, symName: '__ZN79_$LT$core..result..Result$LT$T$C$E$GT$$u20$as$u20$core..ops..try_trait..Try$GT$6branch17hf24fdf360cc03962E', symObjAddr: 0x6828, symBinAddr: 0x30804, symSize: 0x14 }
  - { offset: 0xE2045, size: 0x8, addend: 0x0, symName: '__ZN152_$LT$core..result..Result$LT$pyo3..instance..Bound$LT$pyo3..types..any..PyAny$GT$$C$pyo3..err..PyErr$GT$$u20$as$u20$pyo3..py_result_ext..PyResultExt$GT$23downcast_into_unchecked17hcf0b3fa1d1e0fba0E', symObjAddr: 0x3C0, symBinAddr: 0x2EE08, symSize: 0x40 }
  - { offset: 0xE207B, size: 0x8, addend: 0x0, symName: '__ZN152_$LT$core..result..Result$LT$pyo3..instance..Bound$LT$pyo3..types..any..PyAny$GT$$C$pyo3..err..PyErr$GT$$u20$as$u20$pyo3..py_result_ext..PyResultExt$GT$23downcast_into_unchecked17hdae67cb5b6db4719E', symObjAddr: 0x440, symBinAddr: 0x2EE48, symSize: 0x40 }
  - { offset: 0xE304E, size: 0x8, addend: 0x0, symName: '__ZN4core6result19Result$LT$T$C$E$GT$11map_or_else17h72dab5e88508afd2E', symObjAddr: 0x1D28, symBinAddr: 0x2F468, symSize: 0xCC }
  - { offset: 0xE3165, size: 0x8, addend: 0x0, symName: '__ZN4core6result19Result$LT$T$C$E$GT$2ok17h0305380d963b8edfE', symObjAddr: 0x1E70, symBinAddr: 0x2F534, symSize: 0x64 }
  - { offset: 0xE31B9, size: 0x8, addend: 0x0, symName: '__ZN4core6result19Result$LT$T$C$E$GT$3map17h09b01b38226165f1E', symObjAddr: 0x1ED4, symBinAddr: 0x2F598, symSize: 0x80 }
  - { offset: 0xE329D, size: 0x8, addend: 0x0, symName: '__ZN4core6result19Result$LT$T$C$E$GT$3map17h9602bacd7f89532fE', symObjAddr: 0x297C, symBinAddr: 0x2F618, symSize: 0x8C }
  - { offset: 0xE3348, size: 0x8, addend: 0x0, symName: '__ZN4core6result19Result$LT$T$C$E$GT$3map17h9f9c4848356507bfE', symObjAddr: 0x2A08, symBinAddr: 0x2F6A4, symSize: 0x98 }
  - { offset: 0xE33E8, size: 0x8, addend: 0x0, symName: '__ZN4core6result19Result$LT$T$C$E$GT$3map17hac44aff691774942E', symObjAddr: 0x2AA0, symBinAddr: 0x2F73C, symSize: 0x8C }
  - { offset: 0xE347B, size: 0x8, addend: 0x0, symName: '__ZN4core6result19Result$LT$T$C$E$GT$3map17he941e523fd294ee8E', symObjAddr: 0x2C2C, symBinAddr: 0x2F7C8, symSize: 0x80 }
  - { offset: 0xE352C, size: 0x8, addend: 0x0, symName: '__ZN4core6result19Result$LT$T$C$E$GT$6expect17h021338fcd229a50eE', symObjAddr: 0x2D38, symBinAddr: 0x2F848, symSize: 0xBC }
  - { offset: 0xE358F, size: 0x8, addend: 0x0, symName: '__ZN4core6result19Result$LT$T$C$E$GT$6expect17h2f5e2f8c88a126e0E', symObjAddr: 0x2F44, symBinAddr: 0x2F904, symSize: 0x78 }
  - { offset: 0xE35F1, size: 0x8, addend: 0x0, symName: '__ZN4core6result19Result$LT$T$C$E$GT$6expect17h68673dab405b4f85E', symObjAddr: 0x321C, symBinAddr: 0x2F97C, symSize: 0x9C }
  - { offset: 0xE365B, size: 0x8, addend: 0x0, symName: '__ZN4core6result19Result$LT$T$C$E$GT$6expect17ha6b45ec031946494E', symObjAddr: 0x3408, symBinAddr: 0x2FA18, symSize: 0xA8 }
  - { offset: 0xE36BE, size: 0x8, addend: 0x0, symName: '__ZN4core6result19Result$LT$T$C$E$GT$6expect17hb7296ac0fdf74596E', symObjAddr: 0x34B0, symBinAddr: 0x2FAC0, symSize: 0x84 }
  - { offset: 0xE3745, size: 0x8, addend: 0x0, symName: '__ZN4core6result19Result$LT$T$C$E$GT$7map_err17h060ebbbefb1b3bfcE', symObjAddr: 0x3924, symBinAddr: 0x2FB44, symSize: 0xA4 }
  - { offset: 0xE37E6, size: 0x8, addend: 0x0, symName: '__ZN4core6result19Result$LT$T$C$E$GT$7map_err17h250d75dfed707bc7E', symObjAddr: 0x3DE8, symBinAddr: 0x2FBE8, symSize: 0x70 }
  - { offset: 0xE3878, size: 0x8, addend: 0x0, symName: '__ZN4core6result19Result$LT$T$C$E$GT$7map_err17h2db396336d62f8f5E', symObjAddr: 0x3E58, symBinAddr: 0x2FC58, symSize: 0xB0 }
  - { offset: 0xE3920, size: 0x8, addend: 0x0, symName: '__ZN4core6result19Result$LT$T$C$E$GT$7map_err17hfa4f25c284af6984E', symObjAddr: 0x4944, symBinAddr: 0x2FD08, symSize: 0xB0 }
  - { offset: 0xE39CB, size: 0x8, addend: 0x0, symName: '__ZN4core6result19Result$LT$T$C$E$GT$7map_err17hfd7c436105d0862bE', symObjAddr: 0x49F4, symBinAddr: 0x2FDB8, symSize: 0x88 }
  - { offset: 0xE3A78, size: 0x8, addend: 0x0, symName: '__ZN4core6result19Result$LT$T$C$E$GT$9unwrap_or17h5ddf7994b6e93687E', symObjAddr: 0x4E3C, symBinAddr: 0x2FE40, symSize: 0x70 }
  - { offset: 0xE3ABC, size: 0x8, addend: 0x0, symName: '__ZN4core6result19Result$LT$T$C$E$GT$9unwrap_or17ha9714381bcde144fE', symObjAddr: 0x4EAC, symBinAddr: 0x2FEB0, symSize: 0xC4 }
  - { offset: 0xE3BC8, size: 0x8, addend: 0x0, symName: '__ZN79_$LT$hashbrown..raw..RawTable$LT$T$C$A$GT$$u20$as$u20$core..ops..drop..Drop$GT$4drop17h56c808cc5d9f8249E', symObjAddr: 0x0, symBinAddr: 0x30818, symSize: 0x3C }
  - { offset: 0xE3BF7, size: 0x8, addend: 0x0, symName: '__ZN9hashbrown3raw21RawTable$LT$T$C$A$GT$14reserve_rehash28_$u7b$$u7b$closure$u7d$$u7d$17heef8c7a078bb989cE', symObjAddr: 0x2220, symBinAddr: 0x3229C, symSize: 0xC0 }
  - { offset: 0xE3DDB, size: 0x8, addend: 0x0, symName: '__ZN9hashbrown3raw21RawTable$LT$T$C$A$GT$4find28_$u7b$$u7b$closure$u7d$$u7d$17hc22d397861fbccfaE', symObjAddr: 0x25F4, symBinAddr: 0x32670, symSize: 0xC4 }
  - { offset: 0xE45BD, size: 0x8, addend: 0x0, symName: '__ZN79_$LT$hashbrown..raw..RawTable$LT$T$C$A$GT$$u20$as$u20$core..ops..drop..Drop$GT$4drop17h56c808cc5d9f8249E', symObjAddr: 0x0, symBinAddr: 0x30818, symSize: 0x3C }
  - { offset: 0xE47D2, size: 0x8, addend: 0x0, symName: '__ZN9hashbrown3raw13RawTableInner14prepare_resize28_$u7b$$u7b$closure$u7d$$u7d$17h0bb36c62e72b167fE', symObjAddr: 0x28C, symBinAddr: 0x30AA4, symSize: 0xB0 }
  - { offset: 0xE49A4, size: 0x8, addend: 0x0, symName: '__ZN9hashbrown3raw13RawTableInner15rehash_in_place28_$u7b$$u7b$closure$u7d$$u7d$17h0600a1cfa5adf14fE', symObjAddr: 0x758, symBinAddr: 0x30F70, symSize: 0x1F8 }
  - { offset: 0xE4E45, size: 0x8, addend: 0x0, symName: __ZN9hashbrown3raw19capacity_to_buckets17h63864c8690ca4e0cE, symObjAddr: 0x13EC, symBinAddr: 0x31C04, symSize: 0x2C8 }
  - { offset: 0xE982E, size: 0x8, addend: 0x0, symName: __ZN9hashbrown3raw11TableLayout20calculate_layout_for17hb1459f1ab4550258E, symObjAddr: 0x3C, symBinAddr: 0x30854, symSize: 0x220 }
  - { offset: 0xE9BD3, size: 0x8, addend: 0x0, symName: __ZN9hashbrown3raw13RawTableInner13drop_elements17h0681397a11fa4ba8E, symObjAddr: 0x25C, symBinAddr: 0x30A74, symSize: 0x30 }
  - { offset: 0xEA0C9, size: 0x8, addend: 0x0, symName: __ZN9hashbrown3raw13RawTableInner15rehash_in_place17h1d7da85fd127d8f5E, symObjAddr: 0x33C, symBinAddr: 0x30B54, symSize: 0x41C }
  - { offset: 0xEAA43, size: 0x8, addend: 0x0, symName: __ZN9hashbrown3raw13RawTableInner16drop_inner_table17h8e61e6ce9cf03987E, symObjAddr: 0x950, symBinAddr: 0x31168, symSize: 0xB0 }
  - { offset: 0xEAD04, size: 0x8, addend: 0x0, symName: __ZN9hashbrown3raw13RawTableInner16fix_insert_index17h5a5e611435744d9eE, symObjAddr: 0xA00, symBinAddr: 0x31218, symSize: 0x100 }
  - { offset: 0xEAF76, size: 0x8, addend: 0x0, symName: __ZN9hashbrown3raw13RawTableInner17find_insert_index17h4755ac462cb715b9E, symObjAddr: 0xB00, symBinAddr: 0x31318, symSize: 0xFC }
  - { offset: 0xEB153, size: 0x8, addend: 0x0, symName: __ZN9hashbrown3raw13RawTableInner17new_uninitialized17he3c9ff3df1860c7aE, symObjAddr: 0xBFC, symBinAddr: 0x31414, symSize: 0x2AC }
  - { offset: 0xEB480, size: 0x8, addend: 0x0, symName: __ZN9hashbrown3raw13RawTableInner22fallible_with_capacity17h7f0bc97bc86b10caE, symObjAddr: 0xEA8, symBinAddr: 0x316C0, symSize: 0x220 }
  - { offset: 0xEB919, size: 0x8, addend: 0x0, symName: __ZN9hashbrown3raw13RawTableInner23prepare_rehash_in_place17h8028311e3c6fe71dE, symObjAddr: 0x10C8, symBinAddr: 0x318E0, symSize: 0x204 }
  - { offset: 0xEBF0F, size: 0x8, addend: 0x0, symName: __ZN9hashbrown3raw13RawTableInner26find_insert_index_in_group17h262c1b8a5cb074e9E, symObjAddr: 0x12CC, symBinAddr: 0x31AE4, symSize: 0x120 }
  - { offset: 0xEC053, size: 0x8, addend: 0x0, symName: '__ZN9hashbrown3raw21RawIterRange$LT$T$GT$3new17h51829f5473edbd0bE', symObjAddr: 0x16B4, symBinAddr: 0x31ECC, symSize: 0x98 }
  - { offset: 0xEC2E7, size: 0x8, addend: 0x0, symName: '__ZN9hashbrown3raw21RawIterRange$LT$T$GT$9next_impl17hf08521e16cbc98dcE', symObjAddr: 0x174C, symBinAddr: 0x31F64, symSize: 0x1B4 }
  - { offset: 0xEC804, size: 0x8, addend: 0x0, symName: '__ZN9hashbrown3raw21RawTable$LT$T$C$A$GT$14insert_no_grow17hc629f5c40ea08e71E', symObjAddr: 0x1900, symBinAddr: 0x32118, symSize: 0x184 }
  - { offset: 0xED013, size: 0x8, addend: 0x0, symName: '__ZN9hashbrown3raw21RawTable$LT$T$C$A$GT$14reserve_rehash17h54133f256e5fecfaE', symObjAddr: 0x1A84, symBinAddr: 0x89228, symSize: 0x79C }
  - { offset: 0xEDD10, size: 0x8, addend: 0x0, symName: '__ZN9hashbrown3raw21RawTable$LT$T$C$A$GT$4find17h325d8db8edc9b1b8E', symObjAddr: 0x22E0, symBinAddr: 0x3235C, symSize: 0x314 }
  - { offset: 0xEE333, size: 0x8, addend: 0x0, symName: '__ZN9hashbrown3raw21RawTable$LT$T$C$A$GT$7reserve17hddaf8b46b6547f46E', symObjAddr: 0x26B8, symBinAddr: 0x32734, symSize: 0xB0 }
  - { offset: 0xEE418, size: 0x8, addend: 0x0, symName: '__ZN103_$LT$alloc..vec..into_iter..IntoIter$LT$T$C$A$GT$$u20$as$u20$core..iter..traits..iterator..Iterator$GT$4next17hade2c107ea457a35E', symObjAddr: 0x0, symBinAddr: 0x327E4, symSize: 0xA8 }
  - { offset: 0xEE47D, size: 0x8, addend: 0x0, symName: '__ZN5alloc6string94_$LT$impl$u20$core..convert..From$LT$$RF$str$GT$$u20$for$u20$alloc..borrow..Cow$LT$str$GT$$GT$4from17h0e964461aafa8b9dE', symObjAddr: 0x3914, symBinAddr: 0x33868, symSize: 0x2C }
  - { offset: 0xEE5FF, size: 0x8, addend: 0x0, symName: '__ZN103_$LT$alloc..vec..into_iter..IntoIter$LT$T$C$A$GT$$u20$as$u20$core..iter..traits..iterator..Iterator$GT$4next17hade2c107ea457a35E', symObjAddr: 0x0, symBinAddr: 0x327E4, symSize: 0xA8 }
  - { offset: 0xEE75D, size: 0x8, addend: 0x0, symName: '__ZN103_$LT$alloc..vec..into_iter..IntoIter$LT$T$C$A$GT$$u20$as$u20$core..iter..traits..iterator..Iterator$GT$4next17hdde3ed193ce984c6E', symObjAddr: 0xA8, symBinAddr: 0x3288C, symSize: 0x94 }
  - { offset: 0xEE8B7, size: 0x8, addend: 0x0, symName: '__ZN103_$LT$alloc..vec..into_iter..IntoIter$LT$T$C$A$GT$$u20$as$u20$core..iter..traits..iterator..Iterator$GT$4next17he31d2a865829beadE', symObjAddr: 0x13C, symBinAddr: 0x32920, symSize: 0x88 }
  - { offset: 0xEEA11, size: 0x8, addend: 0x0, symName: '__ZN103_$LT$alloc..vec..into_iter..IntoIter$LT$T$C$A$GT$$u20$as$u20$core..iter..traits..iterator..Iterator$GT$9size_hint17h31d4e0ae47d379a5E', symObjAddr: 0x1C4, symBinAddr: 0x329A8, symSize: 0xB4 }
  - { offset: 0xEEB2A, size: 0x8, addend: 0x0, symName: '__ZN103_$LT$alloc..vec..into_iter..IntoIter$LT$T$C$A$GT$$u20$as$u20$core..iter..traits..iterator..Iterator$GT$9size_hint17hcb9661b2a9ca2992E', symObjAddr: 0x278, symBinAddr: 0x32A5C, symSize: 0xB4 }
  - { offset: 0xEEC43, size: 0x8, addend: 0x0, symName: '__ZN103_$LT$alloc..vec..into_iter..IntoIter$LT$T$C$A$GT$$u20$as$u20$core..iter..traits..iterator..Iterator$GT$9size_hint17hd91b40cfecdcbfbaE', symObjAddr: 0x32C, symBinAddr: 0x32B10, symSize: 0xB4 }
  - { offset: 0xEED6C, size: 0x8, addend: 0x0, symName: '__ZN157_$LT$$LT$alloc..vec..into_iter..IntoIter$LT$T$C$A$GT$$u20$as$u20$core..ops..drop..Drop$GT$..drop..DropGuard$LT$T$C$A$GT$$u20$as$u20$core..ops..drop..Drop$GT$4drop17h5244d966741d8a8dE', symObjAddr: 0x1DAC, symBinAddr: 0x32FAC, symSize: 0x6C }
  - { offset: 0xEEEAF, size: 0x8, addend: 0x0, symName: '__ZN157_$LT$$LT$alloc..vec..into_iter..IntoIter$LT$T$C$A$GT$$u20$as$u20$core..ops..drop..Drop$GT$..drop..DropGuard$LT$T$C$A$GT$$u20$as$u20$core..ops..drop..Drop$GT$4drop17haec31aa5a123ecdeE', symObjAddr: 0x1E18, symBinAddr: 0x33018, symSize: 0x6C }
  - { offset: 0xEEFF2, size: 0x8, addend: 0x0, symName: '__ZN157_$LT$$LT$alloc..vec..into_iter..IntoIter$LT$T$C$A$GT$$u20$as$u20$core..ops..drop..Drop$GT$..drop..DropGuard$LT$T$C$A$GT$$u20$as$u20$core..ops..drop..Drop$GT$4drop17hd689d964f5c6c5daE', symObjAddr: 0x1E84, symBinAddr: 0x33084, symSize: 0x6C }
  - { offset: 0xEF1AC, size: 0x8, addend: 0x0, symName: '__ZN86_$LT$alloc..vec..into_iter..IntoIter$LT$T$C$A$GT$$u20$as$u20$core..ops..drop..Drop$GT$4drop17h58751c2d0f4717abE', symObjAddr: 0x48EC, symBinAddr: 0x34518, symSize: 0x64 }
  - { offset: 0xEF1FE, size: 0x8, addend: 0x0, symName: '__ZN86_$LT$alloc..vec..into_iter..IntoIter$LT$T$C$A$GT$$u20$as$u20$core..ops..drop..Drop$GT$4drop17h7a5beea8208d8909E', symObjAddr: 0x4950, symBinAddr: 0x3457C, symSize: 0x78 }
  - { offset: 0xEF250, size: 0x8, addend: 0x0, symName: '__ZN86_$LT$alloc..vec..into_iter..IntoIter$LT$T$C$A$GT$$u20$as$u20$core..ops..drop..Drop$GT$4drop17h8f0a23007a7598ccE', symObjAddr: 0x49C8, symBinAddr: 0x345F4, symSize: 0x78 }
  - { offset: 0xEFB28, size: 0x8, addend: 0x0, symName: '__ZN77_$LT$alloc..raw_vec..RawVec$LT$T$C$A$GT$$u20$as$u20$core..ops..drop..Drop$GT$4drop17h0500d01831582c41E', symObjAddr: 0x468C, symBinAddr: 0x34318, symSize: 0x34 }
  - { offset: 0xEFB64, size: 0x8, addend: 0x0, symName: '__ZN77_$LT$alloc..raw_vec..RawVec$LT$T$C$A$GT$$u20$as$u20$core..ops..drop..Drop$GT$4drop17h2d370624c2f83afaE', symObjAddr: 0x46C0, symBinAddr: 0x3434C, symSize: 0x34 }
  - { offset: 0xEFBA0, size: 0x8, addend: 0x0, symName: '__ZN77_$LT$alloc..raw_vec..RawVec$LT$T$C$A$GT$$u20$as$u20$core..ops..drop..Drop$GT$4drop17h2ff1973e50b8411cE', symObjAddr: 0x46F4, symBinAddr: 0x34380, symSize: 0x30 }
  - { offset: 0xEFBDC, size: 0x8, addend: 0x0, symName: '__ZN77_$LT$alloc..raw_vec..RawVec$LT$T$C$A$GT$$u20$as$u20$core..ops..drop..Drop$GT$4drop17h6652c507e6c7b9e1E', symObjAddr: 0x4724, symBinAddr: 0x343B0, symSize: 0x34 }
  - { offset: 0xEFC18, size: 0x8, addend: 0x0, symName: '__ZN77_$LT$alloc..raw_vec..RawVec$LT$T$C$A$GT$$u20$as$u20$core..ops..drop..Drop$GT$4drop17h70be8fcaa77b6d7bE', symObjAddr: 0x4758, symBinAddr: 0x343E4, symSize: 0x34 }
  - { offset: 0xEFC54, size: 0x8, addend: 0x0, symName: '__ZN77_$LT$alloc..raw_vec..RawVec$LT$T$C$A$GT$$u20$as$u20$core..ops..drop..Drop$GT$4drop17h7358776c1cb24bc7E', symObjAddr: 0x478C, symBinAddr: 0x34418, symSize: 0x34 }
  - { offset: 0xEFC90, size: 0x8, addend: 0x0, symName: '__ZN77_$LT$alloc..raw_vec..RawVec$LT$T$C$A$GT$$u20$as$u20$core..ops..drop..Drop$GT$4drop17h7c45530550e24cb5E', symObjAddr: 0x47C0, symBinAddr: 0x3444C, symSize: 0x30 }
  - { offset: 0xEFCCC, size: 0x8, addend: 0x0, symName: '__ZN77_$LT$alloc..raw_vec..RawVec$LT$T$C$A$GT$$u20$as$u20$core..ops..drop..Drop$GT$4drop17hdb655d6dea8f9209E', symObjAddr: 0x4820, symBinAddr: 0x3447C, symSize: 0x34 }
  - { offset: 0xEFD08, size: 0x8, addend: 0x0, symName: '__ZN77_$LT$alloc..raw_vec..RawVec$LT$T$C$A$GT$$u20$as$u20$core..ops..drop..Drop$GT$4drop17he14a54fb5fa7f8b4E', symObjAddr: 0x4854, symBinAddr: 0x344B0, symSize: 0x34 }
  - { offset: 0xEFD44, size: 0x8, addend: 0x0, symName: '__ZN77_$LT$alloc..raw_vec..RawVec$LT$T$C$A$GT$$u20$as$u20$core..ops..drop..Drop$GT$4drop17he741ff35109cc4a0E', symObjAddr: 0x4888, symBinAddr: 0x344E4, symSize: 0x34 }
  - { offset: 0xEFDC9, size: 0x8, addend: 0x0, symName: '__ZN87_$LT$T$u20$as$u20$alloc..slice..$LT$impl$u20$$u5b$T$u5d$$GT$..to_vec_in..ConvertVec$GT$6to_vec17h1721159efe74042bE', symObjAddr: 0x4A40, symBinAddr: 0x3466C, symSize: 0xF4 }
  - { offset: 0xF0088, size: 0x8, addend: 0x0, symName: __ZN5alloc6borrow3Cow8Borrowed17h9f3bed01d2aa2e6bE, symObjAddr: 0x38E8, symBinAddr: 0x3383C, symSize: 0x2C }
  - { offset: 0xF00C0, size: 0x8, addend: 0x0, symName: '__ZN71_$LT$alloc..borrow..Cow$LT$B$GT$$u20$as$u20$core..ops..deref..Deref$GT$5deref17hc794d5ab61b583ceE', symObjAddr: 0x451C, symBinAddr: 0x34250, symSize: 0x78 }
  - { offset: 0xF011B, size: 0x8, addend: 0x0, symName: '__ZN66_$LT$alloc..borrow..Cow$LT$B$GT$$u20$as$u20$core..fmt..Display$GT$3fmt17hce722837f854bb2dE', symObjAddr: 0x4470, symBinAddr: 0x341A4, symSize: 0x84 }
  - { offset: 0xF0694, size: 0x8, addend: 0x0, symName: '__ZN4core3ptr8non_null16NonNull$LT$T$GT$13new_unchecked18precondition_check17h2475bc1e8f9a22d2E', symObjAddr: 0x2198, symBinAddr: 0x33138, symSize: 0x58 }
  - { offset: 0xF1544, size: 0x8, addend: 0x0, symName: '__ZN74_$LT$core..cell..RefMut$LT$T$GT$$u20$as$u20$core..ops..deref..DerefMut$GT$9deref_mut17hc15204d61b684211E', symObjAddr: 0x45FC, symBinAddr: 0x34300, symSize: 0x18 }
  - { offset: 0xF15B4, size: 0x8, addend: 0x0, symName: '__ZN66_$LT$core..cell..BorrowRefMut$u20$as$u20$core..ops..drop..Drop$GT$4drop17h32017a4a8c6f39e6E', symObjAddr: 0x44F4, symBinAddr: 0x34228, symSize: 0x28 }
  - { offset: 0xF1624, size: 0x8, addend: 0x0, symName: '__ZN71_$LT$core..cell..RefMut$LT$T$GT$$u20$as$u20$core..ops..deref..Deref$GT$5deref17h0cc0357d7877b3d8E', symObjAddr: 0x4594, symBinAddr: 0x342C8, symSize: 0x18 }
  - { offset: 0xF2865, size: 0x8, addend: 0x0, symName: '__ZN47_$LT$$LP$$RP$$u20$as$u20$core..unit..IsUnit$GT$7is_unit17h25547294f40a8611E', symObjAddr: 0x1F68, symBinAddr: 0x330F0, symSize: 0xC }
  - { offset: 0xF28D8, size: 0x8, addend: 0x0, symName: '__ZN4core3str6traits54_$LT$impl$u20$core..cmp..PartialEq$u20$for$u20$str$GT$2eq17hf1255f73faf1387eE', symObjAddr: 0x23B0, symBinAddr: 0x331E8, symSize: 0x4C }
  - { offset: 0xF3402, size: 0x8, addend: 0x0, symName: '__ZN50_$LT$T$u20$as$u20$core..convert..Into$LT$U$GT$$GT$4into17h0c22cd2cd5a31a5cE', symObjAddr: 0x324C, symBinAddr: 0x334E8, symSize: 0x14 }
  - { offset: 0xF35B4, size: 0x8, addend: 0x0, symName: __ZN4pyo35types6module7__all__8INTERNED17h853c57031c5c8840E, symObjAddr: 0x60C0, symBinAddr: 0xE4488, symSize: 0x0 }
  - { offset: 0xF35D5, size: 0x8, addend: 0x0, symName: __ZN4pyo35types6module8__name__8INTERNED17h4cc387cd9c7ab20bE, symObjAddr: 0x60D8, symBinAddr: 0xE44A0, symSize: 0x0 }
  - { offset: 0xF35ED, size: 0x8, addend: 0x0, symName: '__ZN115_$LT$pyo3..instance..Bound$LT$pyo3..types..module..PyModule$GT$$u20$as$u20$pyo3..types..module..PyModuleMethods$GT$3add5inner17hd11b91284e72c8faE', symObjAddr: 0x1B48, symBinAddr: 0x32D48, symSize: 0x264 }
  - { offset: 0xF3679, size: 0x8, addend: 0x0, symName: __ZN4pyo35types6module7__all__17h7f2c9fdf3c3546c1E, symObjAddr: 0x2AC4, symBinAddr: 0x334A0, symSize: 0x24 }
  - { offset: 0xF374C, size: 0x8, addend: 0x0, symName: __ZN4pyo35types6module8__name__17h3ebcfd5151d79b97E, symObjAddr: 0x316C, symBinAddr: 0x334C4, symSize: 0x24 }
  - { offset: 0xF37C6, size: 0x8, addend: 0x0, symName: '__ZN103_$LT$pyo3..instance..Bound$LT$pyo3..types..any..PyAny$GT$$u20$as$u20$pyo3..types..any..PyAnyMethods$GT$7getattr5inner17h28ececa17cfaabbeE', symObjAddr: 0x1284, symBinAddr: 0x32BC4, symSize: 0xA8 }
  - { offset: 0xF3809, size: 0x8, addend: 0x0, symName: '__ZN103_$LT$pyo3..instance..Bound$LT$pyo3..types..any..PyAny$GT$$u20$as$u20$pyo3..types..any..PyAnyMethods$GT$7setattr5inner17hedb2cdb10153b5c8E', symObjAddr: 0x147C, symBinAddr: 0x32C6C, symSize: 0xDC }
  - { offset: 0xF3BC4, size: 0x8, addend: 0x0, symName: '__ZN57_$LT$T$u20$as$u20$pyo3..conversion..FromPyObjectBound$GT$20from_py_object_bound17h02b9118ff636d493E', symObjAddr: 0x32A8, symBinAddr: 0x334FC, symSize: 0x34 }
  - { offset: 0xF3BFB, size: 0x8, addend: 0x0, symName: '__ZN57_$LT$T$u20$as$u20$pyo3..conversion..FromPyObjectBound$GT$20from_py_object_bound17h84787d6e2f61937aE', symObjAddr: 0x3414, symBinAddr: 0x33530, symSize: 0x34 }
  - { offset: 0xF3DED, size: 0x8, addend: 0x0, symName: '__ZN71_$LT$pyo3..impl_..panic..PanicTrap$u20$as$u20$core..ops..drop..Drop$GT$4drop17h08bc720b3d2e6fadE', symObjAddr: 0x45AC, symBinAddr: 0x342E0, symSize: 0x20 }
  - { offset: 0xF45FD, size: 0x8, addend: 0x0, symName: __ZN8pyo3_ffi7objimpl12PyType_IS_GC17h36e4d5f7bc6b7defE, symObjAddr: 0x4B34, symBinAddr: 0x34760, symSize: 0x2C }
  - { offset: 0xF4FB7, size: 0x8, addend: 0x0, symName: '__ZN4core3ptr8non_null16NonNull$LT$T$GT$13new_unchecked17h28842bfb5967619aE', symObjAddr: 0x215C, symBinAddr: 0x330FC, symSize: 0x3C }
  - { offset: 0xF4FFD, size: 0x8, addend: 0x0, symName: '__ZN4core3ptr8non_null16NonNull$LT$T$GT$3new17hb017ba3b28562c94E', symObjAddr: 0x21F0, symBinAddr: 0x33190, symSize: 0x58 }
  - { offset: 0xF5077, size: 0x8, addend: 0x0, symName: '__ZN4core4cell13Cell$LT$T$GT$3get17h6b2b90bb17ff16b8E', symObjAddr: 0x2430, symBinAddr: 0x33234, symSize: 0x18 }
  - { offset: 0xF50B0, size: 0x8, addend: 0x0, symName: '__ZN4core4cell13Cell$LT$T$GT$3get17h7d21f2d3aec46a09E', symObjAddr: 0x2448, symBinAddr: 0x3324C, symSize: 0x18 }
  - { offset: 0xF5104, size: 0x8, addend: 0x0, symName: '__ZN4core4cell13Cell$LT$T$GT$3set17h4c456c6abc66abd4E', symObjAddr: 0x2460, symBinAddr: 0x33264, symSize: 0x1C }
  - { offset: 0xF51A2, size: 0x8, addend: 0x0, symName: '__ZN4core4cell13Cell$LT$T$GT$3set17h8f0b4ffd4db560e8E', symObjAddr: 0x247C, symBinAddr: 0x33280, symSize: 0x1C }
  - { offset: 0xF53CD, size: 0x8, addend: 0x0, symName: '__ZN4core4cell13Cell$LT$T$GT$4take17h8c50e63d815570fdE', symObjAddr: 0x2498, symBinAddr: 0x3329C, symSize: 0x3C }
  - { offset: 0xF553E, size: 0x8, addend: 0x0, symName: '__ZN4core4cell16RefCell$LT$T$GT$10borrow_mut17haa2290b174536bdfE', symObjAddr: 0x24F8, symBinAddr: 0x332D8, symSize: 0xAC }
  - { offset: 0xF56A4, size: 0x8, addend: 0x0, symName: '__ZN4core4cell16RefCell$LT$T$GT$7replace17h31422385fb115353E', symObjAddr: 0x25A4, symBinAddr: 0x33384, symSize: 0xDC }
  - { offset: 0xF574E, size: 0x8, addend: 0x0, symName: __ZN4pyo35impl_5panic9PanicTrap3new17h8c0cd4825db27098E, symObjAddr: 0x2A70, symBinAddr: 0x33460, symSize: 0x18 }
  - { offset: 0xF5770, size: 0x8, addend: 0x0, symName: __ZN4pyo35impl_5panic9PanicTrap6disarm17h38b0de9fcc3f20ecE, symObjAddr: 0x2A88, symBinAddr: 0x33478, symSize: 0x28 }
  - { offset: 0xF5896, size: 0x8, addend: 0x0, symName: '__ZN5alloc3vec9into_iter21IntoIter$LT$T$C$A$GT$16as_raw_mut_slice17hb07ee3c6399a6bbbE', symObjAddr: 0x35B4, symBinAddr: 0x33564, symSize: 0xCC }
  - { offset: 0xF59E6, size: 0x8, addend: 0x0, symName: '__ZN5alloc3vec9into_iter21IntoIter$LT$T$C$A$GT$16as_raw_mut_slice17hcfbfa4582ca477cfE', symObjAddr: 0x3680, symBinAddr: 0x33630, symSize: 0xCC }
  - { offset: 0xF5B36, size: 0x8, addend: 0x0, symName: '__ZN5alloc3vec9into_iter21IntoIter$LT$T$C$A$GT$16as_raw_mut_slice17hf00107e39ac57b35E', symObjAddr: 0x374C, symBinAddr: 0x336FC, symSize: 0xCC }
  - { offset: 0xF5C29, size: 0x8, addend: 0x0, symName: '__ZN5alloc6borrow12Cow$LT$B$GT$10into_owned17h1fd1778385ba1a58E', symObjAddr: 0x3874, symBinAddr: 0x337C8, symSize: 0x74 }
  - { offset: 0xF5D14, size: 0x8, addend: 0x0, symName: '__ZN5alloc7raw_vec19RawVec$LT$T$C$A$GT$8grow_one17h286c7c60924807f9E', symObjAddr: 0x39E4, symBinAddr: 0x33894, symSize: 0x88 }
  - { offset: 0xF5DC4, size: 0x8, addend: 0x0, symName: '__ZN5alloc7raw_vec19RawVec$LT$T$C$A$GT$8grow_one17h29d34bb8a703712eE', symObjAddr: 0x3A6C, symBinAddr: 0x3391C, symSize: 0x88 }
  - { offset: 0xF5E74, size: 0x8, addend: 0x0, symName: '__ZN5alloc7raw_vec19RawVec$LT$T$C$A$GT$8grow_one17h463d4315743763dfE', symObjAddr: 0x3AF4, symBinAddr: 0x339A4, symSize: 0x84 }
  - { offset: 0xF5F24, size: 0x8, addend: 0x0, symName: '__ZN5alloc7raw_vec19RawVec$LT$T$C$A$GT$8grow_one17h708ffc1a5a3247bdE', symObjAddr: 0x3B78, symBinAddr: 0x33A28, symSize: 0x88 }
  - { offset: 0xF6020, size: 0x8, addend: 0x0, symName: '__ZN5alloc7raw_vec19RawVec$LT$T$C$A$GT$8grow_one17h7af3decf73c69720E', symObjAddr: 0x3C00, symBinAddr: 0x33AB0, symSize: 0x88 }
  - { offset: 0xF60D0, size: 0x8, addend: 0x0, symName: '__ZN5alloc7raw_vec19RawVec$LT$T$C$A$GT$8grow_one17h884275f8aba72d23E', symObjAddr: 0x3C88, symBinAddr: 0x33B38, symSize: 0x88 }
  - { offset: 0xF6180, size: 0x8, addend: 0x0, symName: '__ZN5alloc7raw_vec19RawVec$LT$T$C$A$GT$8grow_one17ha781402b022ef16bE', symObjAddr: 0x3D10, symBinAddr: 0x33BC0, symSize: 0x88 }
  - { offset: 0xF6230, size: 0x8, addend: 0x0, symName: '__ZN5alloc7raw_vec19RawVec$LT$T$C$A$GT$8grow_one17hc264b5bdb34f43ddE', symObjAddr: 0x3D98, symBinAddr: 0x33C48, symSize: 0x84 }
  - { offset: 0xF62E0, size: 0x8, addend: 0x0, symName: '__ZN5alloc7raw_vec19RawVec$LT$T$C$A$GT$8grow_one17hfb76eff5602b0a31E', symObjAddr: 0x3E1C, symBinAddr: 0x33CCC, symSize: 0x88 }
  - { offset: 0xF63CF, size: 0x8, addend: 0x0, symName: '__ZN5alloc7raw_vec20RawVecInner$LT$A$GT$14current_memory17hb441130930fa2774E', symObjAddr: 0x3F14, symBinAddr: 0x33D54, symSize: 0x10C }
  - { offset: 0xF661B, size: 0x8, addend: 0x0, symName: '__ZN5alloc7raw_vec20RawVecInner$LT$A$GT$16shrink_unchecked17heeeb41e6de49d262E', symObjAddr: 0x412C, symBinAddr: 0x33E60, symSize: 0x28C }
  - { offset: 0xF6948, size: 0x8, addend: 0x0, symName: '__ZN5alloc7raw_vec20RawVecInner$LT$A$GT$6shrink17h23d2075e41125346E', symObjAddr: 0x43B8, symBinAddr: 0x340EC, symSize: 0xB8 }
  - { offset: 0xF7255, size: 0x8, addend: 0x0, symName: '__ZN4core3num23_$LT$impl$u20$usize$GT$13unchecked_add18precondition_check17ha180cefd64a3d015E', symObjAddr: 0x15E0, symBinAddr: 0x34CF0, symSize: 0x64 }
  - { offset: 0xF72FE, size: 0x8, addend: 0x0, symName: '__ZN4core3num23_$LT$impl$u20$usize$GT$13unchecked_mul18precondition_check17h1b39a80db80f459cE', symObjAddr: 0x1644, symBinAddr: 0x34D54, symSize: 0x60 }
  - { offset: 0xF8A36, size: 0x8, addend: 0x0, symName: '__ZN102_$LT$core..iter..adapters..zip..Zip$LT$A$C$B$GT$$u20$as$u20$core..iter..traits..iterator..Iterator$GT$4next17h085b6a50db534e61E', symObjAddr: 0x28, symBinAddr: 0x3478C, symSize: 0x24 }
  - { offset: 0xF8A74, size: 0x8, addend: 0x0, symName: '__ZN102_$LT$core..iter..adapters..zip..Zip$LT$A$C$B$GT$$u20$as$u20$core..iter..traits..iterator..Iterator$GT$4next17ha95380b4ee2afd72E', symObjAddr: 0x4C, symBinAddr: 0x347B0, symSize: 0x24 }
  - { offset: 0xF8AB2, size: 0x8, addend: 0x0, symName: '__ZN102_$LT$core..iter..adapters..zip..Zip$LT$A$C$B$GT$$u20$as$u20$core..iter..traits..iterator..Iterator$GT$9size_hint17h1e8f01632ea87a3eE', symObjAddr: 0x94, symBinAddr: 0x347D4, symSize: 0x24 }
  - { offset: 0xF8AF0, size: 0x8, addend: 0x0, symName: '__ZN102_$LT$core..iter..adapters..zip..Zip$LT$A$C$B$GT$$u20$as$u20$core..iter..traits..iterator..Iterator$GT$9size_hint17h763e9ea15707b42eE', symObjAddr: 0xB8, symBinAddr: 0x347F8, symSize: 0x24 }
  - { offset: 0xF8B34, size: 0x8, addend: 0x0, symName: '__ZN111_$LT$core..iter..adapters..zip..Zip$LT$A$C$B$GT$$u20$as$u20$core..iter..adapters..zip..ZipImpl$LT$A$C$B$GT$$GT$3new17h4141342e75cc8cc2E', symObjAddr: 0x17C, symBinAddr: 0x3481C, symSize: 0xBC }
  - { offset: 0xF8BC7, size: 0x8, addend: 0x0, symName: '__ZN111_$LT$core..iter..adapters..zip..Zip$LT$A$C$B$GT$$u20$as$u20$core..iter..adapters..zip..ZipImpl$LT$A$C$B$GT$$GT$4next17h5f2151dc34531efdE', symObjAddr: 0x410, symBinAddr: 0x34914, symSize: 0xB0 }
  - { offset: 0xF8C1D, size: 0x8, addend: 0x0, symName: '__ZN111_$LT$core..iter..adapters..zip..Zip$LT$A$C$B$GT$$u20$as$u20$core..iter..adapters..zip..ZipImpl$LT$A$C$B$GT$$GT$9size_hint17h02e065f4eafdbfa2E', symObjAddr: 0x674, symBinAddr: 0x34AA4, symSize: 0x34 }
  - { offset: 0xF8C63, size: 0x8, addend: 0x0, symName: '__ZN111_$LT$core..iter..adapters..zip..Zip$LT$A$C$B$GT$$u20$as$u20$core..iter..adapters..zip..ZipImpl$LT$A$C$B$GT$$GT$3new17h7c05da8639c8449dE', symObjAddr: 0x3D4, symBinAddr: 0x348D8, symSize: 0x3C }
  - { offset: 0xF8CAF, size: 0x8, addend: 0x0, symName: '__ZN111_$LT$core..iter..adapters..zip..Zip$LT$A$C$B$GT$$u20$as$u20$core..iter..adapters..zip..ZipImpl$LT$A$C$B$GT$$GT$4next17ha3637703e26e3a23E', symObjAddr: 0x4C0, symBinAddr: 0x349C4, symSize: 0xE0 }
  - { offset: 0xF8E10, size: 0x8, addend: 0x0, symName: '__ZN111_$LT$core..iter..adapters..zip..Zip$LT$A$C$B$GT$$u20$as$u20$core..iter..adapters..zip..ZipImpl$LT$A$C$B$GT$$GT$9size_hint17h47423cc47ab024daE', symObjAddr: 0x6A8, symBinAddr: 0x34AD8, symSize: 0x12C }
  - { offset: 0xF90F9, size: 0x8, addend: 0x0, symName: __ZN4core4iter6traits8iterator8Iterator10filter_map17h408c6fea2b466ec5E, symObjAddr: 0x1B44, symBinAddr: 0x34DD0, symSize: 0x30 }
  - { offset: 0xF9167, size: 0x8, addend: 0x0, symName: __ZN4core4iter6traits8iterator8Iterator10filter_map17hf044893ecd710e68E, symObjAddr: 0x1B74, symBinAddr: 0x34E00, symSize: 0x30 }
  - { offset: 0xF91D5, size: 0x8, addend: 0x0, symName: __ZN4core4iter6traits8iterator8Iterator8find_map17h73b7dbbab17e5709E, symObjAddr: 0x1C60, symBinAddr: 0x34E30, symSize: 0x8C }
  - { offset: 0xF925D, size: 0x8, addend: 0x0, symName: __ZN4core4iter6traits8iterator8Iterator8find_map17hadb3d46c08e76916E, symObjAddr: 0x1CEC, symBinAddr: 0x34EBC, symSize: 0x8C }
  - { offset: 0xF92E5, size: 0x8, addend: 0x0, symName: __ZN4core4iter6traits8iterator8Iterator8try_fold17h3e303a5732e0d89bE, symObjAddr: 0x1D78, symBinAddr: 0x34F48, symSize: 0x190 }
  - { offset: 0xF939B, size: 0x8, addend: 0x0, symName: __ZN4core4iter6traits8iterator8Iterator8try_fold17h8c7b460b7fdd14aaE, symObjAddr: 0x1F08, symBinAddr: 0x350D8, symSize: 0x190 }
  - { offset: 0xFA536, size: 0x8, addend: 0x0, symName: '__ZN118_$LT$$u5b$core..mem..maybe_uninit..MaybeUninit$LT$T$GT$$u5d$$u20$as$u20$core..array..iter..iter_inner..PartialDrop$GT$12partial_drop17hfb9d61758345337cE', symObjAddr: 0xAFC, symBinAddr: 0x34C04, symSize: 0xA0 }
  - { offset: 0xFA636, size: 0x8, addend: 0x0, symName: '__ZN129_$LT$$u5b$core..mem..maybe_uninit..MaybeUninit$LT$T$GT$$u3b$$u20$N$u5d$$u20$as$u20$core..array..iter..iter_inner..PartialDrop$GT$12partial_drop17h17724de7b77944fbE', symObjAddr: 0xB9C, symBinAddr: 0x34CA4, symSize: 0x4C }
  - { offset: 0xFA727, size: 0x8, addend: 0x0, symName: '__ZN4core3str21_$LT$impl$u20$str$GT$3len17h83d8963bc1751eedE', symObjAddr: 0x18BC, symBinAddr: 0x34DB4, symSize: 0x1C }
  - { offset: 0xFA794, size: 0x8, addend: 0x0, symName: '__ZN64_$LT$core..str..error..Utf8Error$u20$as$u20$core..fmt..Debug$GT$3fmt17hc90e4c22e28cf671E', symObjAddr: 0x55C4, symBinAddr: 0x36B44, symSize: 0x88 }
  - { offset: 0xFA9C4, size: 0x8, addend: 0x0, symName: __ZN4pyo35impl_10trampoline10trampoline17h1123667d59a7f618E, symObjAddr: 0x4490, symBinAddr: 0x36020, symSize: 0x15C }
  - { offset: 0xFAA67, size: 0x8, addend: 0x0, symName: __ZN4pyo35impl_10trampoline10trampoline17h234f21d700cd35ebE, symObjAddr: 0x45EC, symBinAddr: 0x3617C, symSize: 0x158 }
  - { offset: 0xFAB0A, size: 0x8, addend: 0x0, symName: __ZN4pyo35impl_10trampoline10trampoline17h23c663362436bb6bE, symObjAddr: 0x4744, symBinAddr: 0x362D4, symSize: 0x14C }
  - { offset: 0xFABAD, size: 0x8, addend: 0x0, symName: __ZN4pyo35impl_10trampoline10trampoline17h3b91df614ac3720aE, symObjAddr: 0x4890, symBinAddr: 0x36420, symSize: 0x15C }
  - { offset: 0xFAC50, size: 0x8, addend: 0x0, symName: __ZN4pyo35impl_10trampoline10trampoline17h8db37f61de19b577E, symObjAddr: 0x49EC, symBinAddr: 0x3657C, symSize: 0x15C }
  - { offset: 0xFACF3, size: 0x8, addend: 0x0, symName: __ZN4pyo35impl_10trampoline10trampoline17ha54515959323b9adE, symObjAddr: 0x4B48, symBinAddr: 0x366D8, symSize: 0x158 }
  - { offset: 0xFAD9B, size: 0x8, addend: 0x0, symName: '__ZN4pyo35impl_10trampoline10trampoline28_$u7b$$u7b$closure$u7d$$u7d$17h29b49630f27dea18E', symObjAddr: 0x4CA0, symBinAddr: 0x36830, symSize: 0x2C }
  - { offset: 0xFADE9, size: 0x8, addend: 0x0, symName: '__ZN4pyo35impl_10trampoline10trampoline28_$u7b$$u7b$closure$u7d$$u7d$17hb3800fca1a91ece7E', symObjAddr: 0x4CCC, symBinAddr: 0x3685C, symSize: 0x34 }
  - { offset: 0xFAE38, size: 0x8, addend: 0x0, symName: '__ZN4pyo35impl_10trampoline10trampoline28_$u7b$$u7b$closure$u7d$$u7d$17hc7b023ab9dc4f4b7E', symObjAddr: 0x4D00, symBinAddr: 0x36890, symSize: 0x24 }
  - { offset: 0xFAE86, size: 0x8, addend: 0x0, symName: '__ZN4pyo35impl_10trampoline10trampoline28_$u7b$$u7b$closure$u7d$$u7d$17hd6280ba397c4b408E', symObjAddr: 0x4D24, symBinAddr: 0x368B4, symSize: 0x2C }
  - { offset: 0xFAED4, size: 0x8, addend: 0x0, symName: '__ZN4pyo35impl_10trampoline10trampoline28_$u7b$$u7b$closure$u7d$$u7d$17hd688708f8e5a2d4dE', symObjAddr: 0x4D50, symBinAddr: 0x368E0, symSize: 0x34 }
  - { offset: 0xFAF23, size: 0x8, addend: 0x0, symName: '__ZN4pyo35impl_10trampoline10trampoline28_$u7b$$u7b$closure$u7d$$u7d$17hed7b8265becb8d89E', symObjAddr: 0x4D84, symBinAddr: 0x36914, symSize: 0x34 }
  - { offset: 0xFAF73, size: 0x8, addend: 0x0, symName: __ZN4pyo35impl_10trampoline33panic_result_into_callback_output17h6e8edbe416bc2122E, symObjAddr: 0x4DB8, symBinAddr: 0x36948, symSize: 0xF8 }
  - { offset: 0xFB036, size: 0x8, addend: 0x0, symName: __ZN4pyo35impl_10trampoline33panic_result_into_callback_output17hd9cddd5965a23060E, symObjAddr: 0x4EB0, symBinAddr: 0x36A40, symSize: 0x104 }
  - { offset: 0xFB3EA, size: 0x8, addend: 0x0, symName: '__ZN4pyo34sync8Interned3get28_$u7b$$u7b$closure$u7d$$u7d$17ha262a11c9279eadfE', symObjAddr: 0x4414, symBinAddr: 0x35FEC, symSize: 0x34 }
  - { offset: 0xFB436, size: 0x8, addend: 0x0, symName: '__ZN4pyo34sync20GILOnceCell$LT$T$GT$11get_or_init28_$u7b$$u7b$closure$u7d$$u7d$17h6914ba84a6db61a6E', symObjAddr: 0x27E0, symBinAddr: 0x35428, symSize: 0x24 }
  - { offset: 0xFB475, size: 0x8, addend: 0x0, symName: '__ZN4pyo34sync20GILOnceCell$LT$T$GT$11get_or_init28_$u7b$$u7b$closure$u7d$$u7d$17h8f346731b095a7f9E', symObjAddr: 0x2804, symBinAddr: 0x3544C, symSize: 0x34 }
  - { offset: 0xFCDFD, size: 0x8, addend: 0x0, symName: '__ZN4pyo34sync20GILOnceCell$LT$T$GT$11get_or_init17h8f1273a25d33b261E', symObjAddr: 0x2620, symBinAddr: 0x35268, symSize: 0xE8 }
  - { offset: 0xFCEE8, size: 0x8, addend: 0x0, symName: '__ZN4pyo34sync20GILOnceCell$LT$T$GT$11get_or_init17ha9e224fa721ef2e0E', symObjAddr: 0x2708, symBinAddr: 0x35350, symSize: 0xD8 }
  - { offset: 0xFD001, size: 0x8, addend: 0x0, symName: '__ZN4pyo34sync20GILOnceCell$LT$T$GT$15get_or_try_init17h887f4fc1ba68242fE', symObjAddr: 0x2908, symBinAddr: 0x35480, symSize: 0xCC }
  - { offset: 0xFD0ED, size: 0x8, addend: 0x0, symName: '__ZN4pyo34sync20GILOnceCell$LT$T$GT$15get_or_try_init17hd5009d976afe3282E', symObjAddr: 0x29D4, symBinAddr: 0x3554C, symSize: 0xCC }
  - { offset: 0xFD1ED, size: 0x8, addend: 0x0, symName: '__ZN4pyo34sync20GILOnceCell$LT$T$GT$15get_or_try_init17hda4de9ad2f885b0dE', symObjAddr: 0x2B60, symBinAddr: 0x35618, symSize: 0xE8 }
  - { offset: 0xFD267, size: 0x8, addend: 0x0, symName: '__ZN4pyo34sync20GILOnceCell$LT$T$GT$3get17h17ce3c3ba5139a10E', symObjAddr: 0x2C48, symBinAddr: 0x35700, symSize: 0x70 }
  - { offset: 0xFD2AB, size: 0x8, addend: 0x0, symName: '__ZN4pyo34sync20GILOnceCell$LT$T$GT$3get17h24a12dca14bd1156E', symObjAddr: 0x2CB8, symBinAddr: 0x35770, symSize: 0x70 }
  - { offset: 0xFD2EF, size: 0x8, addend: 0x0, symName: '__ZN4pyo34sync20GILOnceCell$LT$T$GT$3get17h4add25cba78bc542E', symObjAddr: 0x2D28, symBinAddr: 0x357E0, symSize: 0x70 }
  - { offset: 0xFD333, size: 0x8, addend: 0x0, symName: '__ZN4pyo34sync20GILOnceCell$LT$T$GT$3get17h96b9a30b23aa3857E', symObjAddr: 0x2D98, symBinAddr: 0x35850, symSize: 0x70 }
  - { offset: 0xFD377, size: 0x8, addend: 0x0, symName: '__ZN4pyo34sync20GILOnceCell$LT$T$GT$3get17hf21a23e349bdba55E', symObjAddr: 0x2E08, symBinAddr: 0x358C0, symSize: 0x74 }
  - { offset: 0xFD3F1, size: 0x8, addend: 0x0, symName: '__ZN4pyo34sync20GILOnceCell$LT$T$GT$3set17h0b4eb072bf9d60fcE', symObjAddr: 0x2F28, symBinAddr: 0x35934, symSize: 0x140 }
  - { offset: 0xFD4AB, size: 0x8, addend: 0x0, symName: '__ZN4pyo34sync20GILOnceCell$LT$T$GT$3set17h11afbf8aeb11d4ebE', symObjAddr: 0x3068, symBinAddr: 0x35A74, symSize: 0x140 }
  - { offset: 0xFD565, size: 0x8, addend: 0x0, symName: '__ZN4pyo34sync20GILOnceCell$LT$T$GT$3set17h29f74f8cba71b996E', symObjAddr: 0x32E8, symBinAddr: 0x35BB4, symSize: 0x108 }
  - { offset: 0xFD61F, size: 0x8, addend: 0x0, symName: '__ZN4pyo34sync20GILOnceCell$LT$T$GT$3set17h3a9e7e8c2611c71eE', symObjAddr: 0x33F0, symBinAddr: 0x35CBC, symSize: 0x194 }
  - { offset: 0xFD6DA, size: 0x8, addend: 0x0, symName: '__ZN4pyo34sync20GILOnceCell$LT$T$GT$3set17hacc4ab73c1ff1177E', symObjAddr: 0x3584, symBinAddr: 0x35E50, symSize: 0x140 }
  - { offset: 0xFD7B4, size: 0x8, addend: 0x0, symName: '__ZN4pyo34sync20GILOnceCell$LT$T$GT$4init17h03bb48361bbe2423E', symObjAddr: 0x385C, symBinAddr: 0x899C4, symSize: 0x198 }
  - { offset: 0xFD8B5, size: 0x8, addend: 0x0, symName: '__ZN4pyo34sync20GILOnceCell$LT$T$GT$4init17h399bba4d26727975E', symObjAddr: 0x3B80, symBinAddr: 0x89B5C, symSize: 0x120 }
  - { offset: 0xFD96C, size: 0x8, addend: 0x0, symName: '__ZN4pyo34sync20GILOnceCell$LT$T$GT$4init17h7e69c2dd0e5832c5E', symObjAddr: 0x3CA0, symBinAddr: 0x89C7C, symSize: 0x11C }
  - { offset: 0xFDA4B, size: 0x8, addend: 0x0, symName: '__ZN4pyo34sync20GILOnceCell$LT$T$GT$4init17h88ec8e086cdbcfe8E', symObjAddr: 0x3DBC, symBinAddr: 0x89D98, symSize: 0x1AC }
  - { offset: 0xFDB4C, size: 0x8, addend: 0x0, symName: '__ZN4pyo34sync20GILOnceCell$LT$T$GT$4init17h8bb374fda67d7dd2E', symObjAddr: 0x3F68, symBinAddr: 0x89F44, symSize: 0x158 }
  - { offset: 0xFDC30, size: 0x8, addend: 0x0, symName: '__ZN4pyo34sync21GILProtected$LT$T$GT$3get17h31e742f807cecdccE', symObjAddr: 0x40C0, symBinAddr: 0x35F90, symSize: 0x14 }
  - { offset: 0xFDC8E, size: 0x8, addend: 0x0, symName: __ZN4pyo34sync8Interned3get17h3a9828c27d4f3362E, symObjAddr: 0x43CC, symBinAddr: 0x35FA4, symSize: 0x48 }
  - { offset: 0xFDCE0, size: 0x8, addend: 0x0, symName: '__ZN9hashbrown11rustc_entry62_$LT$impl$u20$hashbrown..map..HashMap$LT$K$C$V$C$S$C$A$GT$$GT$11rustc_entry28_$u7b$$u7b$closure$u7d$$u7d$17h50fa22a6afc1ecf7E', symObjAddr: 0x5968, symBinAddr: 0x36BCC, symSize: 0x38 }
  - { offset: 0xFDF13, size: 0x8, addend: 0x0, symName: '__ZN100_$LT$core..iter..adapters..take..Take$LT$I$GT$$u20$as$u20$core..iter..traits..iterator..Iterator$GT$4next17h72c83a7e0f3f1050E', symObjAddr: 0x0, symBinAddr: 0x36C04, symSize: 0x58 }
  - { offset: 0xFDF6F, size: 0x8, addend: 0x0, symName: '__ZN45_$LT$T$u20$as$u20$alloc..string..ToString$GT$9to_string17h24b5451b52b870d4E', symObjAddr: 0x10EC, symBinAddr: 0x3780C, symSize: 0x24 }
  - { offset: 0xFDFAC, size: 0x8, addend: 0x0, symName: '__ZN49_$LT$T$u20$as$u20$alloc..string..SpecToString$GT$14spec_to_string17h23f3d82b5f547741E', symObjAddr: 0x1158, symBinAddr: 0x37830, symSize: 0xF4 }
  - { offset: 0xFE34E, size: 0x8, addend: 0x0, symName: __ZN5alloc3fmt6format17h577cce5ac1bf8f10E, symObjAddr: 0x452C, symBinAddr: 0x3914C, symSize: 0xD8 }
  - { offset: 0xFE412, size: 0x8, addend: 0x0, symName: '__ZN5alloc3fmt6format28_$u7b$$u7b$closure$u7d$$u7d$17hd6132c5fc2a68ebbE', symObjAddr: 0x4604, symBinAddr: 0x39224, symSize: 0x30 }
  - { offset: 0xFFA3C, size: 0x8, addend: 0x0, symName: '__ZN100_$LT$core..iter..adapters..take..Take$LT$I$GT$$u20$as$u20$core..iter..traits..iterator..Iterator$GT$4next17h72c83a7e0f3f1050E', symObjAddr: 0x0, symBinAddr: 0x36C04, symSize: 0x58 }
  - { offset: 0xFFA71, size: 0x8, addend: 0x0, symName: '__ZN100_$LT$core..iter..adapters..take..Take$LT$I$GT$$u20$as$u20$core..iter..traits..iterator..Iterator$GT$4next17h8d097861953d1209E', symObjAddr: 0x58, symBinAddr: 0x36C5C, symSize: 0x58 }
  - { offset: 0xFFAA6, size: 0x8, addend: 0x0, symName: '__ZN100_$LT$core..iter..adapters..take..Take$LT$I$GT$$u20$as$u20$core..iter..traits..iterator..Iterator$GT$9size_hint17h59f71dcfd5e368adE', symObjAddr: 0xB0, symBinAddr: 0x36CB4, symSize: 0x100 }
  - { offset: 0xFFCB1, size: 0x8, addend: 0x0, symName: __ZN4core4iter6traits8iterator8Iterator3zip17h306062b7eb587a6eE, symObjAddr: 0x1868, symBinAddr: 0x37D30, symSize: 0xB0 }
  - { offset: 0xFFD27, size: 0x8, addend: 0x0, symName: __ZN4core4iter6traits8iterator8Iterator9enumerate17hbda02f69d12cc49cE, symObjAddr: 0x1930, symBinAddr: 0x37DE0, symSize: 0x18 }
  - { offset: 0xFFD58, size: 0x8, addend: 0x0, symName: __ZN4core4iter6traits8iterator8Iterator9enumerate17hbda02f69d12cc49cE, symObjAddr: 0x1930, symBinAddr: 0x37DE0, symSize: 0x18 }
  - { offset: 0xFFD7F, size: 0x8, addend: 0x0, symName: '__ZN63_$LT$I$u20$as$u20$core..iter..traits..collect..IntoIterator$GT$9into_iter17hee37b20c8fc97bc7E', symObjAddr: 0x4634, symBinAddr: 0x39254, symSize: 0x18 }
  - { offset: 0xFFF7A, size: 0x8, addend: 0x0, symName: '__ZN4core3ops8function5impls79_$LT$impl$u20$core..ops..function..FnMut$LT$A$GT$$u20$for$u20$$RF$mut$u20$F$GT$8call_mut17hc2bfe64aa2474184E', symObjAddr: 0x1434, symBinAddr: 0x37924, symSize: 0x38 }
  - { offset: 0xFFFC9, size: 0x8, addend: 0x0, symName: '__ZN4core3ops8function5impls79_$LT$impl$u20$core..ops..function..FnMut$LT$A$GT$$u20$for$u20$$RF$mut$u20$F$GT$8call_mut17hfe836d8fafc3ce5cE', symObjAddr: 0x146C, symBinAddr: 0x3795C, symSize: 0x38 }
  - { offset: 0x100079, size: 0x8, addend: 0x0, symName: '__ZN82_$LT$core..array..iter..IntoIter$LT$T$C$_$GT$$u20$as$u20$core..ops..drop..Drop$GT$4drop17hc8ed81fb88a61627E', symObjAddr: 0x50C0, symBinAddr: 0x39B84, symSize: 0x30 }
  - { offset: 0x1000D0, size: 0x8, addend: 0x0, symName: '__ZN99_$LT$core..array..iter..IntoIter$LT$T$C$_$GT$$u20$as$u20$core..iter..traits..iterator..Iterator$GT$4next17h4d6915578f48bc3cE', symObjAddr: 0x5188, symBinAddr: 0x39BEC, symSize: 0x2C }
  - { offset: 0x1014AB, size: 0x8, addend: 0x0, symName: __ZN4core4hash3sip9u8to64_le17h62fe2dfc8fb1a0f1E, symObjAddr: 0x1530, symBinAddr: 0x37A20, symSize: 0x240 }
  - { offset: 0x101668, size: 0x8, addend: 0x0, symName: '__ZN69_$LT$core..hash..sip..Sip13Rounds$u20$as$u20$core..hash..sip..Sip$GT$8c_rounds17h309d4d405c41cb96E', symObjAddr: 0x4764, symBinAddr: 0x392A8, symSize: 0x1A0 }
  - { offset: 0x1017DD, size: 0x8, addend: 0x0, symName: '__ZN69_$LT$core..hash..sip..Sip13Rounds$u20$as$u20$core..hash..sip..Sip$GT$8d_rounds17h2c501d131aeb7fecE', symObjAddr: 0x4904, symBinAddr: 0x39448, symSize: 0x46C }
  - { offset: 0x101C1A, size: 0x8, addend: 0x0, symName: '__ZN71_$LT$core..hash..sip..Hasher$LT$S$GT$$u20$as$u20$core..hash..Hasher$GT$5write17hb716cfb4c73ac308E', symObjAddr: 0x4DAC, symBinAddr: 0x398B4, symSize: 0x230 }
  - { offset: 0x101D93, size: 0x8, addend: 0x0, symName: '__ZN71_$LT$core..hash..sip..Hasher$LT$S$GT$$u20$as$u20$core..hash..Hasher$GT$6finish17h03b7bed69985fe14E', symObjAddr: 0x4FDC, symBinAddr: 0x39AE4, symSize: 0xA0 }
  - { offset: 0x101E27, size: 0x8, addend: 0x0, symName: '__ZN4core4hash5impls49_$LT$impl$u20$core..hash..Hash$u20$for$u20$i8$GT$10hash_slice17h78b1ae56a880feabE', symObjAddr: 0x1770, symBinAddr: 0x37C60, symSize: 0x80 }
  - { offset: 0x101EEF, size: 0x8, addend: 0x0, symName: '__ZN4core4hash5impls58_$LT$impl$u20$core..hash..Hash$u20$for$u20$$u5b$T$u5d$$GT$4hash17he52c3d1fd926bbaaE', symObjAddr: 0x17F0, symBinAddr: 0x37CE0, symSize: 0x50 }
  - { offset: 0x101FAA, size: 0x8, addend: 0x0, symName: '__ZN4core5slice29_$LT$impl$u20$$u5b$T$u5d$$GT$4iter17ha63a69891799ae02E', symObjAddr: 0x19CC, symBinAddr: 0x37DF8, symSize: 0x28 }
  - { offset: 0x10207A, size: 0x8, addend: 0x0, symName: __ZN4core5slice3raw14from_raw_parts17hd27bfb1c56b32a85E, symObjAddr: 0x1AA4, symBinAddr: 0x37E20, symSize: 0x58 }
  - { offset: 0x1020C2, size: 0x8, addend: 0x0, symName: __ZN4core5slice3raw14from_raw_parts18precondition_check17he17ac189671a148bE, symObjAddr: 0x1B54, symBinAddr: 0x37E78, symSize: 0x10C }
  - { offset: 0x102B04, size: 0x8, addend: 0x0, symName: __ZN8pyo3_ffi12methodobject17PyCFunction_NewEx17h207e958a38620ca8E, symObjAddr: 0x5150, symBinAddr: 0x39BB4, symSize: 0x38 }
  - { offset: 0x102C2A, size: 0x8, addend: 0x0, symName: '__ZN135_$LT$pyo3..impl_..pyclass..lazy_type_object..LazyTypeObjectInner..ensure_init..InitializationGuard$u20$as$u20$core..ops..drop..Drop$GT$4drop17hc961b63bca875badE', symObjAddr: 0x1F8, symBinAddr: 0x36DB4, symSize: 0x98 }
  - { offset: 0x102C6C, size: 0x8, addend: 0x0, symName: '__ZN135_$LT$pyo3..impl_..pyclass..lazy_type_object..LazyTypeObjectInner..ensure_init..InitializationGuard$u20$as$u20$core..ops..drop..Drop$GT$4drop28_$u7b$$u7b$closure$u7d$$u7d$17h572945d08f7ec5d5E', symObjAddr: 0x290, symBinAddr: 0x36E4C, symSize: 0x38 }
  - { offset: 0x102CAB, size: 0x8, addend: 0x0, symName: '__ZN4pyo35impl_7pyclass16lazy_type_object19LazyTypeObjectInner11ensure_init28_$u7b$$u7b$closure$u7d$$u7d$17h074cba867fd4f364E', symObjAddr: 0x39E4, symBinAddr: 0x38CE8, symSize: 0x154 }
  - { offset: 0x102D60, size: 0x8, addend: 0x0, symName: '__ZN4pyo35impl_7pyclass16lazy_type_object19LazyTypeObjectInner15get_or_try_init28_$u7b$$u7b$closure$u7d$$u7d$17h0172c2ba4f57b70eE', symObjAddr: 0x3BD0, symBinAddr: 0x38ED4, symSize: 0xFC }
  - { offset: 0x102DFF, size: 0x8, addend: 0x0, symName: '__ZN4pyo35impl_7pyclass16lazy_type_object19LazyTypeObjectInner15get_or_try_init28_$u7b$$u7b$closure$u7d$$u7d$17h8d504054d29588ebE', symObjAddr: 0x3CCC, symBinAddr: 0x38FD0, symSize: 0x150 }
  - { offset: 0x102ECC, size: 0x8, addend: 0x0, symName: '__ZN4pyo35impl_7pyclass16lazy_type_object19LazyTypeObjectInner15get_or_try_init28_$u7b$$u7b$closure$u7d$$u7d$28_$u7b$$u7b$closure$u7d$$u7d$17h02bac253301734abE', symObjAddr: 0x3E1C, symBinAddr: 0x39120, symSize: 0x2C }
  - { offset: 0x102F0C, size: 0x8, addend: 0x0, symName: __ZN4pyo35impl_7pyclass16lazy_type_object18initialize_tp_dict17h1289e3280da5ae59E, symObjAddr: 0x2FF4, symBinAddr: 0x382F8, symSize: 0x1D8 }
  - { offset: 0x103036, size: 0x8, addend: 0x0, symName: __ZN4pyo35impl_7pyclass16lazy_type_object21wrap_in_runtime_error17hd2df9724b164ac40E, symObjAddr: 0x3E48, symBinAddr: 0x8AE44, symSize: 0xF0 }
  - { offset: 0x1035F1, size: 0x8, addend: 0x0, symName: '__ZN4pyo35impl_16extract_argument19FunctionDescription34missing_required_keyword_arguments28_$u7b$$u7b$closure$u7d$$u7d$17h9b9dcce34d2254d8E', symObjAddr: 0x28D4, symBinAddr: 0x37F84, symSize: 0x84 }
  - { offset: 0x103661, size: 0x8, addend: 0x0, symName: '__ZN4pyo35impl_16extract_argument19FunctionDescription37missing_required_positional_arguments28_$u7b$$u7b$closure$u7d$$u7d$17h710b25ea1bfe81f0E', symObjAddr: 0x2AA0, symBinAddr: 0x38008, symSize: 0x78 }
  - { offset: 0x1036CD, size: 0x8, addend: 0x0, symName: __ZN4pyo35impl_16extract_argument19push_parameter_list17hcb4a41e9fdae2910E, symObjAddr: 0x2C24, symBinAddr: 0x3818C, symSize: 0x16C }
  - { offset: 0x103759, size: 0x8, addend: 0x0, symName: __ZN4pyo35impl_16extract_argument25argument_extraction_error17h6774bf1f200a7431E, symObjAddr: 0x2D90, symBinAddr: 0x8ABE0, symSize: 0x264 }
  - { offset: 0x103DF5, size: 0x8, addend: 0x0, symName: '__ZN66_$LT$pyo3..pycell..PyBorrowError$u20$as$u20$core..fmt..Display$GT$3fmt17h4dbbb30e7b1d6eb9E', symObjAddr: 0x469C, symBinAddr: 0x3926C, symSize: 0x3C }
  - { offset: 0x1041CF, size: 0x8, addend: 0x0, symName: __ZN3std9panicking12catch_unwind7do_call17h296b1cfe818ebc8cE, symObjAddr: 0xB04, symBinAddr: 0x37224, symSize: 0x90 }
  - { offset: 0x1042CA, size: 0x8, addend: 0x0, symName: __ZN3std9panicking12catch_unwind7do_call17h63f0aa2e97a8be45E, symObjAddr: 0xB94, symBinAddr: 0x372B4, symSize: 0x90 }
  - { offset: 0x1043C5, size: 0x8, addend: 0x0, symName: __ZN3std9panicking12catch_unwind7do_call17hafbd3c0772f16206E, symObjAddr: 0xC24, symBinAddr: 0x37344, symSize: 0x8C }
  - { offset: 0x1044C0, size: 0x8, addend: 0x0, symName: __ZN3std9panicking12catch_unwind7do_call17hd7fb5fc4e0327086E, symObjAddr: 0xCB0, symBinAddr: 0x373D0, symSize: 0x80 }
  - { offset: 0x1045BB, size: 0x8, addend: 0x0, symName: __ZN3std9panicking12catch_unwind7do_call17he8b24c8ab4c3a4dbE, symObjAddr: 0xD30, symBinAddr: 0x37450, symSize: 0x8C }
  - { offset: 0x1046B6, size: 0x8, addend: 0x0, symName: __ZN3std9panicking12catch_unwind7do_call17he8b65dd982ac56ffE, symObjAddr: 0xDBC, symBinAddr: 0x374DC, symSize: 0x90 }
  - { offset: 0x1047B1, size: 0x8, addend: 0x0, symName: __ZN3std9panicking12catch_unwind8do_catch17h074e275cac3164e0E, symObjAddr: 0xE4C, symBinAddr: 0x3756C, symSize: 0x70 }
  - { offset: 0x104846, size: 0x8, addend: 0x0, symName: __ZN3std9panicking12catch_unwind8do_catch17h0d11141c6e3adfbbE, symObjAddr: 0xEBC, symBinAddr: 0x375DC, symSize: 0x70 }
  - { offset: 0x1048DB, size: 0x8, addend: 0x0, symName: __ZN3std9panicking12catch_unwind8do_catch17h1843d139ed042f58E, symObjAddr: 0xF2C, symBinAddr: 0x3764C, symSize: 0x70 }
  - { offset: 0x104970, size: 0x8, addend: 0x0, symName: __ZN3std9panicking12catch_unwind8do_catch17h2222032d5f2b755dE, symObjAddr: 0xF9C, symBinAddr: 0x376BC, symSize: 0x70 }
  - { offset: 0x104A05, size: 0x8, addend: 0x0, symName: __ZN3std9panicking12catch_unwind8do_catch17h6a702c5182a909f2E, symObjAddr: 0x100C, symBinAddr: 0x3772C, symSize: 0x70 }
  - { offset: 0x104A9A, size: 0x8, addend: 0x0, symName: __ZN3std9panicking12catch_unwind8do_catch17hf26e5c20291074acE, symObjAddr: 0x107C, symBinAddr: 0x3779C, symSize: 0x70 }
  - { offset: 0x104CF1, size: 0x8, addend: 0x0, symName: '__ZN3std6thread5local17LocalKey$LT$T$GT$4with17h0f9895b00be3597dE', symObjAddr: 0x2C8, symBinAddr: 0x36E84, symSize: 0x50 }
  - { offset: 0x104E0A, size: 0x8, addend: 0x0, symName: '__ZN3std6thread5local17LocalKey$LT$T$GT$8try_with17h6659bb139470344aE', symObjAddr: 0x604, symBinAddr: 0x36ED4, symSize: 0xE8 }
  - { offset: 0x104F8C, size: 0x8, addend: 0x0, symName: '__ZN3std6thread5local17LocalKey$LT$T$GT$8try_with17hd84299ee07912f03E', symObjAddr: 0x7C4, symBinAddr: 0x36FBC, symSize: 0xCC }
  - { offset: 0x105114, size: 0x8, addend: 0x0, symName: '__ZN3std6thread5local17LocalKey$LT$T$GT$8try_with17hdc1250d23e0b107aE', symObjAddr: 0x890, symBinAddr: 0x37088, symSize: 0xD0 }
  - { offset: 0x105296, size: 0x8, addend: 0x0, symName: '__ZN3std6thread5local17LocalKey$LT$T$GT$8try_with17hf0dbaf8bac24d362E', symObjAddr: 0xA38, symBinAddr: 0x37158, symSize: 0xCC }
  - { offset: 0x105B96, size: 0x8, addend: 0x0, symName: '__ZN4core4hash3sip15Hasher$LT$S$GT$5reset17hd2948d095e3eacdfE', symObjAddr: 0x14A4, symBinAddr: 0x37994, symSize: 0x8C }
  - { offset: 0x105D2F, size: 0x8, addend: 0x0, symName: __ZN4pyo35impl_16extract_argument19FunctionDescription26missing_required_arguments17h68a8f39a8db67f7dE, symObjAddr: 0x1ED8, symBinAddr: 0x8A09C, symSize: 0x1F8 }
  - { offset: 0x105DF4, size: 0x8, addend: 0x0, symName: __ZN4pyo35impl_16extract_argument19FunctionDescription27unexpected_keyword_argument17h89054b6fdbcd4f5fE, symObjAddr: 0x20D0, symBinAddr: 0x8A294, symSize: 0x124 }
  - { offset: 0x105E82, size: 0x8, addend: 0x0, symName: __ZN4pyo35impl_16extract_argument19FunctionDescription28multiple_values_for_argument17h4ed3645c74556b58E, symObjAddr: 0x21F4, symBinAddr: 0x8A3B8, symSize: 0x110 }
  - { offset: 0x105F08, size: 0x8, addend: 0x0, symName: __ZN4pyo35impl_16extract_argument19FunctionDescription29too_many_positional_arguments17h17ee5c48c2b80e2dE, symObjAddr: 0x2304, symBinAddr: 0x8A4C8, symSize: 0x304 }
  - { offset: 0x10601B, size: 0x8, addend: 0x0, symName: __ZN4pyo35impl_16extract_argument19FunctionDescription33positional_only_keyword_arguments17hd56d9c9203d27aadE, symObjAddr: 0x2608, symBinAddr: 0x8A7CC, symSize: 0x148 }
  - { offset: 0x1060DE, size: 0x8, addend: 0x0, symName: __ZN4pyo35impl_16extract_argument19FunctionDescription34missing_required_keyword_arguments17h602d0ff9fdb0ddaaE, symObjAddr: 0x2750, symBinAddr: 0x8A914, symSize: 0x184 }
  - { offset: 0x106175, size: 0x8, addend: 0x0, symName: __ZN4pyo35impl_16extract_argument19FunctionDescription37missing_required_positional_arguments17h2900b7fd495c2dbbE, symObjAddr: 0x2958, symBinAddr: 0x8AA98, symSize: 0x148 }
  - { offset: 0x1061BE, size: 0x8, addend: 0x0, symName: __ZN4pyo35impl_16extract_argument19FunctionDescription9full_name17he98998844ca2b54bE, symObjAddr: 0x2B18, symBinAddr: 0x38080, symSize: 0x10C }
  - { offset: 0x1063F4, size: 0x8, addend: 0x0, symName: __ZN4pyo35impl_7pyclass16lazy_type_object19LazyTypeObjectInner11ensure_init17h8550d2b791f83cb2E, symObjAddr: 0x31CC, symBinAddr: 0x384D0, symSize: 0x818 }
  - { offset: 0x1066E4, size: 0x8, addend: 0x0, symName: __ZN4pyo35impl_7pyclass16lazy_type_object19LazyTypeObjectInner15get_or_try_init17h105b1fe4cbe0437fE, symObjAddr: 0x3B38, symBinAddr: 0x38E3C, symSize: 0x98 }
  - { offset: 0x106D06, size: 0x8, addend: 0x0, symName: '__ZN45_$LT$T$u20$as$u20$alloc..string..ToString$GT$9to_string17h02a1990272df0cc6E', symObjAddr: 0xA04, symBinAddr: 0x39E14, symSize: 0x24 }
  - { offset: 0x106D43, size: 0x8, addend: 0x0, symName: '__ZN49_$LT$T$u20$as$u20$alloc..string..SpecToString$GT$14spec_to_string17h52bb4e4889b79b10E', symObjAddr: 0xB40, symBinAddr: 0x39E38, symSize: 0xF4 }
  - { offset: 0x107674, size: 0x8, addend: 0x0, symName: '__ZN64_$LT$alloc..ffi..c_str..NulError$u20$as$u20$core..fmt..Debug$GT$3fmt17h1ada122d8e269d72E', symObjAddr: 0x6DCC, symBinAddr: 0x3D1C4, symSize: 0x5C }
  - { offset: 0x1076B4, size: 0x8, addend: 0x0, symName: '__ZN70_$LT$alloc..ffi..c_str..CString$u20$as$u20$core..ops..deref..Deref$GT$5deref17h7e5895e48b0ac2bcE', symObjAddr: 0x6E54, symBinAddr: 0x3D24C, symSize: 0x20 }
  - { offset: 0x107C72, size: 0x8, addend: 0x0, symName: '__ZN4core3ptr101drop_in_place$LT$core..option..Option$LT$pyo3..pyclass..create_type_object..PyClassTypeObject$GT$$GT$17h337f01ce2c847004E', symObjAddr: 0x25BC, symBinAddr: 0x3B0D4, symSize: 0x48 }
  - { offset: 0x107CA1, size: 0x8, addend: 0x0, symName: '__ZN4core3ptr101drop_in_place$LT$std..sys..sync..once_box..OnceBox$LT$std..sys..pal..unix..sync..mutex..Mutex$GT$$GT$17he38aada0326396e6E', symObjAddr: 0x2694, symBinAddr: 0x3B11C, symSize: 0x24 }
  - { offset: 0x107CD0, size: 0x8, addend: 0x0, symName: '__ZN4core3ptr104drop_in_place$LT$core..option..Option$LT$pyo3..instance..Py$LT$pyo3..types..module..PyModule$GT$$GT$$GT$17h8070e2826705b6c9E', symObjAddr: 0x2700, symBinAddr: 0x3B140, symSize: 0x44 }
  - { offset: 0x107CFF, size: 0x8, addend: 0x0, symName: '__ZN4core3ptr104drop_in_place$LT$core..option..Option$LT$pyo3..instance..Py$LT$pyo3..types..string..PyString$GT$$GT$$GT$17h712fc83ab5a8abfaE', symObjAddr: 0x2744, symBinAddr: 0x3B184, symSize: 0x44 }
  - { offset: 0x107D2E, size: 0x8, addend: 0x0, symName: '__ZN4core3ptr105drop_in_place$LT$alloc..raw_vec..RawVec$LT$pyo3..pyclass..create_type_object..GetSetDefDestructor$GT$$GT$17hd74055373f51ece0E', symObjAddr: 0x2788, symBinAddr: 0x3B1C8, symSize: 0x24 }
  - { offset: 0x107D5D, size: 0x8, addend: 0x0, symName: '__ZN4core3ptr106drop_in_place$LT$alloc..vec..Vec$LT$core..ptr..non_null..NonNull$LT$pyo3_ffi..object..PyObject$GT$$GT$$GT$17h1cb1bd479f2f7a53E', symObjAddr: 0x27AC, symBinAddr: 0x3B1EC, symSize: 0x5C }
  - { offset: 0x107D8C, size: 0x8, addend: 0x0, symName: '__ZN4core3ptr106drop_in_place$LT$core..option..Option$LT$pyo3..instance..Py$LT$pyo3..types..typeobject..PyType$GT$$GT$$GT$17h18c3b0d49eddbd41E', symObjAddr: 0x2808, symBinAddr: 0x3B248, symSize: 0x44 }
  - { offset: 0x107DBB, size: 0x8, addend: 0x0, symName: '__ZN4core3ptr107drop_in_place$LT$$LP$$RF$core..ffi..c_str..CStr$C$pyo3..instance..Py$LT$pyo3..types..any..PyAny$GT$$RP$$GT$17h68fa6473c16fd2d1E', symObjAddr: 0x284C, symBinAddr: 0x3B28C, symSize: 0x24 }
  - { offset: 0x107DEA, size: 0x8, addend: 0x0, symName: '__ZN4core3ptr107drop_in_place$LT$core..pin..Pin$LT$alloc..boxed..Box$LT$std..sys..pal..unix..sync..mutex..Mutex$GT$$GT$$GT$17hae61faf73e57ae80E', symObjAddr: 0x2870, symBinAddr: 0x3B2B0, symSize: 0x24 }
  - { offset: 0x107E19, size: 0x8, addend: 0x0, symName: '__ZN4core3ptr108drop_in_place$LT$core..option..Option$LT$pyo3..instance..Py$LT$pyo3..exceptions..PyBaseException$GT$$GT$$GT$17h6c955cb17550fd46E', symObjAddr: 0x28F8, symBinAddr: 0x3B2D4, symSize: 0x44 }
  - { offset: 0x107E48, size: 0x8, addend: 0x0, symName: '__ZN4core3ptr110drop_in_place$LT$core..option..Option$LT$pyo3..instance..Py$LT$pyo3..types..traceback..PyTraceback$GT$$GT$$GT$17hc00355d22c0ab5c4E', symObjAddr: 0x29A4, symBinAddr: 0x3B318, symSize: 0x44 }
  - { offset: 0x107E77, size: 0x8, addend: 0x0, symName: '__ZN4core3ptr111drop_in_place$LT$core..cell..UnsafeCell$LT$core..option..Option$LT$pyo3..err..err_state..PyErrState$GT$$GT$$GT$17h6da2ed503e990a92E', symObjAddr: 0x29E8, symBinAddr: 0x3B35C, symSize: 0x24 }
  - { offset: 0x107EA6, size: 0x8, addend: 0x0, symName: '__ZN4core3ptr112drop_in_place$LT$core..result..Result$LT$$LP$$RP$$C$pyo3..pyclass..create_type_object..PyClassTypeObject$GT$$GT$17h821857b244a740feE', symObjAddr: 0x2A0C, symBinAddr: 0x3B380, symSize: 0x48 }
  - { offset: 0x107ED5, size: 0x8, addend: 0x0, symName: '__ZN4core3ptr113drop_in_place$LT$alloc..raw_vec..RawVec$LT$core..ptr..non_null..NonNull$LT$pyo3_ffi..object..PyObject$GT$$GT$$GT$17h0a3e5e895d2a29eeE', symObjAddr: 0x2A54, symBinAddr: 0x3B3C8, symSize: 0x24 }
  - { offset: 0x107F04, size: 0x8, addend: 0x0, symName: '__ZN4core3ptr113drop_in_place$LT$core..option..Option$LT$pyo3..instance..Bound$LT$pyo3..types..traceback..PyTraceback$GT$$GT$$GT$17hb279389a56585ed0E', symObjAddr: 0x2A78, symBinAddr: 0x3B3EC, symSize: 0x44 }
  - { offset: 0x107F33, size: 0x8, addend: 0x0, symName: '__ZN4core3ptr114drop_in_place$LT$pyo3..impl_..pyclass..lazy_type_object..LazyTypeObjectInner..ensure_init..InitializationGuard$GT$17h86a2c7c6a9295c2fE', symObjAddr: 0x2ABC, symBinAddr: 0x3B430, symSize: 0x24 }
  - { offset: 0x107F62, size: 0x8, addend: 0x0, symName: '__ZN4core3ptr115drop_in_place$LT$core..array..iter..IntoIter$LT$pyo3..instance..Py$LT$pyo3..types..any..PyAny$GT$$C$1_usize$GT$$GT$17h66722426d32c111dE', symObjAddr: 0x2AE0, symBinAddr: 0x3B454, symSize: 0x24 }
  - { offset: 0x107F91, size: 0x8, addend: 0x0, symName: '__ZN4core3ptr115drop_in_place$LT$core..result..Result$LT$$LP$$RP$$C$pyo3..instance..Py$LT$pyo3..types..module..PyModule$GT$$GT$$GT$17h98befb1df752b1c0E', symObjAddr: 0x2B28, symBinAddr: 0x3B478, symSize: 0x44 }
  - { offset: 0x107FC0, size: 0x8, addend: 0x0, symName: '__ZN4core3ptr115drop_in_place$LT$core..result..Result$LT$$LP$$RP$$C$pyo3..instance..Py$LT$pyo3..types..string..PyString$GT$$GT$$GT$17hb6b833abb8381645E', symObjAddr: 0x2B6C, symBinAddr: 0x3B4BC, symSize: 0x44 }
  - { offset: 0x107FEF, size: 0x8, addend: 0x0, symName: '__ZN4core3ptr117drop_in_place$LT$$u5b$$LP$$RF$core..ffi..c_str..CStr$C$pyo3..instance..Py$LT$pyo3..types..any..PyAny$GT$$RP$$u5d$$GT$17h31e4a248ab307d94E', symObjAddr: 0x2BB0, symBinAddr: 0x3B500, symSize: 0xC4 }
  - { offset: 0x10801E, size: 0x8, addend: 0x0, symName: '__ZN4core3ptr117drop_in_place$LT$core..result..Result$LT$$LP$$RP$$C$pyo3..instance..Py$LT$pyo3..types..typeobject..PyType$GT$$GT$$GT$17h57462113e45c113fE', symObjAddr: 0x2C74, symBinAddr: 0x3B5C4, symSize: 0x44 }
  - { offset: 0x10804D, size: 0x8, addend: 0x0, symName: '__ZN4core3ptr122drop_in_place$LT$alloc..vec..into_iter..IntoIter$LT$core..ptr..non_null..NonNull$LT$pyo3_ffi..object..PyObject$GT$$GT$$GT$17hb0f12b62d5ef1131E', symObjAddr: 0x2D88, symBinAddr: 0x3B608, symSize: 0x24 }
  - { offset: 0x10807C, size: 0x8, addend: 0x0, symName: '__ZN4core3ptr122drop_in_place$LT$pyo3..impl_..pyclass..lazy_type_object..LazyTypeObjectInner..ensure_init..$u7b$$u7b$closure$u7d$$u7d$$GT$17h1b4d9a71e1a6d55eE', symObjAddr: 0x2DAC, symBinAddr: 0x3B62C, symSize: 0x60 }
  - { offset: 0x1080AB, size: 0x8, addend: 0x0, symName: '__ZN4core3ptr126drop_in_place$LT$core..result..Result$LT$pyo3..instance..Bound$LT$pyo3..types..string..PyString$GT$$C$pyo3..err..PyErr$GT$$GT$17hfb51fa4ca0c6d97cE', symObjAddr: 0x2E0C, symBinAddr: 0x3B68C, symSize: 0x50 }
  - { offset: 0x1080DA, size: 0x8, addend: 0x0, symName: '__ZN4core3ptr129drop_in_place$LT$alloc..vec..Vec$LT$T$C$A$GT$..retain_mut..PanicGuard$LT$std..thread..id..ThreadId$C$alloc..alloc..Global$GT$$GT$17h0049623d64840c2fE', symObjAddr: 0x2E80, symBinAddr: 0x3B6DC, symSize: 0x24 }
  - { offset: 0x108109, size: 0x8, addend: 0x0, symName: '__ZN4core3ptr130drop_in_place$LT$alloc..vec..Vec$LT$$LP$$RF$core..ffi..c_str..CStr$C$pyo3..instance..Py$LT$pyo3..types..any..PyAny$GT$$RP$$GT$$GT$17hefe39594c1a1020eE', symObjAddr: 0x2EA4, symBinAddr: 0x3B700, symSize: 0x5C }
  - { offset: 0x108138, size: 0x8, addend: 0x0, symName: '__ZN4core3ptr132drop_in_place$LT$pyo3..err..PyErr..new$LT$pyo3..exceptions..PyTypeError$C$alloc..string..String$GT$..$u7b$$u7b$closure$u7d$$u7d$$GT$17hd7f19f7a6faa7aa9E', symObjAddr: 0x2F24, symBinAddr: 0x3B75C, symSize: 0x24 }
  - { offset: 0x108167, size: 0x8, addend: 0x0, symName: '__ZN4core3ptr133drop_in_place$LT$core..result..Result$LT$$RF$pyo3..instance..Bound$LT$pyo3..types..num..PyLong$GT$$C$pyo3..err..DowncastError$GT$$GT$17h34ae01dd425645c8E', symObjAddr: 0x2F48, symBinAddr: 0x3B780, symSize: 0x48 }
  - { offset: 0x108196, size: 0x8, addend: 0x0, symName: '__ZN4core3ptr133drop_in_place$LT$pyo3..err..PyErr..new$LT$pyo3..exceptions..PyValueError$C$alloc..string..String$GT$..$u7b$$u7b$closure$u7d$$u7d$$GT$17hf0630cfbe540ee83E', symObjAddr: 0x2F90, symBinAddr: 0x3B7C8, symSize: 0x24 }
  - { offset: 0x1081C5, size: 0x8, addend: 0x0, symName: '__ZN4core3ptr135drop_in_place$LT$core..option..Option$LT$core..pin..Pin$LT$alloc..boxed..Box$LT$std..sys..pal..unix..sync..mutex..Mutex$GT$$GT$$GT$$GT$17h59074747796502a5E', symObjAddr: 0x2FD8, symBinAddr: 0x3B7EC, symSize: 0x44 }
  - { offset: 0x1081F4, size: 0x8, addend: 0x0, symName: '__ZN4core3ptr135drop_in_place$LT$pyo3..err..PyErr..new$LT$pyo3..exceptions..PyRuntimeError$C$alloc..string..String$GT$..$u7b$$u7b$closure$u7d$$u7d$$GT$17h23484768377add22E', symObjAddr: 0x3064, symBinAddr: 0x3B830, symSize: 0x24 }
  - { offset: 0x108223, size: 0x8, addend: 0x0, symName: '__ZN4core3ptr136drop_in_place$LT$core..cell..UnsafeCell$LT$alloc..vec..Vec$LT$core..ptr..non_null..NonNull$LT$pyo3_ffi..object..PyObject$GT$$GT$$GT$$GT$17h18333a5c90be33f4E', symObjAddr: 0x30AC, symBinAddr: 0x3B854, symSize: 0x24 }
  - { offset: 0x108252, size: 0x8, addend: 0x0, symName: '__ZN4core3ptr136drop_in_place$LT$pyo3..err..PyErr..new$LT$pyo3..exceptions..PyOverflowError$C$alloc..string..String$GT$..$u7b$$u7b$closure$u7d$$u7d$$GT$17h4b6e8c403d1edc24E', symObjAddr: 0x3184, symBinAddr: 0x3B878, symSize: 0x24 }
  - { offset: 0x108281, size: 0x8, addend: 0x0, symName: '__ZN4core3ptr137drop_in_place$LT$alloc..raw_vec..RawVec$LT$$LP$$RF$core..ffi..c_str..CStr$C$pyo3..instance..Py$LT$pyo3..types..any..PyAny$GT$$RP$$GT$$GT$17h13ba6ccbf7f08c97E', symObjAddr: 0x31A8, symBinAddr: 0x3B89C, symSize: 0x24 }
  - { offset: 0x1082B0, size: 0x8, addend: 0x0, symName: '__ZN4core3ptr139drop_in_place$LT$pyo3..err..PyErr..new$LT$pyo3..exceptions..PyValueError$C$alloc..ffi..c_str..NulError$GT$..$u7b$$u7b$closure$u7d$$u7d$$GT$17h589ccc4e97bfcee8E', symObjAddr: 0x3280, symBinAddr: 0x3B8C0, symSize: 0x24 }
  - { offset: 0x1082DF, size: 0x8, addend: 0x0, symName: '__ZN4core3ptr141drop_in_place$LT$hashbrown..raw..RawTable$LT$$LP$$RF$core..ffi..c_str..CStr$C$pyo3..pyclass..create_type_object..GetSetDefBuilder$RP$$GT$$GT$17he7078f888e48e2c8E', symObjAddr: 0x32C8, symBinAddr: 0x3B8E4, symSize: 0x24 }
  - { offset: 0x10830E, size: 0x8, addend: 0x0, symName: '__ZN4core3ptr141drop_in_place$LT$pyo3..err..PyErr..new$LT$pyo3..panic..PanicException$C$$LP$alloc..string..String$C$$RP$$GT$..$u7b$$u7b$closure$u7d$$u7d$$GT$17hf38bfc26b28241beE', symObjAddr: 0x32EC, symBinAddr: 0x3B908, symSize: 0x24 }
  - { offset: 0x10833D, size: 0x8, addend: 0x0, symName: '__ZN4core3ptr145drop_in_place$LT$pyo3..err..err_state..PyErrState..lazy$LT$pyo3..instance..Py$LT$pyo3..types..any..PyAny$GT$$GT$..$u7b$$u7b$closure$u7d$$u7d$$GT$17hd97a7edb7a6b91d7E', symObjAddr: 0x33C4, symBinAddr: 0x3B92C, symSize: 0x60 }
  - { offset: 0x10836C, size: 0x8, addend: 0x0, symName: '__ZN4core3ptr145drop_in_place$LT$std..collections..hash..map..HashMap$LT$$RF$core..ffi..c_str..CStr$C$pyo3..pyclass..create_type_object..GetSetDefBuilder$GT$$GT$17h014d5b6e15dc378bE', symObjAddr: 0x3424, symBinAddr: 0x3B98C, symSize: 0x24 }
  - { offset: 0x10839B, size: 0x8, addend: 0x0, symName: '__ZN4core3ptr145drop_in_place$LT$std..sync..poison..mutex..Mutex$LT$alloc..vec..Vec$LT$core..ptr..non_null..NonNull$LT$pyo3_ffi..object..PyObject$GT$$GT$$GT$$GT$17h654b7515320ea2fdE', symObjAddr: 0x3448, symBinAddr: 0x3B9B0, symSize: 0x60 }
  - { offset: 0x1083CA, size: 0x8, addend: 0x0, symName: '__ZN4core3ptr146drop_in_place$LT$alloc..vec..into_iter..IntoIter$LT$$LP$$RF$core..ffi..c_str..CStr$C$pyo3..instance..Py$LT$pyo3..types..any..PyAny$GT$$RP$$GT$$GT$17h98ebdce088e18cefE', symObjAddr: 0x34A8, symBinAddr: 0x3BA10, symSize: 0x24 }
  - { offset: 0x1083F9, size: 0x8, addend: 0x0, symName: '__ZN4core3ptr146drop_in_place$LT$pyo3..err..PyErr..new$LT$pyo3..exceptions..PyTypeError$C$pyo3..err..PyDowncastErrorArguments$GT$..$u7b$$u7b$closure$u7d$$u7d$$GT$17h0dcc670af46e8617E', symObjAddr: 0x34CC, symBinAddr: 0x3BA34, symSize: 0x24 }
  - { offset: 0x108428, size: 0x8, addend: 0x0, symName: '__ZN4core3ptr150drop_in_place$LT$std..sync..poison..mutex..MutexGuard$LT$alloc..vec..Vec$LT$core..ptr..non_null..NonNull$LT$pyo3_ffi..object..PyObject$GT$$GT$$GT$$GT$17h6b54db28b81802c3E', symObjAddr: 0x3514, symBinAddr: 0x3BA58, symSize: 0x24 }
  - { offset: 0x108457, size: 0x8, addend: 0x0, symName: '__ZN4core3ptr165drop_in_place$LT$core..iter..adapters..enumerate..Enumerate$LT$core..array..iter..IntoIter$LT$pyo3..instance..Py$LT$pyo3..types..any..PyAny$GT$$C$1_usize$GT$$GT$$GT$17h6ad160175110d445E', symObjAddr: 0x355C, symBinAddr: 0x3BA7C, symSize: 0x24 }
  - { offset: 0x108486, size: 0x8, addend: 0x0, symName: '__ZN4core3ptr165drop_in_place$LT$hashbrown..map..HashMap$LT$$RF$core..ffi..c_str..CStr$C$pyo3..pyclass..create_type_object..GetSetDefBuilder$C$std..hash..random..RandomState$GT$$GT$17h9a69a8080cbd1cbcE', symObjAddr: 0x35A4, symBinAddr: 0x3BAA0, symSize: 0x24 }
  - { offset: 0x1084B5, size: 0x8, addend: 0x0, symName: '__ZN4core3ptr181drop_in_place$LT$hashbrown..scopeguard..ScopeGuard$LT$$RF$mut$u20$hashbrown..raw..RawTableInner$C$hashbrown..raw..RawTableInner..rehash_in_place..$u7b$$u7b$closure$u7d$$u7d$$GT$$GT$17ha6fdefbaa847d9e1E', symObjAddr: 0x35C8, symBinAddr: 0x3BAC4, symSize: 0x24 }
  - { offset: 0x1084E4, size: 0x8, addend: 0x0, symName: '__ZN4core3ptr188drop_in_place$LT$std..sync..poison..PoisonError$LT$std..sync..poison..mutex..MutexGuard$LT$alloc..vec..Vec$LT$core..ptr..non_null..NonNull$LT$pyo3_ffi..object..PyObject$GT$$GT$$GT$$GT$$GT$17h3f58201151455f95E', symObjAddr: 0x35EC, symBinAddr: 0x3BAE8, symSize: 0x24 }
  - { offset: 0x108513, size: 0x8, addend: 0x0, symName: '__ZN4core3ptr189drop_in_place$LT$core..array..iter..iter_inner..PolymorphicIter$LT$$u5b$core..mem..maybe_uninit..MaybeUninit$LT$pyo3..instance..Py$LT$pyo3..types..any..PyAny$GT$$GT$$u3b$$u20$1$u5d$$GT$$GT$17h3d5b207a2ad52fc5E', symObjAddr: 0x3610, symBinAddr: 0x3BB0C, symSize: 0x24 }
  - { offset: 0x108542, size: 0x8, addend: 0x0, symName: '__ZN4core3ptr196drop_in_place$LT$hashbrown..scopeguard..ScopeGuard$LT$hashbrown..raw..RawTableInner$C$hashbrown..raw..RawTableInner..prepare_resize$LT$alloc..alloc..Global$GT$..$u7b$$u7b$closure$u7d$$u7d$$GT$$GT$17hb3ce35548d30bda4E', symObjAddr: 0x3658, symBinAddr: 0x3BB30, symSize: 0x24 }
  - { offset: 0x108571, size: 0x8, addend: 0x0, symName: '__ZN4core3ptr216drop_in_place$LT$$LT$alloc..vec..into_iter..IntoIter$LT$T$C$A$GT$$u20$as$u20$core..ops..drop..Drop$GT$..drop..DropGuard$LT$core..ptr..non_null..NonNull$LT$pyo3_ffi..object..PyObject$GT$$C$alloc..alloc..Global$GT$$GT$17h407526d387225062E', symObjAddr: 0x370C, symBinAddr: 0x3BB54, symSize: 0x24 }
  - { offset: 0x1085A0, size: 0x8, addend: 0x0, symName: '__ZN4core3ptr233drop_in_place$LT$alloc..boxed..Box$LT$dyn$u20$core..ops..function..Fn$LT$$LP$$RF$pyo3..pyclass..create_type_object..PyTypeBuilder$C$$BP$mut$u20$pyo3_ffi..cpython..object..PyTypeObject$RP$$GT$$u2b$Output$u20$$u3d$$u20$$LP$$RP$$GT$$GT$17h841f61ded2c90ca1E', symObjAddr: 0x3730, symBinAddr: 0x3BB78, symSize: 0x80 }
  - { offset: 0x1085CF, size: 0x8, addend: 0x0, symName: '__ZN4core3ptr236drop_in_place$LT$alloc..boxed..Box$LT$dyn$u20$core..ops..function..FnOnce$LT$$LP$pyo3..marker..Python$C$$RP$$GT$$u2b$Output$u20$$u3d$$u20$pyo3..err..err_state..PyErrStateLazyFnOutput$u2b$core..marker..Sync$u2b$core..marker..Send$GT$$GT$17hce4449c3a89fbd0eE', symObjAddr: 0x37B0, symBinAddr: 0x3BBF8, symSize: 0x80 }
  - { offset: 0x1085FE, size: 0x8, addend: 0x0, symName: '__ZN4core3ptr240drop_in_place$LT$$LT$alloc..vec..into_iter..IntoIter$LT$T$C$A$GT$$u20$as$u20$core..ops..drop..Drop$GT$..drop..DropGuard$LT$$LP$$RF$core..ffi..c_str..CStr$C$pyo3..instance..Py$LT$pyo3..types..any..PyAny$GT$$RP$$C$alloc..alloc..Global$GT$$GT$17h87d6b46c0119475eE', symObjAddr: 0x3830, symBinAddr: 0x3BC78, symSize: 0x24 }
  - { offset: 0x10862D, size: 0x8, addend: 0x0, symName: '__ZN4core3ptr243drop_in_place$LT$$u5b$alloc..boxed..Box$LT$dyn$u20$core..ops..function..Fn$LT$$LP$$RF$pyo3..pyclass..create_type_object..PyTypeBuilder$C$$BP$mut$u20$pyo3_ffi..cpython..object..PyTypeObject$RP$$GT$$u2b$Output$u20$$u3d$$u20$$LP$$RP$$GT$$u5d$$GT$17h5f1ff4377847b76bE', symObjAddr: 0x3854, symBinAddr: 0x3BC9C, symSize: 0xB4 }
  - { offset: 0x10865C, size: 0x8, addend: 0x0, symName: '__ZN4core3ptr256drop_in_place$LT$alloc..vec..Vec$LT$alloc..boxed..Box$LT$dyn$u20$core..ops..function..Fn$LT$$LP$$RF$pyo3..pyclass..create_type_object..PyTypeBuilder$C$$BP$mut$u20$pyo3_ffi..cpython..object..PyTypeObject$RP$$GT$$u2b$Output$u20$$u3d$$u20$$LP$$RP$$GT$$GT$$GT$17h84d3c0a7449f79fdE', symObjAddr: 0x3908, symBinAddr: 0x3BD50, symSize: 0x5C }
  - { offset: 0x10868B, size: 0x8, addend: 0x0, symName: '__ZN4core3ptr263drop_in_place$LT$alloc..raw_vec..RawVec$LT$alloc..boxed..Box$LT$dyn$u20$core..ops..function..Fn$LT$$LP$$RF$pyo3..pyclass..create_type_object..PyTypeBuilder$C$$BP$mut$u20$pyo3_ffi..cpython..object..PyTypeObject$RP$$GT$$u2b$Output$u20$$u3d$$u20$$LP$$RP$$GT$$GT$$GT$17h8e0821a4cbb1d474E', symObjAddr: 0x3964, symBinAddr: 0x3BDAC, symSize: 0x24 }
  - { offset: 0x1086BA, size: 0x8, addend: 0x0, symName: '__ZN4core3ptr272drop_in_place$LT$alloc..vec..into_iter..IntoIter$LT$alloc..boxed..Box$LT$dyn$u20$core..ops..function..Fn$LT$$LP$$RF$pyo3..pyclass..create_type_object..PyTypeBuilder$C$$BP$mut$u20$pyo3_ffi..cpython..object..PyTypeObject$RP$$GT$$u2b$Output$u20$$u3d$$u20$$LP$$RP$$GT$$GT$$GT$17h94759d781615a922E', symObjAddr: 0x39AC, symBinAddr: 0x3BDD0, symSize: 0x24 }
  - { offset: 0x1086E9, size: 0x8, addend: 0x0, symName: '__ZN4core3ptr366drop_in_place$LT$$LT$alloc..vec..into_iter..IntoIter$LT$T$C$A$GT$$u20$as$u20$core..ops..drop..Drop$GT$..drop..DropGuard$LT$alloc..boxed..Box$LT$dyn$u20$core..ops..function..Fn$LT$$LP$$RF$pyo3..pyclass..create_type_object..PyTypeBuilder$C$$BP$mut$u20$pyo3_ffi..cpython..object..PyTypeObject$RP$$GT$$u2b$Output$u20$$u3d$$u20$$LP$$RP$$GT$$C$alloc..alloc..Global$GT$$GT$17h5c1df6d04d110604E', symObjAddr: 0x39D0, symBinAddr: 0x3BDF4, symSize: 0x24 }
  - { offset: 0x108718, size: 0x8, addend: 0x0, symName: '__ZN4core3ptr37drop_in_place$LT$pyo3..err..PyErr$GT$17h93d57a576061918eE', symObjAddr: 0x39F4, symBinAddr: 0x3BE18, symSize: 0x24 }
  - { offset: 0x108747, size: 0x8, addend: 0x0, symName: '__ZN4core3ptr40drop_in_place$LT$pyo3..gil..GILGuard$GT$17h5278bcda7b565ccaE', symObjAddr: 0x3A18, symBinAddr: 0x3BE3C, symSize: 0x60 }
  - { offset: 0x108776, size: 0x8, addend: 0x0, symName: '__ZN4core3ptr42drop_in_place$LT$alloc..string..String$GT$17h4d910dc2b4f2ab21E', symObjAddr: 0x3A9C, symBinAddr: 0x3BE9C, symSize: 0x24 }
  - { offset: 0x1087A5, size: 0x8, addend: 0x0, symName: '__ZN4core3ptr45drop_in_place$LT$core..cell..BorrowRefMut$GT$17h1d19af5a571b32fbE', symObjAddr: 0x3B08, symBinAddr: 0x3BEC0, symSize: 0x24 }
  - { offset: 0x1087D4, size: 0x8, addend: 0x0, symName: '__ZN4core3ptr45drop_in_place$LT$pyo3..err..DowncastError$GT$17hc978036174bef3d5E', symObjAddr: 0x3B2C, symBinAddr: 0x3BEE4, symSize: 0x24 }
  - { offset: 0x108803, size: 0x8, addend: 0x0, symName: '__ZN4core3ptr45drop_in_place$LT$pyo3..gil..ReferencePool$GT$17h9f4f460360fbeadbE', symObjAddr: 0x3B50, symBinAddr: 0x3BF08, symSize: 0x24 }
  - { offset: 0x108832, size: 0x8, addend: 0x0, symName: '__ZN4core3ptr50drop_in_place$LT$alloc..borrow..Cow$LT$str$GT$$GT$17h3c7af2dbf7f37f4fE', symObjAddr: 0x3C28, symBinAddr: 0x3BF2C, symSize: 0x48 }
  - { offset: 0x108861, size: 0x8, addend: 0x0, symName: '__ZN4core3ptr50drop_in_place$LT$pyo3..impl_..panic..PanicTrap$GT$17hb698350524105facE', symObjAddr: 0x3C70, symBinAddr: 0x3BF74, symSize: 0x24 }
  - { offset: 0x108890, size: 0x8, addend: 0x0, symName: '__ZN4core3ptr51drop_in_place$LT$alloc..vec..Vec$LT$$RF$str$GT$$GT$17h2f7943c75b82b012E', symObjAddr: 0x3C94, symBinAddr: 0x3BF98, symSize: 0x5C }
  - { offset: 0x1088BF, size: 0x8, addend: 0x0, symName: '__ZN4core3ptr53drop_in_place$LT$$LP$alloc..string..String$C$$RP$$GT$17h9ce1698998097998E', symObjAddr: 0x3CF0, symBinAddr: 0x3BFF4, symSize: 0x24 }
  - { offset: 0x1088EE, size: 0x8, addend: 0x0, symName: '__ZN4core3ptr53drop_in_place$LT$pyo3..err..err_state..PyErrState$GT$17hc3dff3a4f4e26c81E', symObjAddr: 0x3D14, symBinAddr: 0x3C018, symSize: 0xE0 }
  - { offset: 0x10891D, size: 0x8, addend: 0x0, symName: '__ZN4core3ptr56drop_in_place$LT$pyo3..err..PyDowncastErrorArguments$GT$17h4d31e594b7ffcc31E', symObjAddr: 0x3E18, symBinAddr: 0x3C0F8, symSize: 0x5C }
  - { offset: 0x10894C, size: 0x8, addend: 0x0, symName: '__ZN4core3ptr58drop_in_place$LT$alloc..raw_vec..RawVec$LT$$RF$str$GT$$GT$17h855469955b5f5351E', symObjAddr: 0x3EBC, symBinAddr: 0x3C154, symSize: 0x24 }
  - { offset: 0x10897B, size: 0x8, addend: 0x0, symName: '__ZN4core3ptr58drop_in_place$LT$std..sys..sync..mutex..pthread..Mutex$GT$17h61ab19ca9affe871E', symObjAddr: 0x3EE0, symBinAddr: 0x3C178, symSize: 0x5C }
  - { offset: 0x1089AA, size: 0x8, addend: 0x0, symName: '__ZN4core3ptr60drop_in_place$LT$std..sys..pal..unix..sync..mutex..Mutex$GT$17h997787248c3ebe8cE', symObjAddr: 0x3F84, symBinAddr: 0x3C1D4, symSize: 0x24 }
  - { offset: 0x1089D9, size: 0x8, addend: 0x0, symName: '__ZN4core3ptr63drop_in_place$LT$pyo3..err..err_state..PyErrStateNormalized$GT$17he4ba12e233da5101E', symObjAddr: 0x3FA8, symBinAddr: 0x3C1F8, symSize: 0x90 }
  - { offset: 0x108A08, size: 0x8, addend: 0x0, symName: '__ZN4core3ptr65drop_in_place$LT$core..option..Option$LT$pyo3..err..PyErr$GT$$GT$17h00a1fbd643aa9501E', symObjAddr: 0x4038, symBinAddr: 0x3C288, symSize: 0x40 }
  - { offset: 0x108A37, size: 0x8, addend: 0x0, symName: '__ZN4core3ptr69drop_in_place$LT$alloc..vec..Vec$LT$std..thread..id..ThreadId$GT$$GT$17h906ad93e5e343667E', symObjAddr: 0x4120, symBinAddr: 0x3C2C8, symSize: 0x5C }
  - { offset: 0x108A66, size: 0x8, addend: 0x0, symName: '__ZN4core3ptr69drop_in_place$LT$pyo3..pyclass..create_type_object..GetSetDefType$GT$17hdd68eb3299ae208cE', symObjAddr: 0x41A0, symBinAddr: 0x3C324, symSize: 0x48 }
  - { offset: 0x108A95, size: 0x8, addend: 0x0, symName: '__ZN4core3ptr69drop_in_place$LT$pyo3..pyclass..create_type_object..PyTypeBuilder$GT$17h770ae58a147f2f5eE', symObjAddr: 0x41E8, symBinAddr: 0x3C36C, symSize: 0xF4 }
  - { offset: 0x108AC4, size: 0x8, addend: 0x0, symName: '__ZN4core3ptr70drop_in_place$LT$pyo3..instance..Py$LT$pyo3..types..any..PyAny$GT$$GT$17hb0a396ed272c2db2E', symObjAddr: 0x42DC, symBinAddr: 0x3C460, symSize: 0x2C }
  - { offset: 0x108AF3, size: 0x8, addend: 0x0, symName: '__ZN4core3ptr72drop_in_place$LT$alloc..boxed..Box$LT$dyn$u20$core..error..Error$GT$$GT$17h68cbee78b98255bbE', symObjAddr: 0x4308, symBinAddr: 0x3C48C, symSize: 0x80 }
  - { offset: 0x108B22, size: 0x8, addend: 0x0, symName: '__ZN4core3ptr73drop_in_place$LT$alloc..vec..Vec$LT$pyo3_ffi..object..PyType_Slot$GT$$GT$17h5cd71ee19eeca35fE', symObjAddr: 0x4388, symBinAddr: 0x3C50C, symSize: 0x5C }
  - { offset: 0x108B51, size: 0x8, addend: 0x0, symName: '__ZN4core3ptr73drop_in_place$LT$core..option..Option$LT$pyo3..gil..ReferencePool$GT$$GT$17hcfe5c0f9c505ad43E', symObjAddr: 0x4440, symBinAddr: 0x3C568, symSize: 0x40 }
  - { offset: 0x108B80, size: 0x8, addend: 0x0, symName: '__ZN4core3ptr73drop_in_place$LT$pyo3..instance..Bound$LT$pyo3..types..any..PyAny$GT$$GT$17hbcaa70180c2f2439E', symObjAddr: 0x44A4, symBinAddr: 0x3C5A8, symSize: 0x24 }
  - { offset: 0x108BAF, size: 0x8, addend: 0x0, symName: '__ZN4core3ptr73drop_in_place$LT$pyo3..pyclass..create_type_object..PyClassTypeObject$GT$17ha901b3481f78735eE', symObjAddr: 0x44EC, symBinAddr: 0x3C5CC, symSize: 0x5C }
  - { offset: 0x108BDE, size: 0x8, addend: 0x0, symName: '__ZN4core3ptr74drop_in_place$LT$pyo3..instance..Py$LT$pyo3..types..tuple..PyTuple$GT$$GT$17h95721fb4a7e8e7ecE', symObjAddr: 0x4598, symBinAddr: 0x3C628, symSize: 0x2C }
  - { offset: 0x108C0D, size: 0x8, addend: 0x0, symName: '__ZN4core3ptr75drop_in_place$LT$core..option..Option$LT$alloc..ffi..c_str..CString$GT$$GT$17he7fdcfecb319ad4cE', symObjAddr: 0x45C4, symBinAddr: 0x3C654, symSize: 0x44 }
  - { offset: 0x108C3C, size: 0x8, addend: 0x0, symName: '__ZN4core3ptr75drop_in_place$LT$core..result..Result$LT$$RF$str$C$pyo3..err..PyErr$GT$$GT$17h29d6c2cb55853ea6E', symObjAddr: 0x4608, symBinAddr: 0x3C698, symSize: 0x40 }
  - { offset: 0x108C6B, size: 0x8, addend: 0x0, symName: '__ZN4core3ptr75drop_in_place$LT$pyo3..instance..Bound$LT$pyo3..types..dict..PyDict$GT$$GT$17h0c286437e81d56caE', symObjAddr: 0x4648, symBinAddr: 0x3C6D8, symSize: 0x24 }
  - { offset: 0x108C9A, size: 0x8, addend: 0x0, symName: '__ZN4core3ptr75drop_in_place$LT$pyo3..instance..Bound$LT$pyo3..types..list..PyList$GT$$GT$17h0b4a0819611b7576E', symObjAddr: 0x466C, symBinAddr: 0x3C6FC, symSize: 0x24 }
  - { offset: 0x108CC9, size: 0x8, addend: 0x0, symName: '__ZN4core3ptr75drop_in_place$LT$pyo3..pyclass..create_type_object..GetSetDefDestructor$GT$17h644290a7dc5c31e7E', symObjAddr: 0x4690, symBinAddr: 0x3C720, symSize: 0x24 }
  - { offset: 0x108CF8, size: 0x8, addend: 0x0, symName: '__ZN4core3ptr76drop_in_place$LT$alloc..raw_vec..RawVec$LT$std..thread..id..ThreadId$GT$$GT$17hd7cd6110a9df3789E', symObjAddr: 0x46B4, symBinAddr: 0x3C744, symSize: 0x24 }
  - { offset: 0x108D27, size: 0x8, addend: 0x0, symName: '__ZN4core3ptr76drop_in_place$LT$core..result..Result$LT$$LP$$RP$$C$pyo3..err..PyErr$GT$$GT$17hf59fedf402797c92E', symObjAddr: 0x46D8, symBinAddr: 0x3C768, symSize: 0x40 }
  - { offset: 0x108D56, size: 0x8, addend: 0x0, symName: '__ZN4core3ptr76drop_in_place$LT$pyo3..instance..Py$LT$pyo3..types..module..PyModule$GT$$GT$17h85a5588f535ff57cE', symObjAddr: 0x4718, symBinAddr: 0x3C7A8, symSize: 0x2C }
  - { offset: 0x108D85, size: 0x8, addend: 0x0, symName: '__ZN4core3ptr76drop_in_place$LT$pyo3..instance..Py$LT$pyo3..types..string..PyString$GT$$GT$17hbef46bd9cbdffea8E', symObjAddr: 0x4744, symBinAddr: 0x3C7D4, symSize: 0x2C }
  - { offset: 0x108DB4, size: 0x8, addend: 0x0, symName: '__ZN4core3ptr77drop_in_place$LT$pyo3..instance..Bound$LT$pyo3..types..bytes..PyBytes$GT$$GT$17ha8a7416e4c172421E', symObjAddr: 0x4794, symBinAddr: 0x3C800, symSize: 0x24 }
  - { offset: 0x108DE3, size: 0x8, addend: 0x0, symName: '__ZN4core3ptr77drop_in_place$LT$pyo3..instance..Bound$LT$pyo3..types..float..PyFloat$GT$$GT$17hcd4061b16dcd3cfaE', symObjAddr: 0x47B8, symBinAddr: 0x3C824, symSize: 0x24 }
  - { offset: 0x108E12, size: 0x8, addend: 0x0, symName: '__ZN4core3ptr78drop_in_place$LT$alloc..vec..Vec$LT$pyo3_ffi..descrobject..PyGetSetDef$GT$$GT$17h96ff7ee3df0437a8E', symObjAddr: 0x4824, symBinAddr: 0x3C848, symSize: 0x5C }
  - { offset: 0x108E41, size: 0x8, addend: 0x0, symName: '__ZN4core3ptr78drop_in_place$LT$alloc..vec..Vec$LT$pyo3_ffi..descrobject..PyMemberDef$GT$$GT$17h4fb21b6c5f42e402E', symObjAddr: 0x4880, symBinAddr: 0x3C8A4, symSize: 0x5C }
  - { offset: 0x108E70, size: 0x8, addend: 0x0, symName: '__ZN4core3ptr78drop_in_place$LT$pyo3..instance..Py$LT$pyo3..types..typeobject..PyType$GT$$GT$17h6dde8fd7f4d6fe16E', symObjAddr: 0x4900, symBinAddr: 0x3C900, symSize: 0x2C }
  - { offset: 0x108E9F, size: 0x8, addend: 0x0, symName: '__ZN4core3ptr79drop_in_place$LT$alloc..vec..Vec$LT$pyo3_ffi..methodobject..PyMethodDef$GT$$GT$17hb32fd6d3e7393717E', symObjAddr: 0x492C, symBinAddr: 0x3C92C, symSize: 0x5C }
  - { offset: 0x108ECE, size: 0x8, addend: 0x0, symName: '__ZN4core3ptr79drop_in_place$LT$pyo3..instance..Bound$LT$pyo3..types..string..PyString$GT$$GT$17h29ef2f3377d44e23E', symObjAddr: 0x49AC, symBinAddr: 0x3C988, symSize: 0x24 }
  - { offset: 0x108EFD, size: 0x8, addend: 0x0, symName: '__ZN4core3ptr80drop_in_place$LT$$u5b$pyo3..instance..Py$LT$pyo3..types..any..PyAny$GT$$u5d$$GT$17h94b45281a2b4a855E', symObjAddr: 0x49D0, symBinAddr: 0x3C9AC, symSize: 0xB4 }
  - { offset: 0x108F2C, size: 0x8, addend: 0x0, symName: '__ZN4core3ptr80drop_in_place$LT$alloc..raw_vec..RawVec$LT$pyo3_ffi..object..PyType_Slot$GT$$GT$17h8e70f1f8bfc06bb5E', symObjAddr: 0x4A84, symBinAddr: 0x3CA60, symSize: 0x24 }
  - { offset: 0x108F5B, size: 0x8, addend: 0x0, symName: '__ZN4core3ptr80drop_in_place$LT$pyo3..instance..Py$LT$pyo3..exceptions..PyBaseException$GT$$GT$17hcc62b3cc65ee6c55E', symObjAddr: 0x4AF0, symBinAddr: 0x3CA84, symSize: 0x2C }
  - { offset: 0x108F8A, size: 0x8, addend: 0x0, symName: '__ZN4core3ptr81drop_in_place$LT$core..option..Option$LT$pyo3..err..err_state..PyErrState$GT$$GT$17hcd1fb0bf4c7e61d9E', symObjAddr: 0x4B40, symBinAddr: 0x3CAB0, symSize: 0x44 }
  - { offset: 0x108FB9, size: 0x8, addend: 0x0, symName: '__ZN4core3ptr81drop_in_place$LT$pyo3..instance..Bound$LT$pyo3..types..typeobject..PyType$GT$$GT$17h5b2764e1927a3878E', symObjAddr: 0x4BCC, symBinAddr: 0x3CAF4, symSize: 0x24 }
  - { offset: 0x108FE8, size: 0x8, addend: 0x0, symName: '__ZN4core3ptr82drop_in_place$LT$pyo3..instance..Py$LT$pyo3..types..traceback..PyTraceback$GT$$GT$17h8222d153a43eb2fbE', symObjAddr: 0x4BF0, symBinAddr: 0x3CB18, symSize: 0x2C }
  - { offset: 0x109017, size: 0x8, addend: 0x0, symName: '__ZN4core3ptr83drop_in_place$LT$pyo3..instance..Bound$LT$pyo3..exceptions..PyBaseException$GT$$GT$17h43431d94c76e70a3E', symObjAddr: 0x4C1C, symBinAddr: 0x3CB44, symSize: 0x24 }
  - { offset: 0x109046, size: 0x8, addend: 0x0, symName: '__ZN4core3ptr84drop_in_place$LT$pyo3..instance..Bound$LT$pyo3..types..function..PyCFunction$GT$$GT$17hd14646c34440d2e9E', symObjAddr: 0x4C88, symBinAddr: 0x3CB68, symSize: 0x24 }
  - { offset: 0x109075, size: 0x8, addend: 0x0, symName: '__ZN4core3ptr85drop_in_place$LT$$u5b$pyo3..pyclass..create_type_object..GetSetDefDestructor$u5d$$GT$17h00be6ca166ee9c14E', symObjAddr: 0x4CAC, symBinAddr: 0x3CB8C, symSize: 0xB4 }
  - { offset: 0x1090A4, size: 0x8, addend: 0x0, symName: '__ZN4core3ptr85drop_in_place$LT$alloc..boxed..Box$LT$std..sys..pal..unix..sync..mutex..Mutex$GT$$GT$17h2102e4eece50ad60E', symObjAddr: 0x4D60, symBinAddr: 0x3CC40, symSize: 0x60 }
  - { offset: 0x1090D3, size: 0x8, addend: 0x0, symName: '__ZN4core3ptr85drop_in_place$LT$alloc..raw_vec..RawVec$LT$pyo3_ffi..descrobject..PyGetSetDef$GT$$GT$17hc6cf90788fe47cdeE', symObjAddr: 0x4DC0, symBinAddr: 0x3CCA0, symSize: 0x24 }
  - { offset: 0x109102, size: 0x8, addend: 0x0, symName: '__ZN4core3ptr85drop_in_place$LT$alloc..raw_vec..RawVec$LT$pyo3_ffi..descrobject..PyMemberDef$GT$$GT$17had177ffabeebac9fE', symObjAddr: 0x4DE4, symBinAddr: 0x3CCC4, symSize: 0x24 }
  - { offset: 0x109131, size: 0x8, addend: 0x0, symName: '__ZN4core3ptr85drop_in_place$LT$pyo3..instance..Bound$LT$pyo3..types..traceback..PyTraceback$GT$$GT$17hfb1894ba34c6796bE', symObjAddr: 0x4E74, symBinAddr: 0x3CCE8, symSize: 0x24 }
  - { offset: 0x109160, size: 0x8, addend: 0x0, symName: '__ZN4core3ptr86drop_in_place$LT$alloc..raw_vec..RawVec$LT$pyo3_ffi..methodobject..PyMethodDef$GT$$GT$17h573f7cce9c958243E', symObjAddr: 0x4E98, symBinAddr: 0x3CD0C, symSize: 0x24 }
  - { offset: 0x10918F, size: 0x8, addend: 0x0, symName: '__ZN4core3ptr91drop_in_place$LT$$u5b$pyo3..instance..Py$LT$pyo3..types..any..PyAny$GT$$u3b$$u20$1$u5d$$GT$17h24af145c43522a06E', symObjAddr: 0x4EBC, symBinAddr: 0x3CD30, symSize: 0xA4 }
  - { offset: 0x1091BE, size: 0x8, addend: 0x0, symName: '__ZN4core3ptr91drop_in_place$LT$alloc..boxed..Box$LT$dyn$u20$core..any..Any$u2b$core..marker..Send$GT$$GT$17hb3c66ea3bf502973E', symObjAddr: 0x5004, symBinAddr: 0x3CDD4, symSize: 0x80 }
  - { offset: 0x1091ED, size: 0x8, addend: 0x0, symName: '__ZN4core3ptr95drop_in_place$LT$core..cell..RefMut$LT$alloc..vec..Vec$LT$std..thread..id..ThreadId$GT$$GT$$GT$17h60d9183f1e9be195E', symObjAddr: 0x5294, symBinAddr: 0x3CE54, symSize: 0x24 }
  - { offset: 0x10921C, size: 0x8, addend: 0x0, symName: '__ZN4core3ptr96drop_in_place$LT$alloc..boxed..Box$LT$pyo3..pyclass..create_type_object..GetterAndSetter$GT$$GT$17hb89d75ee388726b2E', symObjAddr: 0x52B8, symBinAddr: 0x3CE78, symSize: 0x2C }
  - { offset: 0x10924B, size: 0x8, addend: 0x0, symName: '__ZN4core3ptr97drop_in_place$LT$core..result..Result$LT$alloc..borrow..Cow$LT$str$GT$$C$pyo3..err..PyErr$GT$$GT$17h58ead6715df9b856E', symObjAddr: 0x52E4, symBinAddr: 0x3CEA4, symSize: 0x50 }
  - { offset: 0x10927A, size: 0x8, addend: 0x0, symName: '__ZN4core3ptr98drop_in_place$LT$alloc..vec..Vec$LT$pyo3..pyclass..create_type_object..GetSetDefDestructor$GT$$GT$17hde2fe407193cf22cE', symObjAddr: 0x5334, symBinAddr: 0x3CEF4, symSize: 0x5C }
  - { offset: 0x1092A9, size: 0x8, addend: 0x0, symName: '__ZN4core3ptr98drop_in_place$LT$core..option..Option$LT$pyo3..instance..Py$LT$pyo3..types..any..PyAny$GT$$GT$$GT$17h54851552a3a3ddecE', symObjAddr: 0x5390, symBinAddr: 0x3CF50, symSize: 0x44 }
  - { offset: 0x109403, size: 0x8, addend: 0x0, symName: __ZN4core6marker5FnPtr4addr17hc5b752a4045aa5c0E, symObjAddr: 0x5880, symBinAddr: 0x3CFF0, symSize: 0x14 }
  - { offset: 0x10B1A6, size: 0x8, addend: 0x0, symName: '__ZN102_$LT$core..iter..adapters..map..Map$LT$I$C$F$GT$$u20$as$u20$core..iter..traits..iterator..Iterator$GT$4next17h44b715367d53ec6bE', symObjAddr: 0xE0, symBinAddr: 0x39C18, symSize: 0xB4 }
  - { offset: 0x10B242, size: 0x8, addend: 0x0, symName: '__ZN102_$LT$core..iter..adapters..map..Map$LT$I$C$F$GT$$u20$as$u20$core..iter..traits..iterator..Iterator$GT$9size_hint17hf14084580b092aadE', symObjAddr: 0x2AC, symBinAddr: 0x39CCC, symSize: 0x24 }
  - { offset: 0x10B2FE, size: 0x8, addend: 0x0, symName: __ZN4core4iter6traits8iterator8Iterator7collect17h53d74ebaf70123ebE, symObjAddr: 0x54B0, symBinAddr: 0x3CF94, symSize: 0x14 }
  - { offset: 0x10B34B, size: 0x8, addend: 0x0, symName: '__ZN63_$LT$I$u20$as$u20$core..iter..traits..collect..IntoIterator$GT$9into_iter17hcac863771697e41fE', symObjAddr: 0x6D9C, symBinAddr: 0x3D194, symSize: 0x30 }
  - { offset: 0x10B3DE, size: 0x8, addend: 0x0, symName: '__ZN4core3ops8function6FnOnce40call_once$u7b$$u7b$vtable.shim$u7d$$u7d$17h0722e0f86dea7b3cE', symObjAddr: 0x1888, symBinAddr: 0x3A8FC, symSize: 0x24 }
  - { offset: 0x10B422, size: 0x8, addend: 0x0, symName: '__ZN4core3ops8function6FnOnce40call_once$u7b$$u7b$vtable.shim$u7d$$u7d$17h19b44643c14927bdE', symObjAddr: 0x18D4, symBinAddr: 0x3A920, symSize: 0x24 }
  - { offset: 0x10B466, size: 0x8, addend: 0x0, symName: '__ZN4core3ops8function6FnOnce40call_once$u7b$$u7b$vtable.shim$u7d$$u7d$17h1d9dd8ff9352d6beE', symObjAddr: 0x1920, symBinAddr: 0x3A944, symSize: 0x24 }
  - { offset: 0x10B4AA, size: 0x8, addend: 0x0, symName: '__ZN4core3ops8function6FnOnce40call_once$u7b$$u7b$vtable.shim$u7d$$u7d$17h2ab392ec468eca1dE', symObjAddr: 0x1968, symBinAddr: 0x3A968, symSize: 0x30 }
  - { offset: 0x10B4EA, size: 0x8, addend: 0x0, symName: '__ZN4core3ops8function6FnOnce40call_once$u7b$$u7b$vtable.shim$u7d$$u7d$17h3243e59b7985e494E', symObjAddr: 0x19E8, symBinAddr: 0x3A998, symSize: 0x30 }
  - { offset: 0x10B52E, size: 0x8, addend: 0x0, symName: '__ZN4core3ops8function6FnOnce40call_once$u7b$$u7b$vtable.shim$u7d$$u7d$17h346a3f1c7995fc7fE', symObjAddr: 0x1A18, symBinAddr: 0x3A9C8, symSize: 0x40 }
  - { offset: 0x10B56E, size: 0x8, addend: 0x0, symName: '__ZN4core3ops8function6FnOnce40call_once$u7b$$u7b$vtable.shim$u7d$$u7d$17h47275c43ce443affE', symObjAddr: 0x1A58, symBinAddr: 0x3AA08, symSize: 0x30 }
  - { offset: 0x10B5B2, size: 0x8, addend: 0x0, symName: '__ZN4core3ops8function6FnOnce40call_once$u7b$$u7b$vtable.shim$u7d$$u7d$17h4f19faeb13ec9fcbE', symObjAddr: 0x1A88, symBinAddr: 0x3AA38, symSize: 0x24 }
  - { offset: 0x10B5F6, size: 0x8, addend: 0x0, symName: '__ZN4core3ops8function6FnOnce40call_once$u7b$$u7b$vtable.shim$u7d$$u7d$17h5038dbff9d59a636E', symObjAddr: 0x1AAC, symBinAddr: 0x3AA5C, symSize: 0x30 }
  - { offset: 0x10B63A, size: 0x8, addend: 0x0, symName: '__ZN4core3ops8function6FnOnce40call_once$u7b$$u7b$vtable.shim$u7d$$u7d$17h56e3b8b70f793a7fE', symObjAddr: 0x1ADC, symBinAddr: 0x3AA8C, symSize: 0x30 }
  - { offset: 0x10B67A, size: 0x8, addend: 0x0, symName: '__ZN4core3ops8function6FnOnce40call_once$u7b$$u7b$vtable.shim$u7d$$u7d$17h5a7566c67d41525eE', symObjAddr: 0x1B0C, symBinAddr: 0x3AABC, symSize: 0x24 }
  - { offset: 0x10B6BE, size: 0x8, addend: 0x0, symName: '__ZN4core3ops8function6FnOnce40call_once$u7b$$u7b$vtable.shim$u7d$$u7d$17h80f58c64bad82742E', symObjAddr: 0x1C14, symBinAddr: 0x3AAE0, symSize: 0x30 }
  - { offset: 0x10B702, size: 0x8, addend: 0x0, symName: '__ZN4core3ops8function6FnOnce40call_once$u7b$$u7b$vtable.shim$u7d$$u7d$17h87c81390f433460cE', symObjAddr: 0x1C8C, symBinAddr: 0x3AB10, symSize: 0x38 }
  - { offset: 0x10B746, size: 0x8, addend: 0x0, symName: '__ZN4core3ops8function6FnOnce40call_once$u7b$$u7b$vtable.shim$u7d$$u7d$17haf7e832b92e65fabE', symObjAddr: 0x1D3C, symBinAddr: 0x3AB48, symSize: 0x24 }
  - { offset: 0x10B78A, size: 0x8, addend: 0x0, symName: '__ZN4core3ops8function6FnOnce40call_once$u7b$$u7b$vtable.shim$u7d$$u7d$17hb50c68c158470ebdE', symObjAddr: 0x1D60, symBinAddr: 0x3AB6C, symSize: 0x30 }
  - { offset: 0x10B7CE, size: 0x8, addend: 0x0, symName: '__ZN4core3ops8function6FnOnce40call_once$u7b$$u7b$vtable.shim$u7d$$u7d$17hbb8a77aa5c761db0E', symObjAddr: 0x1D90, symBinAddr: 0x3AB9C, symSize: 0x24 }
  - { offset: 0x10B812, size: 0x8, addend: 0x0, symName: '__ZN4core3ops8function6FnOnce40call_once$u7b$$u7b$vtable.shim$u7d$$u7d$17he666b56a57019039E', symObjAddr: 0x1DFC, symBinAddr: 0x3ABC0, symSize: 0x38 }
  - { offset: 0x10B856, size: 0x8, addend: 0x0, symName: '__ZN4core3ops8function6FnOnce40call_once$u7b$$u7b$vtable.shim$u7d$$u7d$17hff7fe99609dad0e5E', symObjAddr: 0x1EAC, symBinAddr: 0x3ABF8, symSize: 0x24 }
  - { offset: 0x10B89A, size: 0x8, addend: 0x0, symName: __ZN4core3ops8function6FnOnce9call_once17h085cadccc625fc3fE, symObjAddr: 0x1EFC, symBinAddr: 0x3AC1C, symSize: 0x58 }
  - { offset: 0x10B8DA, size: 0x8, addend: 0x0, symName: __ZN4core3ops8function6FnOnce9call_once17h0f8b6f371d135b10E, symObjAddr: 0x1F54, symBinAddr: 0x3AC74, symSize: 0x4C }
  - { offset: 0x10B91E, size: 0x8, addend: 0x0, symName: __ZN4core3ops8function6FnOnce9call_once17h19c3a3c710a558bcE, symObjAddr: 0x1FF8, symBinAddr: 0x3ACC0, symSize: 0x24 }
  - { offset: 0x10B962, size: 0x8, addend: 0x0, symName: __ZN4core3ops8function6FnOnce9call_once17h1dcf6deea72e822dE, symObjAddr: 0x201C, symBinAddr: 0x3ACE4, symSize: 0x24 }
  - { offset: 0x10B9A6, size: 0x8, addend: 0x0, symName: __ZN4core3ops8function6FnOnce9call_once17h2d0b86deb7b0416fE, symObjAddr: 0x2140, symBinAddr: 0x3AD08, symSize: 0x58 }
  - { offset: 0x10B9EA, size: 0x8, addend: 0x0, symName: __ZN4core3ops8function6FnOnce9call_once17h2f643b1f079074d4E, symObjAddr: 0x2198, symBinAddr: 0x3AD60, symSize: 0x2C }
  - { offset: 0x10BA2E, size: 0x8, addend: 0x0, symName: __ZN4core3ops8function6FnOnce9call_once17h35a266cd8a2a814aE, symObjAddr: 0x21C4, symBinAddr: 0x3AD8C, symSize: 0x24 }
  - { offset: 0x10BA72, size: 0x8, addend: 0x0, symName: __ZN4core3ops8function6FnOnce9call_once17h35b0f959aae3240aE, symObjAddr: 0x21E8, symBinAddr: 0x3ADB0, symSize: 0x2C }
  - { offset: 0x10BAB6, size: 0x8, addend: 0x0, symName: __ZN4core3ops8function6FnOnce9call_once17h3900efbb2feade9aE, symObjAddr: 0x2214, symBinAddr: 0x3ADDC, symSize: 0x4C }
  - { offset: 0x10BAFA, size: 0x8, addend: 0x0, symName: __ZN4core3ops8function6FnOnce9call_once17h3aa4764f2be09496E, symObjAddr: 0x2260, symBinAddr: 0x3AE28, symSize: 0x24 }
  - { offset: 0x10BB3E, size: 0x8, addend: 0x0, symName: __ZN4core3ops8function6FnOnce9call_once17h40ce4e65950bd869E, symObjAddr: 0x2284, symBinAddr: 0x3AE4C, symSize: 0x44 }
  - { offset: 0x10BB82, size: 0x8, addend: 0x0, symName: __ZN4core3ops8function6FnOnce9call_once17h4a4b726b93cf1386E, symObjAddr: 0x22C8, symBinAddr: 0x3AE90, symSize: 0x4C }
  - { offset: 0x10BBC2, size: 0x8, addend: 0x0, symName: __ZN4core3ops8function6FnOnce9call_once17h6429efa619d870e6E, symObjAddr: 0x2340, symBinAddr: 0x3AEDC, symSize: 0x24 }
  - { offset: 0x10BC06, size: 0x8, addend: 0x0, symName: __ZN4core3ops8function6FnOnce9call_once17h67dfeafbeb4af97eE, symObjAddr: 0x2364, symBinAddr: 0x3AF00, symSize: 0x20 }
  - { offset: 0x10BC4A, size: 0x8, addend: 0x0, symName: __ZN4core3ops8function6FnOnce9call_once17h91279ed7064b4bbfE, symObjAddr: 0x23A8, symBinAddr: 0x3AF20, symSize: 0x5C }
  - { offset: 0x10BC8E, size: 0x8, addend: 0x0, symName: __ZN4core3ops8function6FnOnce9call_once17ha3821c9d2a2d5c50E, symObjAddr: 0x2404, symBinAddr: 0x3AF7C, symSize: 0x2C }
  - { offset: 0x10BCEF, size: 0x8, addend: 0x0, symName: __ZN4core3ops8function6FnOnce9call_once17ha7f208cb4b977889E, symObjAddr: 0x2430, symBinAddr: 0x3AFA8, symSize: 0x24 }
  - { offset: 0x10BD33, size: 0x8, addend: 0x0, symName: __ZN4core3ops8function6FnOnce9call_once17haa49ca4076088e92E, symObjAddr: 0x2454, symBinAddr: 0x3AFCC, symSize: 0x40 }
  - { offset: 0x10BD78, size: 0x8, addend: 0x0, symName: __ZN4core3ops8function6FnOnce9call_once17hcf19b0ca6561c35fE, symObjAddr: 0x24F4, symBinAddr: 0x3B00C, symSize: 0x34 }
  - { offset: 0x10BDBC, size: 0x8, addend: 0x0, symName: __ZN4core3ops8function6FnOnce9call_once17hd6cc6753071f2e24E, symObjAddr: 0x2528, symBinAddr: 0x3B040, symSize: 0x2C }
  - { offset: 0x10BE00, size: 0x8, addend: 0x0, symName: __ZN4core3ops8function6FnOnce9call_once17hec7eef5b1b681f50E, symObjAddr: 0x2554, symBinAddr: 0x3B06C, symSize: 0x4C }
  - { offset: 0x10BE40, size: 0x8, addend: 0x0, symName: __ZN4core3ops8function6FnOnce9call_once17hf73355e4cd561c95E, symObjAddr: 0x25A0, symBinAddr: 0x3B0B8, symSize: 0x1C }
  - { offset: 0x10CAE6, size: 0x8, addend: 0x0, symName: __ZN4core3mem4drop17hc363cc4fc550a4f2E, symObjAddr: 0x1548, symBinAddr: 0x3A744, symSize: 0x2C }
  - { offset: 0x10CB4C, size: 0x8, addend: 0x0, symName: __ZN4core3mem4take17h068c7a8f735bc415E, symObjAddr: 0x1574, symBinAddr: 0x3A770, symSize: 0x54 }
  - { offset: 0x10CBDC, size: 0x8, addend: 0x0, symName: __ZN4core3mem4take17h1a2728b0a9a2f083E, symObjAddr: 0x15C8, symBinAddr: 0x3A7C4, symSize: 0x54 }
  - { offset: 0x10CC6C, size: 0x8, addend: 0x0, symName: __ZN4core3mem4take17h97717981dc8a8a18E, symObjAddr: 0x161C, symBinAddr: 0x3A818, symSize: 0x54 }
  - { offset: 0x10CCFC, size: 0x8, addend: 0x0, symName: __ZN4core3mem4take17hc78268b735af9cb4E, symObjAddr: 0x1670, symBinAddr: 0x3A86C, symSize: 0x54 }
  - { offset: 0x10CD59, size: 0x8, addend: 0x0, symName: __ZN4core3mem6forget17h2ffd23845bf9819eE, symObjAddr: 0x16C4, symBinAddr: 0x3A8C0, symSize: 0x14 }
  - { offset: 0x10CD8A, size: 0x8, addend: 0x0, symName: __ZN4core3mem6forget17hde9257b01f141b05E, symObjAddr: 0x16EC, symBinAddr: 0x3A8D4, symSize: 0x14 }
  - { offset: 0x10CDBB, size: 0x8, addend: 0x0, symName: __ZN4core3mem6forget17he0c6037634dec87fE, symObjAddr: 0x1700, symBinAddr: 0x3A8E8, symSize: 0x14 }
  - { offset: 0x10D170, size: 0x8, addend: 0x0, symName: '__ZN42_$LT$$RF$T$u20$as$u20$core..fmt..Debug$GT$3fmt17ha6dea4d991f19e4dE', symObjAddr: 0x934, symBinAddr: 0x39DA4, symSize: 0x30 }
  - { offset: 0x10D1BC, size: 0x8, addend: 0x0, symName: '__ZN45_$LT$$LP$$RP$$u20$as$u20$core..fmt..Debug$GT$3fmt17hfecb7247f494173eE', symObjAddr: 0x9C4, symBinAddr: 0x39DD4, symSize: 0x40 }
  - { offset: 0x10D2E4, size: 0x8, addend: 0x0, symName: '__ZN4core3fmt8builders11DebugStruct10field_with28_$u7b$$u7b$closure$u7d$$u7d$17heeaf1b86d98d4c1fE', symObjAddr: 0xD10, symBinAddr: 0x3A008, symSize: 0x354 }
  - { offset: 0x10D7DF, size: 0x8, addend: 0x0, symName: '__ZN54_$LT$$BP$const$u20$T$u20$as$u20$core..fmt..Pointer$GT$3fmt28_$u7b$$u7b$closure$u7d$$u7d$17h757af84d13209560E', symObjAddr: 0x6CB0, symBinAddr: 0x3D14C, symSize: 0x34 }
  - { offset: 0x10DC0E, size: 0x8, addend: 0x0, symName: '__ZN53_$LT$core..fmt..Error$u20$as$u20$core..fmt..Debug$GT$3fmt17h7d1f57f14426d2c1E', symObjAddr: 0x6C70, symBinAddr: 0x3D10C, symSize: 0x40 }
  - { offset: 0x10DC54, size: 0x8, addend: 0x0, symName: __ZN4core3cmp9PartialEq2ne17h2a670001b9b2973bE, symObjAddr: 0xC34, symBinAddr: 0x39F2C, symSize: 0x30 }
  - { offset: 0x10DD02, size: 0x8, addend: 0x0, symName: '__ZN4core5slice29_$LT$impl$u20$$u5b$T$u5d$$GT$8contains17h66eba1efff8f80aaE', symObjAddr: 0x5824, symBinAddr: 0x3CFA8, symSize: 0x48 }
  - { offset: 0x10DDD4, size: 0x8, addend: 0x0, symName: '__ZN53_$LT$T$u20$as$u20$core..slice..cmp..SliceContains$GT$14slice_contains17h2bd0e58d77194cbfE', symObjAddr: 0x6BF8, symBinAddr: 0x3D094, symSize: 0x78 }
  - { offset: 0x10E0C9, size: 0x8, addend: 0x0, symName: '__ZN4pyo33err5impls94_$LT$impl$u20$pyo3..err..err_state..PyErrArguments$u20$for$u20$alloc..ffi..c_str..NulError$GT$9arguments17h7795c17f323b1d85E', symObjAddr: 0x6AF4, symBinAddr: 0x3D004, symSize: 0x6C }
  - { offset: 0x10E714, size: 0x8, addend: 0x0, symName: '__ZN74_$LT$pyo3..types..num..PyLong$u20$as$u20$pyo3..type_object..PyTypeInfo$GT$16is_type_of_bound17h225a7155d5c73913E', symObjAddr: 0x6EB0, symBinAddr: 0x3D26C, symSize: 0x30 }
  - { offset: 0x10EC5A, size: 0x8, addend: 0x0, symName: '__ZN52_$LT$T$u20$as$u20$pyo3..type_object..PyTypeCheck$GT$10type_check17hf05bed48ba276f41E', symObjAddr: 0x6BD4, symBinAddr: 0x3D070, symSize: 0x24 }
  - { offset: 0x10F454, size: 0x8, addend: 0x0, symName: __ZN8pyo3_ffi10listobject12PyList_Check17h98263093de697ff7E, symObjAddr: 0x6FE0, symBinAddr: 0x3D310, symSize: 0x30 }
  - { offset: 0x10F486, size: 0x8, addend: 0x0, symName: __ZN8pyo3_ffi8pyerrors22PyExceptionClass_Check17ha785bed49ac7aed5E, symObjAddr: 0x7010, symBinAddr: 0x3D340, symSize: 0x60 }
  - { offset: 0x10F4B2, size: 0x8, addend: 0x0, symName: __ZN8pyo3_ffi8pyerrors25PyExceptionInstance_Check17h4fb2307317a63dd2E, symObjAddr: 0x7070, symBinAddr: 0x3D3A0, symSize: 0x30 }
  - { offset: 0x10FA09, size: 0x8, addend: 0x0, symName: '__ZN84_$LT$std..sys..sync..once_box..OnceBox$LT$T$GT$$u20$as$u20$core..ops..drop..Drop$GT$4drop17hed6b022f125fde64E', symObjAddr: 0x6EE0, symBinAddr: 0x3D29C, symSize: 0x74 }
  - { offset: 0x10FB9B, size: 0x8, addend: 0x0, symName: '__ZN66_$LT$std..thread..id..ThreadId$u20$as$u20$core..cmp..PartialEq$GT$2eq17hd6a619bed322b0d6E', symObjAddr: 0x6E28, symBinAddr: 0x3D220, symSize: 0x2C }
  - { offset: 0x11012D, size: 0x8, addend: 0x0, symName: '__ZN3std3sys4sync8once_box16OnceBox$LT$T$GT$10initialize17h69a8869460bb8f2dE', symObjAddr: 0x748, symBinAddr: 0x8AF34, symSize: 0xD8 }
  - { offset: 0x110304, size: 0x8, addend: 0x0, symName: '__ZN3std3sys4sync8once_box16OnceBox$LT$T$GT$11get_or_init17h34fd5e4c8a256c75E', symObjAddr: 0x820, symBinAddr: 0x39CF0, symSize: 0xB4 }
  - { offset: 0x1104EE, size: 0x8, addend: 0x0, symName: __ZN4core3fmt8builders11DebugStruct10field_with17h83c1ec8efaaf1682E, symObjAddr: 0xC64, symBinAddr: 0x39F5C, symSize: 0xAC }
  - { offset: 0x1105F7, size: 0x8, addend: 0x0, symName: __ZN4core3fmt9Arguments17from_str_nonconst17h969566dd179f506bE, symObjAddr: 0x1064, symBinAddr: 0x3A35C, symSize: 0x28 }
  - { offset: 0x110685, size: 0x8, addend: 0x0, symName: __ZN4core3fmt9Arguments23as_statically_known_str17h8775532a7cce18bdE, symObjAddr: 0x108C, symBinAddr: 0x3A384, symSize: 0x104 }
  - { offset: 0x110793, size: 0x8, addend: 0x0, symName: __ZN4core3fmt9Arguments3new17h0208400db8b17245E, symObjAddr: 0x1190, symBinAddr: 0x3A488, symSize: 0x1C }
  - { offset: 0x1107F9, size: 0x8, addend: 0x0, symName: __ZN4core3fmt9Arguments3new17h0a371557ad7836b2E, symObjAddr: 0x11AC, symBinAddr: 0x3A4A4, symSize: 0x1C }
  - { offset: 0x11085F, size: 0x8, addend: 0x0, symName: __ZN4core3fmt9Arguments3new17h149f0a7568e572d7E, symObjAddr: 0x11E4, symBinAddr: 0x3A4C0, symSize: 0x1C }
  - { offset: 0x1108AB, size: 0x8, addend: 0x0, symName: __ZN4core3fmt9Arguments3new17h25b7524b1a5cc83bE, symObjAddr: 0x1200, symBinAddr: 0x3A4DC, symSize: 0x1C }
  - { offset: 0x1108F7, size: 0x8, addend: 0x0, symName: __ZN4core3fmt9Arguments3new17h32baa901ff34e5f4E, symObjAddr: 0x121C, symBinAddr: 0x3A4F8, symSize: 0x1C }
  - { offset: 0x110977, size: 0x8, addend: 0x0, symName: __ZN4core3fmt9Arguments3new17h5fbb9a684473341bE, symObjAddr: 0x1254, symBinAddr: 0x3A514, symSize: 0x1C }
  - { offset: 0x1109C3, size: 0x8, addend: 0x0, symName: __ZN4core3fmt9Arguments3new17h73dcac6b82297e9cE, symObjAddr: 0x1270, symBinAddr: 0x3A530, symSize: 0x1C }
  - { offset: 0x110A0F, size: 0x8, addend: 0x0, symName: __ZN4core3fmt9Arguments3new17h761a6ebc2e26486dE, symObjAddr: 0x128C, symBinAddr: 0x3A54C, symSize: 0x1C }
  - { offset: 0x110A75, size: 0x8, addend: 0x0, symName: __ZN4core3fmt9Arguments3new17h8d39016209fac1a6E, symObjAddr: 0x12C4, symBinAddr: 0x3A568, symSize: 0x1C }
  - { offset: 0x110ACE, size: 0x8, addend: 0x0, symName: __ZN4core3fmt9Arguments3new17h9dea75e906186ca8E, symObjAddr: 0x12FC, symBinAddr: 0x3A584, symSize: 0x1C }
  - { offset: 0x110B1A, size: 0x8, addend: 0x0, symName: __ZN4core3fmt9Arguments3new17h9fd53b55842be4cbE, symObjAddr: 0x1318, symBinAddr: 0x3A5A0, symSize: 0x1C }
  - { offset: 0x110B4C, size: 0x8, addend: 0x0, symName: __ZN4core3fmt9Arguments3new17ha226dbdec15b4c7eE, symObjAddr: 0x1334, symBinAddr: 0x3A5BC, symSize: 0x1C }
  - { offset: 0x110B98, size: 0x8, addend: 0x0, symName: __ZN4core3fmt9Arguments3new17hbfd9963153fedf71E, symObjAddr: 0x136C, symBinAddr: 0x3A5D8, symSize: 0x1C }
  - { offset: 0x110BE4, size: 0x8, addend: 0x0, symName: __ZN4core3fmt9Arguments3new17hcc1d685a781b5efcE, symObjAddr: 0x1388, symBinAddr: 0x3A5F4, symSize: 0x1C }
  - { offset: 0x110C64, size: 0x8, addend: 0x0, symName: __ZN4core3fmt9Arguments3new17he89d7576de9ba41dE, symObjAddr: 0x13DC, symBinAddr: 0x3A610, symSize: 0x1C }
  - { offset: 0x110CB0, size: 0x8, addend: 0x0, symName: __ZN4core3fmt9Arguments3new17he9f318acd9225333E, symObjAddr: 0x13F8, symBinAddr: 0x3A62C, symSize: 0x1C }
  - { offset: 0x110D30, size: 0x8, addend: 0x0, symName: __ZN4core3fmt9Arguments3new17hecff3277cd33d6bfE, symObjAddr: 0x1430, symBinAddr: 0x3A648, symSize: 0x1C }
  - { offset: 0x110D96, size: 0x8, addend: 0x0, symName: __ZN4core3fmt9Arguments3new17hf4f06270ce8901efE, symObjAddr: 0x1468, symBinAddr: 0x3A664, symSize: 0x1C }
  - { offset: 0x110DC8, size: 0x8, addend: 0x0, symName: __ZN4core3fmt9Arguments8from_str17h92a1f34f3d21e143E, symObjAddr: 0x1484, symBinAddr: 0x3A680, symSize: 0x20 }
  - { offset: 0x110DEB, size: 0x8, addend: 0x0, symName: __ZN4core3fmt9Formatter9write_fmt17h53868ed1288b2f01E, symObjAddr: 0x14A4, symBinAddr: 0x3A6A0, symSize: 0xA4 }
  - { offset: 0x110FEC, size: 0x8, addend: 0x0, symName: __ZN5alloc3ffi5c_str7CString3new17h4d585b576c7254c1E, symObjAddr: 0x6CE4, symBinAddr: 0x3D180, symSize: 0x14 }
  - { offset: 0x111430, size: 0x8, addend: 0x0, symName: '__ZN92_$LT$hashbrown..map..Iter$LT$K$C$V$GT$$u20$as$u20$core..iter..traits..iterator..Iterator$GT$4next17h0849bbd5aefdbc40E', symObjAddr: 0x70A0, symBinAddr: 0x3D3D0, symSize: 0xF0 }
  - { offset: 0x1116BB, size: 0x8, addend: 0x0, symName: '__ZN9hashbrown3map11make_hasher28_$u7b$$u7b$closure$u7d$$u7d$17h806ec954974b6ed8E', symObjAddr: 0x72B8, symBinAddr: 0x3D5E8, symSize: 0x3C }
  - { offset: 0x111A44, size: 0x8, addend: 0x0, symName: '__ZN9hashbrown11rustc_entry62_$LT$impl$u20$hashbrown..map..HashMap$LT$K$C$V$C$S$C$A$GT$$GT$11rustc_entry17h526364cf23f57a64E', symObjAddr: 0x7190, symBinAddr: 0x3D4C0, symSize: 0x128 }
  - { offset: 0x111C36, size: 0x8, addend: 0x0, symName: '__ZN9hashbrown3map28HashMap$LT$K$C$V$C$S$C$A$GT$4iter17hc54c0dadf80b10cdE', symObjAddr: 0x72F4, symBinAddr: 0x3D624, symSize: 0xA8 }
  - { offset: 0x112C7E, size: 0x8, addend: 0x0, symName: '__ZN45_$LT$T$u20$as$u20$alloc..string..ToString$GT$9to_string17h800a565cc7c8fa29E', symObjAddr: 0x4C, symBinAddr: 0x3D6CC, symSize: 0x24 }
  - { offset: 0x112CBB, size: 0x8, addend: 0x0, symName: '__ZN49_$LT$T$u20$as$u20$alloc..string..SpecToString$GT$14spec_to_string17h2dff9a79db5d626eE', symObjAddr: 0xCC, symBinAddr: 0x3D6F0, symSize: 0xF4 }
  - { offset: 0x112F2F, size: 0x8, addend: 0x0, symName: '__ZN63_$LT$alloc..alloc..Global$u20$as$u20$core..alloc..Allocator$GT$10deallocate17h59d8da551bfccbbaE', symObjAddr: 0x3F94, symBinAddr: 0x3EC28, symSize: 0x58 }
  - { offset: 0x112FFD, size: 0x8, addend: 0x0, symName: '__ZN63_$LT$alloc..alloc..Global$u20$as$u20$core..alloc..Allocator$GT$6shrink17h1e7ed2cdf2a9adf3E', symObjAddr: 0x3FEC, symBinAddr: 0x3EC80, symSize: 0x44 }
  - { offset: 0x11308E, size: 0x8, addend: 0x0, symName: '__ZN63_$LT$alloc..alloc..Global$u20$as$u20$core..alloc..Allocator$GT$8allocate17h3dfa9eae45b150ffE', symObjAddr: 0x4030, symBinAddr: 0x3ECC4, symSize: 0x40 }
  - { offset: 0x1130FA, size: 0x8, addend: 0x0, symName: __ZN5alloc5alloc15exchange_malloc17h9c5b7d7cfa74b182E, symObjAddr: 0x3A10, symBinAddr: 0x3E6E0, symSize: 0xB0 }
  - { offset: 0x1137A2, size: 0x8, addend: 0x0, symName: __ZN4core3ptr10swap_chunk17h097f71b1363f1336E, symObjAddr: 0x534, symBinAddr: 0x3D8CC, symSize: 0x3C }
  - { offset: 0x1137DB, size: 0x8, addend: 0x0, symName: __ZN4core3ptr10swap_chunk17h31ee6efc218eabdeE, symObjAddr: 0x570, symBinAddr: 0x3D908, symSize: 0x3C }
  - { offset: 0x113814, size: 0x8, addend: 0x0, symName: __ZN4core3ptr10swap_chunk17hd547bc3033e48160E, symObjAddr: 0x5AC, symBinAddr: 0x3D944, symSize: 0x3C }
  - { offset: 0x11384D, size: 0x8, addend: 0x0, symName: __ZN4core3ptr10swap_chunk17hfc967e20f7efe04cE, symObjAddr: 0x5E8, symBinAddr: 0x3D980, symSize: 0x3C }
  - { offset: 0x11388B, size: 0x8, addend: 0x0, symName: __ZN4core3ptr11write_bytes18precondition_check17h944217db3064e906E, symObjAddr: 0x624, symBinAddr: 0x3D9BC, symSize: 0x9C }
  - { offset: 0x113A91, size: 0x8, addend: 0x0, symName: __ZN4core3ptr14read_unaligned17hf1063367f4f9d5f2E, symObjAddr: 0x6C0, symBinAddr: 0x3DA58, symSize: 0x9C }
  - { offset: 0x113BDC, size: 0x8, addend: 0x0, symName: __ZN4core3ptr15write_unaligned17h603d1f8d5e8103b0E, symObjAddr: 0x75C, symBinAddr: 0x3DAF4, symSize: 0x78 }
  - { offset: 0x113C67, size: 0x8, addend: 0x0, symName: __ZN4core3ptr19copy_nonoverlapping18precondition_check17h197be7f383c39ad8E, symObjAddr: 0x7D4, symBinAddr: 0x3DB6C, symSize: 0x168 }
  - { offset: 0x113F32, size: 0x8, addend: 0x0, symName: __ZN4core3ptr25swap_nonoverlapping_bytes17hacf01e6f7c42708fE, symObjAddr: 0xB80, symBinAddr: 0x3DCD4, symSize: 0xD8 }
  - { offset: 0x1140DB, size: 0x8, addend: 0x0, symName: __ZN4core3ptr25swap_nonoverlapping_bytes25swap_nonoverlapping_short17hfcc1d78130960b70E, symObjAddr: 0xC58, symBinAddr: 0x3DDAC, symSize: 0x11C }
  - { offset: 0x114267, size: 0x8, addend: 0x0, symName: __ZN4core3ptr25swap_nonoverlapping_bytes26swap_nonoverlapping_chunks17h552b14c96b3097acE, symObjAddr: 0xD74, symBinAddr: 0x3DEC8, symSize: 0xC0 }
  - { offset: 0x1143EA, size: 0x8, addend: 0x0, symName: __ZN4core3ptr4copy18precondition_check17h1313e932d9454232E, symObjAddr: 0xE34, symBinAddr: 0x3DF88, symSize: 0x130 }
  - { offset: 0x114536, size: 0x8, addend: 0x0, symName: '__ZN4core3ptr52_$LT$impl$u20$core..cmp..PartialEq$u20$for$u20$F$GT$2eq17he81a9b07cc025e05E', symObjAddr: 0xF64, symBinAddr: 0x3E0B8, symSize: 0x50 }
  - { offset: 0x114582, size: 0x8, addend: 0x0, symName: __ZN4core3ptr7replace18precondition_check17ha70053afedd6db97E, symObjAddr: 0x1054, symBinAddr: 0x3E108, symSize: 0x9C }
  - { offset: 0x1148AC, size: 0x8, addend: 0x0, symName: '__ZN70_$LT$core..num..error..TryFromIntError$u20$as$u20$core..fmt..Debug$GT$3fmt17h8b78b06b6eeccbe2E', symObjAddr: 0x40E4, symBinAddr: 0x3ED04, symSize: 0x54 }
  - { offset: 0x115687, size: 0x8, addend: 0x0, symName: __ZN4core3cmp3Ord3max17h444992fcd60f9620E, symObjAddr: 0x3A8, symBinAddr: 0x3D7E4, symSize: 0x74 }
  - { offset: 0x1156F5, size: 0x8, addend: 0x0, symName: __ZN4core3cmp3Ord3min17h35015bd113776732E, symObjAddr: 0x490, symBinAddr: 0x3D858, symSize: 0x74 }
  - { offset: 0x115AC3, size: 0x8, addend: 0x0, symName: __ZN4core9ub_checks23maybe_is_nonoverlapping7runtime17h468089e90b524ef9E, symObjAddr: 0x1804, symBinAddr: 0x3E25C, symSize: 0xD8 }
  - { offset: 0x11638B, size: 0x8, addend: 0x0, symName: '__ZN4core7convert3num67_$LT$impl$u20$core..convert..TryFrom$LT$u64$GT$$u20$for$u20$u32$GT$8try_from17h10e8fae0a47522ddE', symObjAddr: 0x174C, symBinAddr: 0x3E1A4, symSize: 0x5C }
  - { offset: 0x1163BF, size: 0x8, addend: 0x0, symName: '__ZN4core7convert3num71_$LT$impl$u20$core..convert..TryFrom$LT$usize$GT$$u20$for$u20$isize$GT$8try_from17hf8b619008102df0cE', symObjAddr: 0x17A8, symBinAddr: 0x3E200, symSize: 0x5C }
  - { offset: 0x116416, size: 0x8, addend: 0x0, symName: '__ZN50_$LT$T$u20$as$u20$core..convert..Into$LT$U$GT$$GT$4into17h25e23dd61db5bf47E', symObjAddr: 0x38E0, symBinAddr: 0x3E650, symSize: 0x28 }
  - { offset: 0x116456, size: 0x8, addend: 0x0, symName: '__ZN50_$LT$T$u20$as$u20$core..convert..Into$LT$U$GT$$GT$4into17h97ce84838a9f5538E', symObjAddr: 0x3908, symBinAddr: 0x3E678, symSize: 0x28 }
  - { offset: 0x11649C, size: 0x8, addend: 0x0, symName: '__ZN53_$LT$T$u20$as$u20$core..convert..TryInto$LT$U$GT$$GT$8try_into17h05fe0481f47ce408E', symObjAddr: 0x3990, symBinAddr: 0x3E6A0, symSize: 0x20 }
  - { offset: 0x1164DC, size: 0x8, addend: 0x0, symName: '__ZN53_$LT$T$u20$as$u20$core..convert..TryInto$LT$U$GT$$GT$8try_into17hc78d202935c92159E', symObjAddr: 0x39F0, symBinAddr: 0x3E6C0, symSize: 0x20 }
  - { offset: 0x1172E4, size: 0x8, addend: 0x0, symName: '__ZN4pyo35types5float62_$LT$impl$u20$pyo3..conversion..ToPyObject$u20$for$u20$f32$GT$9to_object17h684110f68e2e2d26E', symObjAddr: 0x1C34, symBinAddr: 0x3E4A0, symSize: 0x3C }
  - { offset: 0x11746A, size: 0x8, addend: 0x0, symName: __ZN4pyo315internal_tricks12ptr_from_ref17h06c6498ad5638f52E, symObjAddr: 0x1940, symBinAddr: 0x3E334, symSize: 0x14 }
  - { offset: 0x11749F, size: 0x8, addend: 0x0, symName: __ZN4pyo315internal_tricks12ptr_from_ref17h23acd3e98698f205E, symObjAddr: 0x1968, symBinAddr: 0x3E348, symSize: 0x14 }
  - { offset: 0x1174D4, size: 0x8, addend: 0x0, symName: __ZN4pyo315internal_tricks12ptr_from_ref17h2dfbea8629407370E, symObjAddr: 0x197C, symBinAddr: 0x3E35C, symSize: 0x14 }
  - { offset: 0x117509, size: 0x8, addend: 0x0, symName: __ZN4pyo315internal_tricks12ptr_from_ref17h3491494b782f560aE, symObjAddr: 0x1990, symBinAddr: 0x3E370, symSize: 0x14 }
  - { offset: 0x11753E, size: 0x8, addend: 0x0, symName: __ZN4pyo315internal_tricks12ptr_from_ref17h36e7125b841d0a65E, symObjAddr: 0x19B8, symBinAddr: 0x3E384, symSize: 0x14 }
  - { offset: 0x117573, size: 0x8, addend: 0x0, symName: __ZN4pyo315internal_tricks12ptr_from_ref17h4290645badd8d06dE, symObjAddr: 0x19CC, symBinAddr: 0x3E398, symSize: 0x14 }
  - { offset: 0x1175A8, size: 0x8, addend: 0x0, symName: __ZN4pyo315internal_tricks12ptr_from_ref17h4345e2debe6dfaebE, symObjAddr: 0x19E0, symBinAddr: 0x3E3AC, symSize: 0x14 }
  - { offset: 0x1175DD, size: 0x8, addend: 0x0, symName: __ZN4pyo315internal_tricks12ptr_from_ref17h53f5b3d4e816e865E, symObjAddr: 0x1A08, symBinAddr: 0x3E3C0, symSize: 0x14 }
  - { offset: 0x117612, size: 0x8, addend: 0x0, symName: __ZN4pyo315internal_tricks12ptr_from_ref17h80469e415aeb6e27E, symObjAddr: 0x1A1C, symBinAddr: 0x3E3D4, symSize: 0x14 }
  - { offset: 0x117647, size: 0x8, addend: 0x0, symName: __ZN4pyo315internal_tricks12ptr_from_ref17h8bb02293cab69fbaE, symObjAddr: 0x1A44, symBinAddr: 0x3E3E8, symSize: 0x14 }
  - { offset: 0x11767C, size: 0x8, addend: 0x0, symName: __ZN4pyo315internal_tricks12ptr_from_ref17h9167e3ba4910919fE, symObjAddr: 0x1A58, symBinAddr: 0x3E3FC, symSize: 0x14 }
  - { offset: 0x1176B1, size: 0x8, addend: 0x0, symName: __ZN4pyo315internal_tricks12ptr_from_ref17h9bed1dd855a38f0fE, symObjAddr: 0x1A6C, symBinAddr: 0x3E410, symSize: 0x14 }
  - { offset: 0x1176E6, size: 0x8, addend: 0x0, symName: __ZN4pyo315internal_tricks12ptr_from_ref17hb1cd5ba39449ab33E, symObjAddr: 0x1A94, symBinAddr: 0x3E424, symSize: 0x14 }
  - { offset: 0x11771B, size: 0x8, addend: 0x0, symName: __ZN4pyo315internal_tricks12ptr_from_ref17hb2695b4f16001dacE, symObjAddr: 0x1AA8, symBinAddr: 0x3E438, symSize: 0x14 }
  - { offset: 0x117750, size: 0x8, addend: 0x0, symName: __ZN4pyo315internal_tricks12ptr_from_ref17hc7ba8c8e6bc46e9cE, symObjAddr: 0x1ABC, symBinAddr: 0x3E44C, symSize: 0x14 }
  - { offset: 0x117785, size: 0x8, addend: 0x0, symName: __ZN4pyo315internal_tricks12ptr_from_ref17hd9d85826504f685bE, symObjAddr: 0x1AD0, symBinAddr: 0x3E460, symSize: 0x14 }
  - { offset: 0x1188A7, size: 0x8, addend: 0x0, symName: __ZN4pyo35types4none6PyNone9get_bound17ha9efef4d5222050bE, symObjAddr: 0x1BA8, symBinAddr: 0x3E474, symSize: 0x2C }
  - { offset: 0x1188E2, size: 0x8, addend: 0x0, symName: __ZN4pyo35types5float7PyFloat9new_bound17h1f3b807a50c57b8eE, symObjAddr: 0x1E74, symBinAddr: 0x3E4DC, symSize: 0x30 }
  - { offset: 0x118986, size: 0x8, addend: 0x0, symName: __ZN4pyo36marker6Python14get_type_bound17h887bee5e36ea6b24E, symObjAddr: 0x2DDC, symBinAddr: 0x3E50C, symSize: 0x1C }
  - { offset: 0x1189BE, size: 0x8, addend: 0x0, symName: __ZN4pyo36marker6Python14get_type_bound17hc2b7fe41eeea27fbE, symObjAddr: 0x2DF8, symBinAddr: 0x3E528, symSize: 0x1C }
  - { offset: 0x1189F6, size: 0x8, addend: 0x0, symName: __ZN4pyo36marker6Python19assume_gil_acquired17heda3a921141e8c44E, symObjAddr: 0x2E14, symBinAddr: 0x3E544, symSize: 0x4 }
  - { offset: 0x118A09, size: 0x8, addend: 0x0, symName: __ZN4pyo36marker6Python4None17hf10ebf8da28bd246E, symObjAddr: 0x2E18, symBinAddr: 0x3E548, symSize: 0x20 }
  - { offset: 0x118A6C, size: 0x8, addend: 0x0, symName: __ZN4pyo36marker6Python8with_gil17hb241b5b09ef80ddbE, symObjAddr: 0x36DC, symBinAddr: 0x3E568, symSize: 0xE8 }
  - { offset: 0x118C6F, size: 0x8, addend: 0x0, symName: __ZN5alloc5alloc6Global18alloc_impl_runtime17heecfc7982f198770E, symObjAddr: 0x3AC0, symBinAddr: 0x3E790, symSize: 0x194 }
  - { offset: 0x1191AA, size: 0x8, addend: 0x0, symName: __ZN5alloc5alloc6Global19shrink_impl_runtime17hda8f47cb35c2e0bbE, symObjAddr: 0x3C54, symBinAddr: 0x3E924, symSize: 0x304 }
  - { offset: 0x11A00E, size: 0x8, addend: 0x0, symName: '__ZN4pyo33err5PyErr3new28_$u7b$$u7b$closure$u7d$$u7d$17h151280f1ebf78866E', symObjAddr: 0x45C4, symBinAddr: 0x40508, symSize: 0xC0 }
  - { offset: 0x11A066, size: 0x8, addend: 0x0, symName: '__ZN4pyo33err5PyErr3new28_$u7b$$u7b$closure$u7d$$u7d$17h290b0c014f19789fE', symObjAddr: 0x48B0, symBinAddr: 0x405C8, symSize: 0xD4 }
  - { offset: 0x11A0BF, size: 0x8, addend: 0x0, symName: '__ZN4pyo33err5PyErr3new28_$u7b$$u7b$closure$u7d$$u7d$17h36a6771e823bb08dE', symObjAddr: 0x4B04, symBinAddr: 0x4069C, symSize: 0xD4 }
  - { offset: 0x11A118, size: 0x8, addend: 0x0, symName: '__ZN4pyo33err5PyErr3new28_$u7b$$u7b$closure$u7d$$u7d$17h63677e2e3de08b9aE', symObjAddr: 0x4BD8, symBinAddr: 0x40770, symSize: 0xD4 }
  - { offset: 0x11A171, size: 0x8, addend: 0x0, symName: '__ZN4pyo33err5PyErr3new28_$u7b$$u7b$closure$u7d$$u7d$17h6b7b0c76455ee194E', symObjAddr: 0x4CAC, symBinAddr: 0x40844, symSize: 0xC0 }
  - { offset: 0x11A1C9, size: 0x8, addend: 0x0, symName: '__ZN4pyo33err5PyErr3new28_$u7b$$u7b$closure$u7d$$u7d$17h6dec34846191f741E', symObjAddr: 0x4E2C, symBinAddr: 0x40904, symSize: 0xD4 }
  - { offset: 0x11A222, size: 0x8, addend: 0x0, symName: '__ZN4pyo33err5PyErr3new28_$u7b$$u7b$closure$u7d$$u7d$17haa72f8b58f2fe13aE', symObjAddr: 0x52B8, symBinAddr: 0x409D8, symSize: 0xD4 }
  - { offset: 0x11A27B, size: 0x8, addend: 0x0, symName: '__ZN4pyo33err5PyErr3new28_$u7b$$u7b$closure$u7d$$u7d$17hb1c17359b33954ecE', symObjAddr: 0x5444, symBinAddr: 0x40AAC, symSize: 0xC0 }
  - { offset: 0x11A2D3, size: 0x8, addend: 0x0, symName: '__ZN4pyo33err5PyErr3new28_$u7b$$u7b$closure$u7d$$u7d$17hd11cf1963e08e3b6E', symObjAddr: 0x5804, symBinAddr: 0x40B6C, symSize: 0xD4 }
  - { offset: 0x11A32C, size: 0x8, addend: 0x0, symName: '__ZN4pyo33err5PyErr3new28_$u7b$$u7b$closure$u7d$$u7d$17hdebf6c1c14401e70E', symObjAddr: 0x5B18, symBinAddr: 0x40C40, symSize: 0xC0 }
  - { offset: 0x11A384, size: 0x8, addend: 0x0, symName: '__ZN4pyo33err5PyErr3new28_$u7b$$u7b$closure$u7d$$u7d$17he815adb73b9eec0bE', symObjAddr: 0x5E10, symBinAddr: 0x40D00, symSize: 0xD4 }
  - { offset: 0x11A3E3, size: 0x8, addend: 0x0, symName: '__ZN4pyo33err5PyErr14new_type_bound28_$u7b$$u7b$closure$u7d$$u7d$17h4d15be678e94652aE', symObjAddr: 0x2650, symBinAddr: 0x3F96C, symSize: 0x50 }
  - { offset: 0x11A429, size: 0x8, addend: 0x0, symName: '__ZN4pyo33err5PyErr5_take28_$u7b$$u7b$closure$u7d$$u7d$17h6cf3961b15bc60b4E', symObjAddr: 0x6320, symBinAddr: 0x41210, symSize: 0x7C }
  - { offset: 0x11A462, size: 0x8, addend: 0x0, symName: '__ZN4pyo33err5PyErr5_take28_$u7b$$u7b$closure$u7d$$u7d$17h6dcf7841d792cbd9E', symObjAddr: 0x639C, symBinAddr: 0x4128C, symSize: 0x2C }
  - { offset: 0x11A48C, size: 0x8, addend: 0x0, symName: '__ZN4pyo33err5PyErr5_take28_$u7b$$u7b$closure$u7d$$u7d$17hbed1883a038d0a7aE', symObjAddr: 0x63C8, symBinAddr: 0x412B8, symSize: 0x44 }
  - { offset: 0x11A4FC, size: 0x8, addend: 0x0, symName: '__ZN4pyo33err5PyErr9set_cause28_$u7b$$u7b$closure$u7d$$u7d$17hd94e0f1b04554b65E', symObjAddr: 0x6834, symBinAddr: 0x415F8, symSize: 0x34 }
  - { offset: 0x11B094, size: 0x8, addend: 0x0, symName: __ZN4pyo33err17error_on_minusone17h2a9e37e3b39679baE, symObjAddr: 0x15B0, symBinAddr: 0x3F1DC, symSize: 0xC0 }
  - { offset: 0x11B0E6, size: 0x8, addend: 0x0, symName: __ZN4pyo33err17error_on_minusone17h73b052272b4d9494E, symObjAddr: 0x1730, symBinAddr: 0x3F29C, symSize: 0xC0 }
  - { offset: 0x11B138, size: 0x8, addend: 0x0, symName: __ZN4pyo33err17panic_after_error17h7790bbf5a2004c7cE, symObjAddr: 0x17F0, symBinAddr: 0x3F35C, symSize: 0x30 }
  - { offset: 0x11B178, size: 0x8, addend: 0x0, symName: '__ZN4pyo33err5impls101_$LT$impl$u20$core..convert..From$LT$alloc..ffi..c_str..NulError$GT$$u20$for$u20$pyo3..err..PyErr$GT$4from17h955897399a4ac8adE', symObjAddr: 0x6868, symBinAddr: 0x4162C, symSize: 0x34 }
  - { offset: 0x11B1AC, size: 0x8, addend: 0x0, symName: '__ZN53_$LT$pyo3..err..PyErr$u20$as$u20$core..fmt..Debug$GT$3fmt17h83a39822c45d7657E', symObjAddr: 0x731C, symBinAddr: 0x418E0, symSize: 0x38 }
  - { offset: 0x11B1EE, size: 0x8, addend: 0x0, symName: '__ZN53_$LT$pyo3..err..PyErr$u20$as$u20$core..fmt..Debug$GT$3fmt28_$u7b$$u7b$closure$u7d$$u7d$17hd4e8bc59d018a687E', symObjAddr: 0x7354, symBinAddr: 0x41918, symSize: 0x16C }
  - { offset: 0x11B253, size: 0x8, addend: 0x0, symName: '__ZN88_$LT$pyo3..err..PyErr$u20$as$u20$core..convert..From$LT$pyo3..err..DowncastError$GT$$GT$4from17he65535246e7dd3c0E', symObjAddr: 0x7A04, symBinAddr: 0x41B10, symSize: 0xE8 }
  - { offset: 0x11B2A6, size: 0x8, addend: 0x0, symName: '__ZN92_$LT$pyo3..err..PyDowncastErrorArguments$u20$as$u20$pyo3..err..err_state..PyErrArguments$GT$9arguments17hc077c0c890688928E', symObjAddr: 0x7B48, symBinAddr: 0x41BF8, symSize: 0x240 }
  - { offset: 0x11B390, size: 0x8, addend: 0x0, symName: '__ZN92_$LT$pyo3..err..PyErr$u20$as$u20$core..convert..From$LT$pyo3..err..DowncastIntoError$GT$$GT$4from17h533f1be6ee87fc14E', symObjAddr: 0x7D88, symBinAddr: 0x41E38, symSize: 0xF4 }
  - { offset: 0x11B6FC, size: 0x8, addend: 0x0, symName: '__ZN4pyo36pycell101_$LT$impl$u20$core..convert..From$LT$pyo3..pycell..PyBorrowError$GT$$u20$for$u20$pyo3..err..PyErr$GT$4from17ha723f1dfade50e4aE', symObjAddr: 0x7270, symBinAddr: 0x418A8, symSize: 0x38 }
  - { offset: 0x11D5F6, size: 0x8, addend: 0x0, symName: __ZN4core4iter6traits8iterator8Iterator4take17h33978bcc942fb3e9E, symObjAddr: 0x8B0, symBinAddr: 0x3ED58, symSize: 0x2C }
  - { offset: 0x11D657, size: 0x8, addend: 0x0, symName: '__ZN72_$LT$$RF$mut$u20$I$u20$as$u20$core..iter..traits..iterator..Iterator$GT$4next17ha41622986de51f9cE', symObjAddr: 0x7978, symBinAddr: 0x41A84, symSize: 0x34 }
  - { offset: 0x11D69A, size: 0x8, addend: 0x0, symName: '__ZN83_$LT$$RF$mut$u20$I$u20$as$u20$core..iter..traits..exact_size..ExactSizeIterator$GT$3len17h9f4678a21ed8187cE', symObjAddr: 0x79D0, symBinAddr: 0x41ADC, symSize: 0x34 }
  - { offset: 0x11D6DD, size: 0x8, addend: 0x0, symName: '__ZN4core5slice29_$LT$impl$u20$$u5b$T$u5d$$GT$4iter17he103172161839708E', symObjAddr: 0xAB0, symBinAddr: 0x3ED84, symSize: 0x28 }
  - { offset: 0x11D78B, size: 0x8, addend: 0x0, symName: __ZN4core5slice6memchr6memchr17h586825c919309809E, symObjAddr: 0xB28, symBinAddr: 0x3EDAC, symSize: 0x114 }
  - { offset: 0x11D80A, size: 0x8, addend: 0x0, symName: __ZN4core9core_arch7aarch644neon9generated7vld1_u817hc214b8f22d31b21bE, symObjAddr: 0xC3C, symBinAddr: 0x3EEC0, symSize: 0x34 }
  - { offset: 0x11D838, size: 0x8, addend: 0x0, symName: __ZN4core9core_arch7aarch644neon9generated7vst1_u817h24464f8d69bf2210E, symObjAddr: 0xC70, symBinAddr: 0x3EEF4, symSize: 0x40 }
  - { offset: 0x11D872, size: 0x8, addend: 0x0, symName: __ZN4core9core_arch7aarch644neon9generated8vcgez_s817h59b323f68500fc3dE, symObjAddr: 0xCB0, symBinAddr: 0x3EF34, symSize: 0x68 }
  - { offset: 0x11D914, size: 0x8, addend: 0x0, symName: __ZN4core9core_arch7aarch644neon9generated8vcltz_s817h07239ca0c42f661eE, symObjAddr: 0xD18, symBinAddr: 0x3EF9C, symSize: 0x68 }
  - { offset: 0x11F855, size: 0x8, addend: 0x0, symName: __ZN4pyo33err13DowncastError17new_from_borrowed17h0e3f559fe4966873E, symObjAddr: 0x13D8, symBinAddr: 0x3F004, symSize: 0x68 }
  - { offset: 0x11F89B, size: 0x8, addend: 0x0, symName: __ZN4pyo33err13DowncastError3new17hf6c825ced4df422eE, symObjAddr: 0x1440, symBinAddr: 0x3F06C, symSize: 0xB0 }
  - { offset: 0x11F8D4, size: 0x8, addend: 0x0, symName: __ZN4pyo33err17DowncastIntoError10into_inner17hfbe28b3a76865a9bE, symObjAddr: 0x14F0, symBinAddr: 0x3F11C, symSize: 0x28 }
  - { offset: 0x11F8F7, size: 0x8, addend: 0x0, symName: __ZN4pyo33err17DowncastIntoError3new17h5f1c883b41f4399fE, symObjAddr: 0x1518, symBinAddr: 0x3F144, symSize: 0x98 }
  - { offset: 0x11F94C, size: 0x8, addend: 0x0, symName: __ZN4pyo33err5PyErr10from_state17he1a2d2af617330abE, symObjAddr: 0x19EC, symBinAddr: 0x3F38C, symSize: 0x3C }
  - { offset: 0x11F98D, size: 0x8, addend: 0x0, symName: __ZN4pyo33err5PyErr10into_value17h898afb8ac2f52eb1E, symObjAddr: 0x1A28, symBinAddr: 0x3F3C8, symSize: 0x128 }
  - { offset: 0x11FA1B, size: 0x8, addend: 0x0, symName: __ZN4pyo33err5PyErr10normalized17h1389766972c3b22bE, symObjAddr: 0x1B50, symBinAddr: 0x3F4F0, symSize: 0xCC }
  - { offset: 0x11FA7C, size: 0x8, addend: 0x0, symName: __ZN4pyo33err5PyErr11value_bound17hb390093df0b35134E, symObjAddr: 0x1D78, symBinAddr: 0x3F5BC, symSize: 0x2C }
  - { offset: 0x11FABA, size: 0x8, addend: 0x0, symName: __ZN4pyo33err5PyErr14get_type_bound17hdb38a6375cc34d79E, symObjAddr: 0x1DA4, symBinAddr: 0x3F5E8, symSize: 0x28 }
  - { offset: 0x11FAFF, size: 0x8, addend: 0x0, symName: __ZN4pyo33err5PyErr14is_instance_of17h33ddd5f028c46480E, symObjAddr: 0x1ED4, symBinAddr: 0x3F610, symSize: 0x84 }
  - { offset: 0x11FB53, size: 0x8, addend: 0x0, symName: __ZN4pyo33err5PyErr14new_type_bound17he01e6abe9c1f5184E, symObjAddr: 0x2378, symBinAddr: 0x3F694, symSize: 0x2D8 }
  - { offset: 0x11FD0C, size: 0x8, addend: 0x0, symName: __ZN4pyo33err5PyErr15make_normalized17hfc05b449887ab99fE, symObjAddr: 0x26A0, symBinAddr: 0x8B00C, symSize: 0x248 }
  - { offset: 0x11FD97, size: 0x8, addend: 0x0, symName: __ZN4pyo33err5PyErr15traceback_bound17hfb90fe0d401ed46dE, symObjAddr: 0x28E8, symBinAddr: 0x3F9BC, symSize: 0x28 }
  - { offset: 0x11FDD5, size: 0x8, addend: 0x0, symName: __ZN4pyo33err5PyErr16from_value_bound17h39fb898fadb60480E, symObjAddr: 0x2910, symBinAddr: 0x3F9E4, symSize: 0x1C0 }
  - { offset: 0x11FE7B, size: 0x8, addend: 0x0, symName: __ZN4pyo33err5PyErr17is_instance_bound17hcd1b127935da6855E, symObjAddr: 0x2AD0, symBinAddr: 0x3FBA4, symSize: 0xA0 }
  - { offset: 0x11FEEB, size: 0x8, addend: 0x0, symName: __ZN4pyo33err5PyErr22print_panic_and_unwind17hbd12b84d8d6fda10E, symObjAddr: 0x2FC0, symBinAddr: 0x3FC44, symSize: 0x1A8 }
  - { offset: 0x11FF58, size: 0x8, addend: 0x0, symName: __ZN4pyo33err5PyErr22write_unraisable_bound17h694de2202478005cE, symObjAddr: 0x3168, symBinAddr: 0x3FDEC, symSize: 0x4C }
  - { offset: 0x11FFB3, size: 0x8, addend: 0x0, symName: __ZN4pyo33err5PyErr3new17h04d4ff53bdc030ceE, symObjAddr: 0x31F0, symBinAddr: 0x3FE38, symSize: 0xA0 }
  - { offset: 0x120012, size: 0x8, addend: 0x0, symName: __ZN4pyo33err5PyErr3new17h2186125ba56b5fd0E, symObjAddr: 0x3518, symBinAddr: 0x3FED8, symSize: 0x9C }
  - { offset: 0x120070, size: 0x8, addend: 0x0, symName: __ZN4pyo33err5PyErr3new17h4cd8f1dc7c42c198E, symObjAddr: 0x3980, symBinAddr: 0x3FF74, symSize: 0x9C }
  - { offset: 0x1200CE, size: 0x8, addend: 0x0, symName: __ZN4pyo33err5PyErr3new17h51419c812692ed54E, symObjAddr: 0x3A88, symBinAddr: 0x40010, symSize: 0xA0 }
  - { offset: 0x12012D, size: 0x8, addend: 0x0, symName: __ZN4pyo33err5PyErr3new17h5355b531f6667b45E, symObjAddr: 0x3B28, symBinAddr: 0x400B0, symSize: 0xA0 }
  - { offset: 0x12018C, size: 0x8, addend: 0x0, symName: __ZN4pyo33err5PyErr3new17h53ec9a241aa6eff4E, symObjAddr: 0x3BC8, symBinAddr: 0x40150, symSize: 0xA0 }
  - { offset: 0x1201EB, size: 0x8, addend: 0x0, symName: __ZN4pyo33err5PyErr3new17h5ae977e189b08d3dE, symObjAddr: 0x3C68, symBinAddr: 0x401F0, symSize: 0xA0 }
  - { offset: 0x12024A, size: 0x8, addend: 0x0, symName: __ZN4pyo33err5PyErr3new17haa12e874a1e21dcfE, symObjAddr: 0x40E8, symBinAddr: 0x40290, symSize: 0x9C }
  - { offset: 0x1202A8, size: 0x8, addend: 0x0, symName: __ZN4pyo33err5PyErr3new17hc11ed2abcd70bbe1E, symObjAddr: 0x41F0, symBinAddr: 0x4032C, symSize: 0x9C }
  - { offset: 0x120306, size: 0x8, addend: 0x0, symName: __ZN4pyo33err5PyErr3new17hd43ccea50f35d2f0E, symObjAddr: 0x428C, symBinAddr: 0x403C8, symSize: 0xA0 }
  - { offset: 0x120365, size: 0x8, addend: 0x0, symName: __ZN4pyo33err5PyErr3new17heedca46fd455c8f5E, symObjAddr: 0x43BC, symBinAddr: 0x40468, symSize: 0xA0 }
  - { offset: 0x1203B7, size: 0x8, addend: 0x0, symName: __ZN4pyo33err5PyErr4take17h8200b44e3b171233E, symObjAddr: 0x5EE4, symBinAddr: 0x40DD4, symSize: 0x1C }
  - { offset: 0x1203E6, size: 0x8, addend: 0x0, symName: __ZN4pyo33err5PyErr5_take17h5e21bf0e0f80abb4E, symObjAddr: 0x5F00, symBinAddr: 0x40DF0, symSize: 0x420 }
  - { offset: 0x120555, size: 0x8, addend: 0x0, symName: __ZN4pyo33err5PyErr5cause17h7930b6387a2ca089E, symObjAddr: 0x640C, symBinAddr: 0x412FC, symSize: 0x44 }
  - { offset: 0x1205B1, size: 0x8, addend: 0x0, symName: __ZN4pyo33err5PyErr5fetch17h438514222817809dE, symObjAddr: 0x6450, symBinAddr: 0x41340, symSize: 0x5C }
  - { offset: 0x1205E0, size: 0x8, addend: 0x0, symName: __ZN4pyo33err5PyErr5print17h11db1dccf168ebd7E, symObjAddr: 0x64AC, symBinAddr: 0x4139C, symSize: 0x3C }
  - { offset: 0x12063A, size: 0x8, addend: 0x0, symName: __ZN4pyo33err5PyErr7restore17hb677ae17d9384c13E, symObjAddr: 0x6614, symBinAddr: 0x413D8, symSize: 0x68 }
  - { offset: 0x120697, size: 0x8, addend: 0x0, symName: __ZN4pyo33err5PyErr9clone_ref17h336e38d3afc40f4fE, symObjAddr: 0x667C, symBinAddr: 0x41440, symSize: 0x54 }
  - { offset: 0x1206D5, size: 0x8, addend: 0x0, symName: __ZN4pyo33err5PyErr9set_cause17h19e713b7f94b3ba7E, symObjAddr: 0x66D0, symBinAddr: 0x41494, symSize: 0x164 }
  - { offset: 0x12078B, size: 0x8, addend: 0x0, symName: __ZN4pyo35types8function11PyCFunction12internal_new17h878565dca9eb2b04E, symObjAddr: 0x6F48, symBinAddr: 0x41660, symSize: 0x248 }
  - { offset: 0x1208E1, size: 0x8, addend: 0x0, symName: '__ZN78_$LT$once_cell..sync..Lazy$LT$T$C$F$GT$$u20$as$u20$core..ops..deref..Deref$GT$5deref17h4a716bb262b13e75E', symObjAddr: 0x79AC, symBinAddr: 0x41AB8, symSize: 0x24 }
  - { offset: 0x120A6E, size: 0x8, addend: 0x0, symName: '__ZN9once_cell4sync17Lazy$LT$T$C$F$GT$5force28_$u7b$$u7b$closure$u7d$$u7d$17h4cf953df9452fe46E', symObjAddr: 0x7F20, symBinAddr: 0x41F7C, symSize: 0x70 }
  - { offset: 0x120AED, size: 0x8, addend: 0x0, symName: '__ZN9once_cell4sync17OnceCell$LT$T$GT$11get_or_init28_$u7b$$u7b$closure$u7d$$u7d$17hd64e38723b940a21E', symObjAddr: 0x7FC4, symBinAddr: 0x42020, symSize: 0x44 }
  - { offset: 0x120C5E, size: 0x8, addend: 0x0, symName: '__ZN9once_cell4sync17Lazy$LT$T$C$F$GT$3get17hb6f0051607a29ae1E', symObjAddr: 0x7ED0, symBinAddr: 0x41F2C, symSize: 0x24 }
  - { offset: 0x120C93, size: 0x8, addend: 0x0, symName: '__ZN9once_cell4sync17Lazy$LT$T$C$F$GT$5force17h15252207c230ef3fE', symObjAddr: 0x7EF4, symBinAddr: 0x41F50, symSize: 0x2C }
  - { offset: 0x120CD5, size: 0x8, addend: 0x0, symName: '__ZN9once_cell4sync17OnceCell$LT$T$GT$11get_or_init17h889b178dfe0f5113E', symObjAddr: 0x7F90, symBinAddr: 0x41FEC, symSize: 0x34 }
  - { offset: 0x120D19, size: 0x8, addend: 0x0, symName: '__ZN9once_cell4sync17OnceCell$LT$T$GT$13get_unchecked17h095fc641b3a5a5e1E', symObjAddr: 0x8008, symBinAddr: 0x42064, symSize: 0x24 }
  - { offset: 0x120D45, size: 0x8, addend: 0x0, symName: '__ZN9once_cell4sync17OnceCell$LT$T$GT$15get_or_try_init17hfccd87574fb8396aE', symObjAddr: 0x802C, symBinAddr: 0x42088, symSize: 0x128 }
  - { offset: 0x120DA8, size: 0x8, addend: 0x0, symName: '__ZN9once_cell4sync17OnceCell$LT$T$GT$3get17h46d18e9bd18816b6E', symObjAddr: 0x8154, symBinAddr: 0x421B0, symSize: 0x4C }
  - { offset: 0x120EFD, size: 0x8, addend: 0x0, symName: '__ZN102_$LT$$RF$mut$u20$alloc..vec..Vec$LT$T$C$A$GT$$u20$as$u20$core..iter..traits..collect..IntoIterator$GT$9into_iter17hb29b0424baebbcfbE', symObjAddr: 0x0, symBinAddr: 0x421FC, symSize: 0x60 }
  - { offset: 0x121059, size: 0x8, addend: 0x0, symName: '__ZN102_$LT$pyo3..internal..get_slot..Slot$LT$47_i32$GT$$u20$as$u20$pyo3..internal..get_slot..GetSlotImpl$GT$8get_slot17h0962b8616e968745E', symObjAddr: 0x60, symBinAddr: 0x4225C, symSize: 0x74 }
  - { offset: 0x1210A4, size: 0x8, addend: 0x0, symName: '__ZN102_$LT$pyo3..internal..get_slot..Slot$LT$48_i32$GT$$u20$as$u20$pyo3..internal..get_slot..GetSlotImpl$GT$8get_slot17hc8604d8418736a80E', symObjAddr: 0xD4, symBinAddr: 0x422D0, symSize: 0x74 }
  - { offset: 0x1210EF, size: 0x8, addend: 0x0, symName: '__ZN102_$LT$pyo3..internal..get_slot..Slot$LT$51_i32$GT$$u20$as$u20$pyo3..internal..get_slot..GetSlotImpl$GT$8get_slot17h496befc3a02a3130E', symObjAddr: 0x148, symBinAddr: 0x42344, symSize: 0x74 }
  - { offset: 0x12119D, size: 0x8, addend: 0x0, symName: '__ZN72_$LT$pyo3..pycell..impl_..BorrowFlag$u20$as$u20$core..cmp..PartialEq$GT$2eq17h79b3f8bfee4e7184E', symObjAddr: 0x2E10, symBinAddr: 0x44B14, symSize: 0x2C }
  - { offset: 0x1211DD, size: 0x8, addend: 0x0, symName: '__ZN96_$LT$pyo3..pycell..impl_..BorrowChecker$u20$as$u20$pyo3..pycell..impl_..PyClassBorrowChecker$GT$10try_borrow17hd006bf39adb30d1dE', symObjAddr: 0x3194, symBinAddr: 0x44E6C, symSize: 0x78 }
  - { offset: 0x121226, size: 0x8, addend: 0x0, symName: '__ZN96_$LT$pyo3..pycell..impl_..BorrowChecker$u20$as$u20$pyo3..pycell..impl_..PyClassBorrowChecker$GT$14release_borrow17h6dfad65d5eb3e005E', symObjAddr: 0x320C, symBinAddr: 0x44EE4, symSize: 0x3C }
  - { offset: 0x122B02, size: 0x8, addend: 0x0, symName: __ZN4core3ptr9alignment9Alignment13new_unchecked18precondition_check17ha5eca2e12be4b1f6E, symObjAddr: 0xB7C, symBinAddr: 0x42B84, symSize: 0x70 }
  - { offset: 0x123EC4, size: 0x8, addend: 0x0, symName: __ZN4core3cmp9PartialEq2ne17h7b71353e6d139b9fE, symObjAddr: 0xB4C, symBinAddr: 0x42B54, symSize: 0x30 }
  - { offset: 0x124257, size: 0x8, addend: 0x0, symName: __ZN4core5alloc6layout6Layout25from_size_align_unchecked18precondition_check17hd3b15d446f38dec9E, symObjAddr: 0xBEC, symBinAddr: 0x42BF4, symSize: 0xBC }
  - { offset: 0x1243C0, size: 0x8, addend: 0x0, symName: '__ZN4core7convert3num18ptr_try_from_impls69_$LT$impl$u20$core..convert..TryFrom$LT$u64$GT$$u20$for$u20$usize$GT$8try_from17h767ef88add87eb66E', symObjAddr: 0xDBC, symBinAddr: 0x42CB0, symSize: 0x18 }
  - { offset: 0x12643D, size: 0x8, addend: 0x0, symName: '__ZN102_$LT$$RF$mut$u20$alloc..vec..Vec$LT$T$C$A$GT$$u20$as$u20$core..iter..traits..collect..IntoIterator$GT$9into_iter17hb29b0424baebbcfbE', symObjAddr: 0x0, symBinAddr: 0x421FC, symSize: 0x60 }
  - { offset: 0x126852, size: 0x8, addend: 0x0, symName: '__ZN107_$LT$alloc..vec..Vec$LT$T$C$A$GT$..retain_mut..PanicGuard$LT$T$C$A$GT$$u20$as$u20$core..ops..drop..Drop$GT$4drop17h2563f4e82148cd2fE', symObjAddr: 0x230, symBinAddr: 0x8B254, symSize: 0x180 }
  - { offset: 0x126ABE, size: 0x8, addend: 0x0, symName: '__ZN5alloc3vec16Vec$LT$T$C$A$GT$6retain28_$u7b$$u7b$closure$u7d$$u7d$17h2d426af6278d6693E', symObjAddr: 0x201C, symBinAddr: 0x43E24, symSize: 0x30 }
  - { offset: 0x126B1F, size: 0x8, addend: 0x0, symName: '__ZN5alloc3vec16Vec$LT$T$C$A$GT$7set_len18precondition_check17h1de0dc6972731072E', symObjAddr: 0x219C, symBinAddr: 0x43FA4, symSize: 0x60 }
  - { offset: 0x126DDD, size: 0x8, addend: 0x0, symName: '__ZN111_$LT$alloc..vec..Vec$LT$T$GT$$u20$as$u20$alloc..vec..spec_from_iter_nested..SpecFromIterNested$LT$T$C$I$GT$$GT$9from_iter17h54b90e4895f58829E', symObjAddr: 0x3B0, symBinAddr: 0x423B8, symSize: 0x244 }
  - { offset: 0x12703B, size: 0x8, addend: 0x0, symName: '__ZN111_$LT$alloc..vec..Vec$LT$T$GT$$u20$as$u20$alloc..vec..spec_from_iter_nested..SpecFromIterNested$LT$T$C$I$GT$$GT$9from_iter17h7e4564ffe3b9b7b4E', symObjAddr: 0x5F4, symBinAddr: 0x425FC, symSize: 0x24C }
  - { offset: 0x12729A, size: 0x8, addend: 0x0, symName: '__ZN111_$LT$alloc..vec..Vec$LT$T$GT$$u20$as$u20$alloc..vec..spec_from_iter_nested..SpecFromIterNested$LT$T$C$I$GT$$GT$9from_iter17hcc0d654801d61450E', symObjAddr: 0x840, symBinAddr: 0x42848, symSize: 0x24C }
  - { offset: 0x127EDE, size: 0x8, addend: 0x0, symName: '__ZN72_$LT$alloc..vec..Vec$LT$T$C$A$GT$$u20$as$u20$core..ops..deref..Deref$GT$5deref17h497ebcbc3865fb7bE', symObjAddr: 0x2DB0, symBinAddr: 0x44AB4, symSize: 0x20 }
  - { offset: 0x127F9B, size: 0x8, addend: 0x0, symName: '__ZN72_$LT$alloc..vec..Vec$LT$T$C$A$GT$$u20$as$u20$core..ops..deref..Deref$GT$5deref17h8ecdf46d24078165E', symObjAddr: 0x2DD0, symBinAddr: 0x44AD4, symSize: 0x20 }
  - { offset: 0x128058, size: 0x8, addend: 0x0, symName: '__ZN72_$LT$alloc..vec..Vec$LT$T$C$A$GT$$u20$as$u20$core..ops..deref..Deref$GT$5deref17haee3c4c235b87305E', symObjAddr: 0x2DF0, symBinAddr: 0x44AF4, symSize: 0x20 }
  - { offset: 0x12811B, size: 0x8, addend: 0x0, symName: '__ZN67_$LT$alloc..vec..Vec$LT$T$GT$$u20$as$u20$core..default..Default$GT$7default17h70f4fc1e1e0a93a6E', symObjAddr: 0x2B58, symBinAddr: 0x448C0, symSize: 0x14 }
  - { offset: 0x12813D, size: 0x8, addend: 0x0, symName: '__ZN67_$LT$alloc..vec..Vec$LT$T$GT$$u20$as$u20$core..default..Default$GT$7default17h70f4fc1e1e0a93a6E', symObjAddr: 0x2B58, symBinAddr: 0x448C0, symSize: 0x14 }
  - { offset: 0x128158, size: 0x8, addend: 0x0, symName: '__ZN67_$LT$alloc..vec..Vec$LT$T$GT$$u20$as$u20$core..default..Default$GT$7default17hadf541a79358d884E', symObjAddr: 0x2B6C, symBinAddr: 0x448D4, symSize: 0x14 }
  - { offset: 0x12817A, size: 0x8, addend: 0x0, symName: '__ZN67_$LT$alloc..vec..Vec$LT$T$GT$$u20$as$u20$core..default..Default$GT$7default17hadf541a79358d884E', symObjAddr: 0x2B6C, symBinAddr: 0x448D4, symSize: 0x14 }
  - { offset: 0x128195, size: 0x8, addend: 0x0, symName: '__ZN67_$LT$alloc..vec..Vec$LT$T$GT$$u20$as$u20$core..default..Default$GT$7default17hf1cedf5d3c73fd52E', symObjAddr: 0x2B80, symBinAddr: 0x448E8, symSize: 0x14 }
  - { offset: 0x1281B7, size: 0x8, addend: 0x0, symName: '__ZN67_$LT$alloc..vec..Vec$LT$T$GT$$u20$as$u20$core..default..Default$GT$7default17hf1cedf5d3c73fd52E', symObjAddr: 0x2B80, symBinAddr: 0x448E8, symSize: 0x14 }
  - { offset: 0x1281D2, size: 0x8, addend: 0x0, symName: '__ZN67_$LT$alloc..vec..Vec$LT$T$GT$$u20$as$u20$core..default..Default$GT$7default17hf7cc4e8c498d6f06E', symObjAddr: 0x2B94, symBinAddr: 0x448FC, symSize: 0x14 }
  - { offset: 0x1281F4, size: 0x8, addend: 0x0, symName: '__ZN67_$LT$alloc..vec..Vec$LT$T$GT$$u20$as$u20$core..default..Default$GT$7default17hf7cc4e8c498d6f06E', symObjAddr: 0x2B94, symBinAddr: 0x448FC, symSize: 0x14 }
  - { offset: 0x128215, size: 0x8, addend: 0x0, symName: '__ZN70_$LT$alloc..vec..Vec$LT$T$C$A$GT$$u20$as$u20$core..ops..drop..Drop$GT$4drop17h0e1e824453789558E', symObjAddr: 0x2BE8, symBinAddr: 0x44910, symSize: 0x24 }
  - { offset: 0x1282C5, size: 0x8, addend: 0x0, symName: '__ZN70_$LT$alloc..vec..Vec$LT$T$C$A$GT$$u20$as$u20$core..ops..drop..Drop$GT$4drop17h1f6b52889e3fbf48E', symObjAddr: 0x2C0C, symBinAddr: 0x44934, symSize: 0x24 }
  - { offset: 0x128375, size: 0x8, addend: 0x0, symName: '__ZN70_$LT$alloc..vec..Vec$LT$T$C$A$GT$$u20$as$u20$core..ops..drop..Drop$GT$4drop17h2a01c81dd24fd232E', symObjAddr: 0x2C30, symBinAddr: 0x44958, symSize: 0x24 }
  - { offset: 0x128425, size: 0x8, addend: 0x0, symName: '__ZN70_$LT$alloc..vec..Vec$LT$T$C$A$GT$$u20$as$u20$core..ops..drop..Drop$GT$4drop17h35e004380e636ae6E', symObjAddr: 0x2C54, symBinAddr: 0x4497C, symSize: 0x38 }
  - { offset: 0x1284D5, size: 0x8, addend: 0x0, symName: '__ZN70_$LT$alloc..vec..Vec$LT$T$C$A$GT$$u20$as$u20$core..ops..drop..Drop$GT$4drop17h594bad00efbb55f3E', symObjAddr: 0x2C8C, symBinAddr: 0x449B4, symSize: 0x24 }
  - { offset: 0x128585, size: 0x8, addend: 0x0, symName: '__ZN70_$LT$alloc..vec..Vec$LT$T$C$A$GT$$u20$as$u20$core..ops..drop..Drop$GT$4drop17h7e6ef3ed485ecfd0E', symObjAddr: 0x2CB0, symBinAddr: 0x449D8, symSize: 0x38 }
  - { offset: 0x128635, size: 0x8, addend: 0x0, symName: '__ZN70_$LT$alloc..vec..Vec$LT$T$C$A$GT$$u20$as$u20$core..ops..drop..Drop$GT$4drop17h8758b3bf62f53dcaE', symObjAddr: 0x2CE8, symBinAddr: 0x44A10, symSize: 0x24 }
  - { offset: 0x1286E5, size: 0x8, addend: 0x0, symName: '__ZN70_$LT$alloc..vec..Vec$LT$T$C$A$GT$$u20$as$u20$core..ops..drop..Drop$GT$4drop17h892fdc34185030a4E', symObjAddr: 0x2D0C, symBinAddr: 0x44A34, symSize: 0x38 }
  - { offset: 0x128795, size: 0x8, addend: 0x0, symName: '__ZN70_$LT$alloc..vec..Vec$LT$T$C$A$GT$$u20$as$u20$core..ops..drop..Drop$GT$4drop17hd6efe06818c59030E', symObjAddr: 0x2D68, symBinAddr: 0x44A6C, symSize: 0x24 }
  - { offset: 0x128845, size: 0x8, addend: 0x0, symName: '__ZN70_$LT$alloc..vec..Vec$LT$T$C$A$GT$$u20$as$u20$core..ops..drop..Drop$GT$4drop17he7b210828462debaE', symObjAddr: 0x2D8C, symBinAddr: 0x44A90, symSize: 0x24 }
  - { offset: 0x1288FB, size: 0x8, addend: 0x0, symName: '__ZN90_$LT$alloc..vec..Vec$LT$T$C$A$GT$$u20$as$u20$core..iter..traits..collect..IntoIterator$GT$9into_iter17h00523e173b93836cE', symObjAddr: 0x2EDC, symBinAddr: 0x44BB4, symSize: 0xA8 }
  - { offset: 0x128AF2, size: 0x8, addend: 0x0, symName: '__ZN90_$LT$alloc..vec..Vec$LT$T$C$A$GT$$u20$as$u20$core..iter..traits..collect..IntoIterator$GT$9into_iter17h0a5347635e4bc819E', symObjAddr: 0x2F84, symBinAddr: 0x44C5C, symSize: 0xB0 }
  - { offset: 0x128CE9, size: 0x8, addend: 0x0, symName: '__ZN90_$LT$alloc..vec..Vec$LT$T$C$A$GT$$u20$as$u20$core..iter..traits..collect..IntoIterator$GT$9into_iter17h59942df00805607dE', symObjAddr: 0x3034, symBinAddr: 0x44D0C, symSize: 0xA8 }
  - { offset: 0x128EE6, size: 0x8, addend: 0x0, symName: '__ZN95_$LT$alloc..vec..Vec$LT$T$GT$$u20$as$u20$core..iter..traits..collect..FromIterator$LT$T$GT$$GT$9from_iter17h298e9b786a8d0d63E', symObjAddr: 0x30F8, symBinAddr: 0x44DD0, symSize: 0x34 }
  - { offset: 0x128F27, size: 0x8, addend: 0x0, symName: '__ZN95_$LT$alloc..vec..Vec$LT$T$GT$$u20$as$u20$core..iter..traits..collect..FromIterator$LT$T$GT$$GT$9from_iter17h77d378260952b078E', symObjAddr: 0x312C, symBinAddr: 0x44E04, symSize: 0x34 }
  - { offset: 0x128F68, size: 0x8, addend: 0x0, symName: '__ZN95_$LT$alloc..vec..Vec$LT$T$GT$$u20$as$u20$core..iter..traits..collect..FromIterator$LT$T$GT$$GT$9from_iter17hd0583bcda35e318bE', symObjAddr: 0x3160, symBinAddr: 0x44E38, symSize: 0x34 }
  - { offset: 0x128FB4, size: 0x8, addend: 0x0, symName: '__ZN97_$LT$alloc..vec..Vec$LT$T$C$A$GT$$u20$as$u20$alloc..vec..spec_extend..SpecExtend$LT$T$C$I$GT$$GT$11spec_extend17h447a48923c5ef326E', symObjAddr: 0x32E0, symBinAddr: 0x44F20, symSize: 0x24 }
  - { offset: 0x129006, size: 0x8, addend: 0x0, symName: '__ZN97_$LT$alloc..vec..Vec$LT$T$C$A$GT$$u20$as$u20$alloc..vec..spec_extend..SpecExtend$LT$T$C$I$GT$$GT$11spec_extend17h4a29ea1d4e4a77c6E', symObjAddr: 0x3304, symBinAddr: 0x44F44, symSize: 0x24 }
  - { offset: 0x129058, size: 0x8, addend: 0x0, symName: '__ZN97_$LT$alloc..vec..Vec$LT$T$C$A$GT$$u20$as$u20$alloc..vec..spec_extend..SpecExtend$LT$T$C$I$GT$$GT$11spec_extend17he2fb2aba4de556b2E', symObjAddr: 0x3328, symBinAddr: 0x44F68, symSize: 0x24 }
  - { offset: 0x1290B6, size: 0x8, addend: 0x0, symName: '__ZN98_$LT$alloc..vec..Vec$LT$T$GT$$u20$as$u20$alloc..vec..spec_from_iter..SpecFromIter$LT$T$C$I$GT$$GT$9from_iter17h180f3bdd0f13b190E', symObjAddr: 0x334C, symBinAddr: 0x44F8C, symSize: 0x14 }
  - { offset: 0x1290F5, size: 0x8, addend: 0x0, symName: '__ZN98_$LT$alloc..vec..Vec$LT$T$GT$$u20$as$u20$alloc..vec..spec_from_iter..SpecFromIter$LT$T$C$I$GT$$GT$9from_iter17h4cae9c6d3c10efccE', symObjAddr: 0x3360, symBinAddr: 0x44FA0, symSize: 0x14 }
  - { offset: 0x129134, size: 0x8, addend: 0x0, symName: '__ZN98_$LT$alloc..vec..Vec$LT$T$GT$$u20$as$u20$alloc..vec..spec_from_iter..SpecFromIter$LT$T$C$I$GT$$GT$9from_iter17hbfb3403de59c774bE', symObjAddr: 0x3374, symBinAddr: 0x44FB4, symSize: 0x14 }
  - { offset: 0x129618, size: 0x8, addend: 0x0, symName: '__ZN5alloc6string104_$LT$impl$u20$core..convert..From$LT$alloc..string..String$GT$$u20$for$u20$alloc..vec..Vec$LT$u8$GT$$GT$4from17h2b56e89495c522d9E', symObjAddr: 0x2AC0, symBinAddr: 0x448A8, symSize: 0x18 }
  - { offset: 0x129A7A, size: 0x8, addend: 0x0, symName: '__ZN3std4sync6poison5mutex19MutexGuard$LT$T$GT$3new28_$u7b$$u7b$closure$u7d$$u7d$17h02321195d6626b59E', symObjAddr: 0xB34, symBinAddr: 0x42B3C, symSize: 0x18 }
  - { offset: 0x129AC9, size: 0x8, addend: 0x0, symName: '__ZN87_$LT$std..sync..poison..mutex..MutexGuard$LT$T$GT$$u20$as$u20$core..ops..drop..Drop$GT$4drop17h1d5361c2e761e065E', symObjAddr: 0x2E3C, symBinAddr: 0x44B40, symSize: 0x58 }
  - { offset: 0x129B4D, size: 0x8, addend: 0x0, symName: '__ZN89_$LT$std..sync..poison..mutex..MutexGuard$LT$T$GT$$u20$as$u20$core..ops..deref..Deref$GT$5deref17h8d7c7f5d7b0af54fE', symObjAddr: 0x2E94, symBinAddr: 0x44B98, symSize: 0x1C }
  - { offset: 0x129B9F, size: 0x8, addend: 0x0, symName: '__ZN92_$LT$std..sync..poison..mutex..MutexGuard$LT$T$GT$$u20$as$u20$core..ops..deref..DerefMut$GT$9deref_mut17h518287a95950c886E', symObjAddr: 0x30DC, symBinAddr: 0x44DB4, symSize: 0x1C }
  - { offset: 0x12A44F, size: 0x8, addend: 0x0, symName: '__ZN3std4sync6poison5mutex14Mutex$LT$T$GT$3new17h885e8ac5169fe5d2E', symObjAddr: 0xA8C, symBinAddr: 0x42A94, symSize: 0x60 }
  - { offset: 0x12A560, size: 0x8, addend: 0x0, symName: '__ZN3std4sync6poison5mutex14Mutex$LT$T$GT$4lock17h13658a22e9860708E', symObjAddr: 0xAEC, symBinAddr: 0x42AF4, symSize: 0x48 }
  - { offset: 0x12A672, size: 0x8, addend: 0x0, symName: __ZN4pyo36pycell5impl_10BorrowFlag9decrement17h3bd7770ad6e3cf39E, symObjAddr: 0xE18, symBinAddr: 0x42CC8, symSize: 0x40 }
  - { offset: 0x12A694, size: 0x8, addend: 0x0, symName: __ZN4pyo36pycell5impl_10BorrowFlag9increment17h22977ea5e711a27aE, symObjAddr: 0xE58, symBinAddr: 0x42D08, symSize: 0x40 }
  - { offset: 0x12A7E4, size: 0x8, addend: 0x0, symName: '__ZN5alloc3vec12Vec$LT$T$GT$13with_capacity17h99f57eb3d0dd4c19E', symObjAddr: 0xEE0, symBinAddr: 0x42D48, symSize: 0x44 }
  - { offset: 0x12A85C, size: 0x8, addend: 0x0, symName: '__ZN5alloc3vec12Vec$LT$T$GT$3new17h18197c1999b6ff9bE', symObjAddr: 0xF24, symBinAddr: 0x42D8C, symSize: 0x14 }
  - { offset: 0x12A879, size: 0x8, addend: 0x0, symName: '__ZN5alloc3vec12Vec$LT$T$GT$3new17h53de7c77f71b45e0E', symObjAddr: 0xF38, symBinAddr: 0x42DA0, symSize: 0x14 }
  - { offset: 0x12A896, size: 0x8, addend: 0x0, symName: '__ZN5alloc3vec12Vec$LT$T$GT$3new17h74495184d36f334aE', symObjAddr: 0xF4C, symBinAddr: 0x42DB4, symSize: 0x14 }
  - { offset: 0x12A8F8, size: 0x8, addend: 0x0, symName: '__ZN5alloc3vec12Vec$LT$T$GT$3new17h822323e1ee396450E', symObjAddr: 0xF60, symBinAddr: 0x42DC8, symSize: 0x14 }
  - { offset: 0x12A95D, size: 0x8, addend: 0x0, symName: '__ZN5alloc3vec12Vec$LT$T$GT$3new17hb08fe1620d62f029E', symObjAddr: 0xF74, symBinAddr: 0x42DDC, symSize: 0x14 }
  - { offset: 0x12A97A, size: 0x8, addend: 0x0, symName: '__ZN5alloc3vec12Vec$LT$T$GT$3new17hd024ac3e14e0a308E', symObjAddr: 0xF88, symBinAddr: 0x42DF0, symSize: 0x14 }
  - { offset: 0x12A997, size: 0x8, addend: 0x0, symName: '__ZN5alloc3vec12Vec$LT$T$GT$3new17he716be7889eaeac8E', symObjAddr: 0xF9C, symBinAddr: 0x42E04, symSize: 0x14 }
  - { offset: 0x12A9FF, size: 0x8, addend: 0x0, symName: '__ZN5alloc3vec16Vec$LT$T$C$A$GT$10as_mut_ptr17h7ab74546d9c19f42E', symObjAddr: 0xFB0, symBinAddr: 0x42E18, symSize: 0x18 }
  - { offset: 0x12AC61, size: 0x8, addend: 0x0, symName: '__ZN5alloc3vec16Vec$LT$T$C$A$GT$10retain_mut17hde95d7bbc3854702E', symObjAddr: 0xFC8, symBinAddr: 0x42E30, symSize: 0x31C }
  - { offset: 0x12B278, size: 0x8, addend: 0x0, symName: '__ZN5alloc3vec16Vec$LT$T$C$A$GT$16extend_desugared17h0c2ffc506580b297E', symObjAddr: 0x12E4, symBinAddr: 0x4314C, symSize: 0x1C4 }
  - { offset: 0x12B655, size: 0x8, addend: 0x0, symName: '__ZN5alloc3vec16Vec$LT$T$C$A$GT$16extend_desugared17h728ed69fd73a090bE', symObjAddr: 0x14A8, symBinAddr: 0x43310, symSize: 0x1C4 }
  - { offset: 0x12BB9A, size: 0x8, addend: 0x0, symName: '__ZN5alloc3vec16Vec$LT$T$C$A$GT$16extend_desugared17hd26023b018e0e25bE', symObjAddr: 0x166C, symBinAddr: 0x434D4, symSize: 0x1C8 }
  - { offset: 0x12C1D1, size: 0x8, addend: 0x0, symName: '__ZN5alloc3vec16Vec$LT$T$C$A$GT$16into_boxed_slice17h15133583cbb79de0E', symObjAddr: 0x1834, symBinAddr: 0x4369C, symSize: 0x1EC }
  - { offset: 0x12C995, size: 0x8, addend: 0x0, symName: '__ZN5alloc3vec16Vec$LT$T$C$A$GT$16into_boxed_slice17h970f9b659941673eE', symObjAddr: 0x1A20, symBinAddr: 0x43888, symSize: 0x1EC }
  - { offset: 0x12D159, size: 0x8, addend: 0x0, symName: '__ZN5alloc3vec16Vec$LT$T$C$A$GT$16into_boxed_slice17hd8c6db91ac956c72E', symObjAddr: 0x1C0C, symBinAddr: 0x43A74, symSize: 0x1EC }
  - { offset: 0x12D547, size: 0x8, addend: 0x0, symName: '__ZN5alloc3vec16Vec$LT$T$C$A$GT$4push17h0a0c89383c23b54cE', symObjAddr: 0x1E58, symBinAddr: 0x43C60, symSize: 0x24 }
  - { offset: 0x12D58C, size: 0x8, addend: 0x0, symName: '__ZN5alloc3vec16Vec$LT$T$C$A$GT$4push17h150377f83d199a37E', symObjAddr: 0x1E7C, symBinAddr: 0x43C84, symSize: 0x28 }
  - { offset: 0x12D5D0, size: 0x8, addend: 0x0, symName: '__ZN5alloc3vec16Vec$LT$T$C$A$GT$4push17h2ac0f6e07768db4cE', symObjAddr: 0x1EA4, symBinAddr: 0x43CAC, symSize: 0x24 }
  - { offset: 0x12D615, size: 0x8, addend: 0x0, symName: '__ZN5alloc3vec16Vec$LT$T$C$A$GT$4push17h9a3505531f4a54ffE', symObjAddr: 0x1EC8, symBinAddr: 0x43CD0, symSize: 0x30 }
  - { offset: 0x12D659, size: 0x8, addend: 0x0, symName: '__ZN5alloc3vec16Vec$LT$T$C$A$GT$4push17hafdb86ae07045f88E', symObjAddr: 0x1EF8, symBinAddr: 0x43D00, symSize: 0x24 }
  - { offset: 0x12D6AB, size: 0x8, addend: 0x0, symName: '__ZN5alloc3vec16Vec$LT$T$C$A$GT$4push17hcc038944c496c897E', symObjAddr: 0x1F1C, symBinAddr: 0x43D24, symSize: 0x34 }
  - { offset: 0x12D6FC, size: 0x8, addend: 0x0, symName: '__ZN5alloc3vec16Vec$LT$T$C$A$GT$4push17he102d68ab7bf9d1fE', symObjAddr: 0x1F50, symBinAddr: 0x43D58, symSize: 0x2C }
  - { offset: 0x12D740, size: 0x8, addend: 0x0, symName: '__ZN5alloc3vec16Vec$LT$T$C$A$GT$4push17hef4bf5788240f1ffE', symObjAddr: 0x1F7C, symBinAddr: 0x43D84, symSize: 0x30 }
  - { offset: 0x12D784, size: 0x8, addend: 0x0, symName: '__ZN5alloc3vec16Vec$LT$T$C$A$GT$4push17hf0cfd258f3111e20E', symObjAddr: 0x1FAC, symBinAddr: 0x43DB4, symSize: 0x24 }
  - { offset: 0x12D7C9, size: 0x8, addend: 0x0, symName: '__ZN5alloc3vec16Vec$LT$T$C$A$GT$6retain17h2fae45805bb696dcE', symObjAddr: 0x1FD0, symBinAddr: 0x43DD8, symSize: 0x4C }
  - { offset: 0x12D92C, size: 0x8, addend: 0x0, symName: '__ZN5alloc3vec16Vec$LT$T$C$A$GT$7reserve17hd270872e1a56f64dE', symObjAddr: 0x204C, symBinAddr: 0x43E54, symSize: 0xA8 }
  - { offset: 0x12DB90, size: 0x8, addend: 0x0, symName: '__ZN5alloc3vec16Vec$LT$T$C$A$GT$7reserve17hfa10580840498493E', symObjAddr: 0x20F4, symBinAddr: 0x43EFC, symSize: 0xA8 }
  - { offset: 0x12DD03, size: 0x8, addend: 0x0, symName: '__ZN5alloc3vec16Vec$LT$T$C$A$GT$8is_empty17h04603035fdee58ecE', symObjAddr: 0x21FC, symBinAddr: 0x44004, symSize: 0x20 }
  - { offset: 0x12DD7B, size: 0x8, addend: 0x0, symName: '__ZN5alloc3vec16Vec$LT$T$C$A$GT$8is_empty17h3dd05debcd3980bcE', symObjAddr: 0x221C, symBinAddr: 0x44024, symSize: 0x20 }
  - { offset: 0x12DE00, size: 0x8, addend: 0x0, symName: '__ZN5alloc3vec16Vec$LT$T$C$A$GT$8is_empty17h440e5cc42b8ceaa4E', symObjAddr: 0x223C, symBinAddr: 0x44044, symSize: 0x20 }
  - { offset: 0x12DE78, size: 0x8, addend: 0x0, symName: '__ZN5alloc3vec16Vec$LT$T$C$A$GT$8is_empty17h94f39cf37e9db0feE', symObjAddr: 0x225C, symBinAddr: 0x44064, symSize: 0x20 }
  - { offset: 0x12DEF0, size: 0x8, addend: 0x0, symName: '__ZN5alloc3vec16Vec$LT$T$C$A$GT$8is_empty17hdaae38a0ac20f85cE', symObjAddr: 0x227C, symBinAddr: 0x44084, symSize: 0x20 }
  - { offset: 0x12E030, size: 0x8, addend: 0x0, symName: '__ZN5alloc3vec16Vec$LT$T$C$A$GT$8push_mut17h0c69d1677e6d8242E', symObjAddr: 0x229C, symBinAddr: 0x440A4, symSize: 0xDC }
  - { offset: 0x12E2C9, size: 0x8, addend: 0x0, symName: '__ZN5alloc3vec16Vec$LT$T$C$A$GT$8push_mut17h1831bef5c5acc299E', symObjAddr: 0x2378, symBinAddr: 0x44180, symSize: 0xE4 }
  - { offset: 0x12E561, size: 0x8, addend: 0x0, symName: '__ZN5alloc3vec16Vec$LT$T$C$A$GT$8push_mut17h2f30e562d5f11953E', symObjAddr: 0x245C, symBinAddr: 0x44264, symSize: 0xD0 }
  - { offset: 0x12E7C3, size: 0x8, addend: 0x0, symName: '__ZN5alloc3vec16Vec$LT$T$C$A$GT$8push_mut17h5df118ebac57d3e3E', symObjAddr: 0x252C, symBinAddr: 0x44334, symSize: 0xCC }
  - { offset: 0x12EA32, size: 0x8, addend: 0x0, symName: '__ZN5alloc3vec16Vec$LT$T$C$A$GT$8push_mut17h6e34ca3ca73ba98cE', symObjAddr: 0x25F8, symBinAddr: 0x44400, symSize: 0xF8 }
  - { offset: 0x12ECA2, size: 0x8, addend: 0x0, symName: '__ZN5alloc3vec16Vec$LT$T$C$A$GT$8push_mut17h75dffcb9b5ea2928E', symObjAddr: 0x26F0, symBinAddr: 0x444F8, symSize: 0xF8 }
  - { offset: 0x12EF39, size: 0x8, addend: 0x0, symName: '__ZN5alloc3vec16Vec$LT$T$C$A$GT$8push_mut17haa8cea3a714066e7E', symObjAddr: 0x27E8, symBinAddr: 0x445F0, symSize: 0xF4 }
  - { offset: 0x12F19E, size: 0x8, addend: 0x0, symName: '__ZN5alloc3vec16Vec$LT$T$C$A$GT$8push_mut17hd0aa3dc8fcafc51eE', symObjAddr: 0x28DC, symBinAddr: 0x446E4, symSize: 0xE0 }
  - { offset: 0x12F435, size: 0x8, addend: 0x0, symName: '__ZN5alloc3vec16Vec$LT$T$C$A$GT$8push_mut17heb646cd55ad30322E', symObjAddr: 0x29BC, symBinAddr: 0x447C4, symSize: 0xE4 }
  - { offset: 0x131A8F, size: 0x8, addend: 0x0, symName: __ZN4core9panicking13assert_failed17h1865623b43ff90aaE, symObjAddr: 0x1158, symBinAddr: 0x8B3D4, symSize: 0x54 }
  - { offset: 0x131AF8, size: 0x8, addend: 0x0, symName: __ZN4core9panicking13assert_failed17h3b206e7bc2c39723E, symObjAddr: 0x11AC, symBinAddr: 0x8B428, symSize: 0x54 }
  - { offset: 0x131B61, size: 0x8, addend: 0x0, symName: __ZN4core9panicking13panic_display17h5aba893881db9797E, symObjAddr: 0x1200, symBinAddr: 0x454FC, symSize: 0x5C }
  - { offset: 0x131D1B, size: 0x8, addend: 0x0, symName: '__ZN185_$LT$core..ops..control_flow..ControlFlow$LT$B$C$C$GT$$u20$as$u20$core..ops..try_trait..FromResidual$LT$core..ops..control_flow..ControlFlow$LT$B$C$core..convert..Infallible$GT$$GT$$GT$13from_residual17hc97740bb00ab2d33E', symObjAddr: 0x394, symBinAddr: 0x45194, symSize: 0x18 }
  - { offset: 0x131D5F, size: 0x8, addend: 0x0, symName: '__ZN95_$LT$core..ops..control_flow..ControlFlow$LT$B$C$C$GT$$u20$as$u20$core..ops..try_trait..Try$GT$11from_output17hcb1bee641f9cf019E', symObjAddr: 0x38A0, symBinAddr: 0x45CD8, symSize: 0x10 }
  - { offset: 0x131D9D, size: 0x8, addend: 0x0, symName: '__ZN95_$LT$core..ops..control_flow..ControlFlow$LT$B$C$C$GT$$u20$as$u20$core..ops..try_trait..Try$GT$6branch17h65c228cbb90e828cE', symObjAddr: 0x38B0, symBinAddr: 0x45CE8, symSize: 0x54 }
  - { offset: 0x131FFA, size: 0x8, addend: 0x0, symName: '__ZN110_$LT$core..iter..adapters..enumerate..Enumerate$LT$I$GT$$u20$as$u20$core..iter..traits..iterator..Iterator$GT$4next17ha0f670900fe9f647E', symObjAddr: 0x140, symBinAddr: 0x44FC8, symSize: 0xEC }
  - { offset: 0x1320E0, size: 0x8, addend: 0x0, symName: '__ZN110_$LT$core..iter..adapters..enumerate..Enumerate$LT$I$GT$$u20$as$u20$core..iter..traits..iterator..Iterator$GT$4next17ha5babf362ceb1d89E', symObjAddr: 0x22C, symBinAddr: 0x450B4, symSize: 0xE0 }
  - { offset: 0x1322BB, size: 0x8, addend: 0x0, symName: __ZN4core4iter8adapters3zip27TrustedRandomAccessNoCoerce4size17h59bf98a3d0aa94bdE, symObjAddr: 0xE70, symBinAddr: 0x453FC, symSize: 0x2C }
  - { offset: 0x1322F2, size: 0x8, addend: 0x0, symName: __ZN4core4iter8adapters3zip27TrustedRandomAccessNoCoerce4size17h7fe9d1e4acd4c2efE, symObjAddr: 0xE9C, symBinAddr: 0x45428, symSize: 0x2C }
  - { offset: 0x13238E, size: 0x8, addend: 0x0, symName: __ZN4core4iter6traits8iterator8Iterator3zip17h320da2690a7e919dE, symObjAddr: 0x9E4, symBinAddr: 0x452E0, symSize: 0xC8 }
  - { offset: 0x132404, size: 0x8, addend: 0x0, symName: __ZN4core4iter6traits8iterator8Iterator4take17h71779796ca8e5421E, symObjAddr: 0xB74, symBinAddr: 0x453A8, symSize: 0x2C }
  - { offset: 0x13245F, size: 0x8, addend: 0x0, symName: __ZN4core4iter6traits8iterator8Iterator9enumerate17h75ac643019163000E, symObjAddr: 0xE48, symBinAddr: 0x453D4, symSize: 0x28 }
  - { offset: 0x1324B7, size: 0x8, addend: 0x0, symName: '__ZN63_$LT$I$u20$as$u20$core..iter..traits..collect..IntoIterator$GT$9into_iter17h18ea3310c030fe2eE', symObjAddr: 0x1934, symBinAddr: 0x45590, symSize: 0x14 }
  - { offset: 0x1324EE, size: 0x8, addend: 0x0, symName: '__ZN63_$LT$I$u20$as$u20$core..iter..traits..collect..IntoIterator$GT$9into_iter17h7d5180c2b0b8eabdE', symObjAddr: 0x1948, symBinAddr: 0x455A4, symSize: 0x18 }
  - { offset: 0x13253D, size: 0x8, addend: 0x0, symName: '__ZN53_$LT$T$u20$as$u20$core..slice..cmp..SliceContains$GT$14slice_contains28_$u7b$$u7b$closure$u7d$$u7d$17h74734d8dc2a87d9eE', symObjAddr: 0x18C8, symBinAddr: 0x45558, symSize: 0x38 }
  - { offset: 0x1325A0, size: 0x8, addend: 0x0, symName: '__ZN73_$LT$$u5b$A$u5d$$u20$as$u20$core..slice..cmp..SlicePartialEq$LT$B$GT$$GT$5equal17h10d250dd6d3ad226E', symObjAddr: 0x19E4, symBinAddr: 0x455BC, symSize: 0x88 }
  - { offset: 0x132626, size: 0x8, addend: 0x0, symName: '__ZN73_$LT$$u5b$A$u5d$$u20$as$u20$core..slice..cmp..SlicePartialEq$LT$B$GT$$GT$5equal17h60e9110a0bafa43dE', symObjAddr: 0x1A6C, symBinAddr: 0x45644, symSize: 0x88 }
  - { offset: 0x132796, size: 0x8, addend: 0x0, symName: '__ZN91_$LT$core..slice..iter..Iter$LT$T$GT$$u20$as$u20$core..iter..traits..iterator..Iterator$GT$24__iterator_get_unchecked17h11c4bbcf1c1d262bE', symObjAddr: 0x2C08, symBinAddr: 0x456FC, symSize: 0x28 }
  - { offset: 0x1327F1, size: 0x8, addend: 0x0, symName: '__ZN91_$LT$core..slice..iter..Iter$LT$T$GT$$u20$as$u20$core..iter..traits..iterator..Iterator$GT$24__iterator_get_unchecked17hca412ae0cd8bd01dE', symObjAddr: 0x2C50, symBinAddr: 0x45724, symSize: 0x20 }
  - { offset: 0x13289B, size: 0x8, addend: 0x0, symName: '__ZN91_$LT$core..slice..iter..Iter$LT$T$GT$$u20$as$u20$core..iter..traits..iterator..Iterator$GT$3any17h3f19da7c4360a320E', symObjAddr: 0x2C90, symBinAddr: 0x45744, symSize: 0xE4 }
  - { offset: 0x132976, size: 0x8, addend: 0x0, symName: '__ZN91_$LT$core..slice..iter..Iter$LT$T$GT$$u20$as$u20$core..iter..traits..iterator..Iterator$GT$4next17h2fa2e3b36f5d1a75E', symObjAddr: 0x2F98, symBinAddr: 0x45828, symSize: 0x84 }
